 Engine

 Timestamp is 5e7bcf0d (Thu Mar 26 00:37:17 2020)

 Preferred load address is 10000000

 Start         Length     Name                   Class
 0001:00000000 00001fd0H .text                   CODE
 0001:00001fd0 00001010H .text$di                CODE
 0001:00002fe0 001844b0H .text$mn                CODE
 0001:00187490 00000010H .text$mn$00             CODE
 0001:001874a0 0000c7a0H .text$x                 CODE
 0001:00193c40 0000069aH .text$yd                CODE
 0002:00000000 00000a54H .idata$5                DATA
 0002:00000a54 00000004H .00cfg                  DATA
 0002:00000a58 00000004H .CRT$XCA                DATA
 0002:00000a5c 00000014H .CRT$XCC                DATA
 0002:00000a70 00000018H .CRT$XCL                DATA
 0002:00000a88 00000314H .CRT$XCU                DATA
 0002:00000d9c 00000004H .CRT$XCZ                DATA
 0002:00000da0 00000004H .CRT$XIA                DATA
 0002:00000da4 00000020H .CRT$XIC                DATA
 0002:00000dc4 00000004H .CRT$XIZ                DATA
 0002:00000dc8 00000004H .CRT$XLA                DATA
 0002:00000dcc 00000004H .CRT$XLZ                DATA
 0002:00000dd0 00000004H .CRT$XPA                DATA
 0002:00000dd4 00000008H .CRT$XPX                DATA
 0002:00000ddc 00000004H .CRT$XPXA               DATA
 0002:00000de0 00000004H .CRT$XPZ                DATA
 0002:00000de4 00000004H .CRT$XTA                DATA
 0002:00000de8 00000008H .CRT$XTZ                DATA
 0002:00000dec 00000000H .gfids$y                DATA
 0002:00000dec 00000000H .giats$y                DATA
 0002:00000df0 0003aa88H .rdata                  DATA
 0002:0003b878 00000018H .rdata$T                DATA
 0002:0003b890 000089d0H .rdata$r                DATA
 0002:00044260 00000368H .rdata$zzzdbg           DATA
 0002:000445c8 00000004H .rtc$IAA                DATA
 0002:000445cc 00000004H .rtc$IZZ                DATA
 0002:000445d0 00000004H .rtc$TAA                DATA
 0002:000445d4 00000004H .rtc$TZZ                DATA
 0002:000445d8 00000004H .tls                    DATA
 0002:000445dc 00000004H .tls$                   DATA
 0002:000445e0 00000008H .tls$ZZZ                DATA
 0002:000445e8 0000de6cH .xdata$x                DATA
 0002:00052454 00000000H ATL$__a                 DATA
 0002:00052454 00000000H ATL$__z                 DATA
 0002:00052454 00000000H .edata                  DATA
 0002:00052454 0000017cH .idata$2                DATA
 0002:000525d0 00000014H .idata$3                DATA
 0002:000525e4 00000a54H .idata$4                DATA
 0002:00053038 00002c32H .idata$6                DATA
 0003:00000000 000391a0H .data                   DATA
 0003:000391a0 00003ca0H .data$r                 DATA
 0003:0003ce40 000d43c8H .bss                    DATA
 0004:00000000 000000a0H .rsrc$01                DATA
 0004:000000a0 000004d8H .rsrc$02                DATA

  Address         Publics by Value              Rva+Base       Lib:Object

 0000:00000000       ___guard_longjmp_table     00000000     <absolute>
 0000:00000000       ___guard_longjmp_count     00000000     <absolute>
 0000:00000000       __except_list              00000000     <absolute>
 0000:00000000       ___hybrid_auxiliary_iat    00000000     <absolute>
 0000:00000000       ___guard_eh_cont_table     00000000     <absolute>
 0000:00000000       ___safe_se_handler_table   00000000     <absolute>
 0000:00000000       ___volatile_metadata       00000000     <absolute>
 0000:00000000       ___hybrid_code_map         00000000     <absolute>
 0000:00000000       ___AbsoluteZero            00000000     <absolute>
 0000:00000000       ___safe_se_handler_count   00000000     <absolute>
 0000:00000000       ___guard_eh_cont_count     00000000     <absolute>
 0000:00000000       ___enclave_config          00000000     <absolute>
 0000:00000000       ___dynamic_value_reloc_table 00000000     <absolute>
 0000:00000000       ___guard_fids_table        00000000     <absolute>
 0000:00000000       ___hybrid_code_map_count   00000000     <absolute>
 0000:00000000       ___guard_fids_count        00000000     <absolute>
 0000:00000000       ___guard_iat_count         00000000     <absolute>
 0000:00000000       ___guard_iat_table         00000000     <absolute>
 0000:0000002c       __tls_array                0000002c     <absolute>
 0000:00000100       ___guard_flags             00000100     <absolute>
 0000:00000000       ___ImageBase               10000000     <linker-defined>
 0001:00000000       ??0CDetourEnableWriteOnCodePage@@QAE@PAEJ@Z 10001000 f i Detours:detours.obj
 0001:00000080       ??1CDetourEnableWriteOnCodePage@@QAE@XZ 10001080 f i Detours:detours.obj
 0001:000000f0       _DetourFunction@8          100010f0 f   Detours:detours.obj
 0001:000003e0       ?SetPermission@CDetourEnableWriteOnCodePage@@QAEHK@Z 100013e0 f i Detours:detours.obj
 0001:00000420       ?IsValid@CDetourEnableWriteOnCodePage@@QAEHXZ 10001420 f i Detours:detours.obj
 0001:000004c0       ?DetourGenJmp@@YAPAEPAE00@Z 100014c0 f i Detours:detours.obj
 0001:00000500       ?DetourGenBreak@@YAPAEPAE@Z 10001500 f i Detours:detours.obj
 0001:00000520       ?DetourLoadImageHlp@@YAPAU_DETOUR_SYM_INFO@@XZ 10001520 f   Detours:detours.obj
 0001:000006e0       _DetourGetFinalCode@8      100016e0 f   Detours:detours.obj
 0001:00000750       _DetourFindFunction@8      10001750 f   Detours:detours.obj
 0001:000008f0       _DetourCopyInstructionEx@16 100018f0 f   Detours:disasm.obj
 0001:00000920       _DetourCopyInstruction@12  10001920 f   Detours:disasm.obj
 0001:00000950       ??0CDetourDis@@QAE@PAPAEPAJ@Z 10001950 f   Detours:disasm.obj
 0001:000009d0       ?Set16BitOperand@CDetourDis@@IAEXXZ 100019d0 f   Detours:disasm.obj
 0001:000009f0       ?Set32BitOperand@CDetourDis@@IAEXXZ 100019f0 f   Detours:disasm.obj
 0001:00000a10       ?Set16BitAddress@CDetourDis@@IAEXXZ 10001a10 f   Detours:disasm.obj
 0001:00000a30       ?Set32BitAddress@CDetourDis@@IAEXXZ 10001a30 f   Detours:disasm.obj
 0001:00000a50       ?CopyInstruction@CDetourDis@@QAEPAEPAE0@Z 10001a50 f   Detours:disasm.obj
 0001:00000ab0       ?CopyBytes@CDetourDis@@IAEPAEPBUCOPYENTRY@1@PAE1@Z 10001ab0 f   Detours:disasm.obj
 0001:00000c90       ?CopyBytesPrefix@CDetourDis@@IAEPAEPBUCOPYENTRY@1@PAE1@Z 10001c90 f   Detours:disasm.obj
 0001:00000ce0       ?AdjustTarget@CDetourDis@@IAEPAEPAE0JJ@Z 10001ce0 f   Detours:disasm.obj
 0001:00000dc0       ?Invalid@CDetourDis@@IAEPAEPBUCOPYENTRY@1@PAE1@Z 10001dc0 f   Detours:disasm.obj
 0001:00000de0       ?Copy0F@CDetourDis@@IAEPAEPBUCOPYENTRY@1@PAE1@Z 10001de0 f   Detours:disasm.obj
 0001:00000e30       ?Copy66@CDetourDis@@IAEPAEPBUCOPYENTRY@1@PAE1@Z 10001e30 f   Detours:disasm.obj
 0001:00000e60       ?Copy67@CDetourDis@@IAEPAEPBUCOPYENTRY@1@PAE1@Z 10001e60 f   Detours:disasm.obj
 0001:00000e90       ?CopyF6@CDetourDis@@IAEPAEPBUCOPYENTRY@1@PAE1@Z 10001e90 f   Detours:disasm.obj
 0001:00000ef0       ?CopyF7@CDetourDis@@IAEPAEPBUCOPYENTRY@1@PAE1@Z 10001ef0 f   Detours:disasm.obj
 0001:00000f50       ?CopyFF@CDetourDis@@IAEPAEPBUCOPYENTRY@1@PAE1@Z 10001f50 f   Detours:disasm.obj
 0001:00000ff7       _auxDIBImageLoadA@4        10001ff7 f   glaux:image.obj
 0001:0000100a       _DibNumColors@4            1000200a f   glaux:tkdib.obj
 0001:00001065       _tkDIBImageLoadAW@8        10002065 f   glaux:tkdib.obj
 0001:00001639       ?detour_gen_brk@@YAPAEPAE0@Z 10002639 f i NewDetours:detours.obj
 0001:00001661       ?detour_skip_jmp@@YAPAEPAEPAPAX@Z 10002661 f i NewDetours:detours.obj
 0001:000016b5       ?detour_does_code_end_function@@YAHPAE@Z 100026b5 f i NewDetours:detours.obj
 0001:0000198d       _DetourTransactionBegin@0  1000298d f   NewDetours:detours.obj
 0001:000019fe       _DetourTransactionAbort@0  100029fe f   NewDetours:detours.obj
 0001:00001a9f       _DetourTransactionCommitEx@4 10002a9f f   NewDetours:detours.obj
 0001:00001ce3       _DetourUpdateThread@4      10002ce3 f   NewDetours:detours.obj
 0001:00001d56       _DetourAttachEx@20         10002d56 f   NewDetours:detours.obj
 0001:00001fa7       _DetourTransactionCommit@0 10002fa7 f   NewDetours:detours.obj
 0001:00001faf       _DetourAttach@8            10002faf f   NewDetours:detours.obj
 0001:00002ff0       ?AddBoxOfLuckThis@cBags@@SAXXZ 10003ff0 f   Bags.obj
 0001:00003070       ?AddFloorSize@cBags@@SAXXZ 10004070 f   Bags.obj
 0001:00003100       ?AddInventorySize@cBags@@SAXXZ 10004100 f   Bags.obj
 0001:000031b0       ?Load@cBags@@QAEXXZ        100041b0 f   Bags.obj
 0001:00003230       ??1AFX_MAINTAIN_STATE2@@QAE@XZ 10004230 f i nafxcw:afxstate.obj
 0001:00003230       ?OnHideMenuBar@CFrameWnd@@MAEXXZ 10004230 f i nafxcw:winfrm.obj
 0001:00003230       ?OnNcPaint@CMFCOutlookBarToolBar@@QAEXXZ 10004230 f i nafxcw:afxoutlookbartabctrl.obj
 0001:00003230       ??3@YAXPAX0@Z              10004230 f i nafxcw:afxtls.obj
 0001:00003230       ?PostNcDestroy@COleCntrFrameWnd@@MAEXXZ 10004230 f i nafxcw:oleipfrm.obj
 0001:00003230       ?PreSubclassWindow@CWnd@@UAEXXZ 10004230 f i nafxcw:wincore.obj
 0001:00003230       ?StretchHorizontally@CMFCRibbonBaseElement@@UAEXXZ 10004230 f i nafxcw:afxbaseribbonelement.obj
 0001:00003230       ?OnContinueMoving@CDockablePane@@MAEXXZ 10004230 f i nafxcw:afxoutlookbar.obj
 0001:00003230       ?OnCancel@CPropertyPage@@UAEXXZ 10004230 f i nafxcw:dlgprop.obj
 0001:00003230       ?OnClose@CSmartDockingGroupGuidesWnd@@QAEXXZ 10004230 f i nafxcw:afxsmartdockingguide.obj
 0001:00003230       ?AdjustPaneFrames@CPaneFrameWnd@@UAEXXZ 10004230 f i nafxcw:afxpaneframewnd.obj
 0001:00003230       ?AdjustLayout@CMultiPaneFrameWnd@@UAEXXZ 10004230 f i nafxcw:afxmultipaneframewnd.obj
 0001:00003230       ?__global_delete@@YAXPAXI@Z 10004230 f i Bags.obj
 0001:00003230       ?AdjustLayout@CBasePane@@UAEXXZ 10004230 f i nafxcw:afxbasepane.obj
 0001:00003230       ?__empty_global_delete@@YAXPAXI@Z 10004230 f i Bags.obj
 0001:00003230       ?OnClose@CSmartDockingStandaloneGuideWnd@@IAEXXZ 10004230 f i nafxcw:afxsmartdockingguide.obj
 0001:00003230       ?OnCancelMode@CMFCToolBarButton@@UAEXXZ 10004230 f i nafxcw:afxcolorbar.obj
 0001:00003230       ?Flush@CMemFile@@UAEXXZ    10004230 f i nafxcw:filemem.obj
 0001:00003230       ?OnChangeTabs@CMFCBaseTabCtrl@@UAEXXZ 10004230 f i nafxcw:afxpropertysheet.obj
 0001:00003230       ?OnScrollUp@CMFCOutlookBarTabCtrl@@MAEXXZ 10004230 f i nafxcw:afxoutlookbartabctrl.obj
 0001:00003230       ?OnDragLeave@CView@@UAEXXZ 10004230 f i nafxcw:viewcore.obj
 0001:00003230       ?OnSelectionChanged@CVSListBoxBase@@UAEXXZ 10004230 f i nafxcw:afxvslistbox.obj
 0001:00003230       ?RecalcLayout@CBasePane@@UAEXXZ 10004230 f i nafxcw:afxbasepane.obj
 0001:00003230       ?_Lock@?$basic_streambuf@DU?$char_traits@D@std@@@std@@UAEXXZ 10004230 f i Version.obj
 0001:00003230       ?OnFileNameChange@CFileDialog@@MAEXXZ 10004230 f i nafxcw:dlgfile.obj
 0001:00003230       ?OnDrawCaption@CBasePane@@UAEXXZ 10004230 f i nafxcw:afxpropertysheet.obj
 0001:00003230       ?OnReset@CMFCToolBar@@UAEXXZ 10004230 f i nafxcw:afxpropertysheet.obj
 0001:00003230       ?OnGlobalFontsChanged@CMFCToolBarButton@@UAEXXZ 10004230 f i nafxcw:afxcolorbar.obj
 0001:00003230       ?OnInitToolsPage@CMFCToolBarsCustomizeDialog@@MAEXXZ 10004230 f i nafxcw:afxtoolbarscustomizedialog.obj
 0001:00003230       ?DropDownList@CMFCRibbonEdit@@UAEXXZ 10004230 f i nafxcw:afxribbonedit.obj
 0001:00003230       ?DuplicateData@CMFCToolBarComboBoxButton@@UAEXXZ 10004230 f i nafxcw:afxtoolbarcomboboxbutton.obj
 0001:00003230       ?OnAddToCustomizePage@CMFCToolBarButton@@UAEXXZ 10004230 f i nafxcw:afxcolorbar.obj
 0001:00003230       ?OnClose@CSmartDockingHighlighterWnd@@IAEXXZ 10004230 f i nafxcw:afxsmartdockinghighlighterwnd.obj
 0001:00003230       ?OnActivateTasksPanePage@CMFCTasksPane@@MAEXXZ 10004230 f i nafxcw:afxtaskspane.obj
 0001:00003230       ?PreInitDialog@CDialog@@MAEXXZ 10004230 f i nafxcw:dlgcore.obj
 0001:00003230       ?OnOK@CPropertyPage@@UAEXXZ 10004230 f i nafxcw:dlgprop.obj
 0001:00003230       ?CheckGripperVisibility@CPaneFrameWnd@@UAEXXZ 10004230 f i nafxcw:afxpaneframewnd.obj
 0001:00003230       ?ClearData@CMFCToolBarComboBoxButton@@UAEXXZ 10004230 f i nafxcw:afxtoolbarcomboboxbutton.obj
 0001:00003230       ?OnDragLeave@CMFCBaseTabCtrl@@UAEXXZ 10004230 f i nafxcw:afxpropertysheet.obj
 0001:00003230       ?OnMove@CMFCToolBarButton@@UAEXXZ 10004230 f i nafxcw:afxcolorbar.obj
 0001:00003230       ?PostNcDestroy@CWnd@@MAEXXZ 10004230 f i nafxcw:wincore.obj
 0001:00003230       ?_Unlock@?$basic_streambuf@DU?$char_traits@D@std@@@std@@UAEXXZ 10004230 f i Version.obj
 0001:00003230       ?SetRadio@CMFCToolBarButton@@UAEXXZ 10004230 f i nafxcw:afxcolorbar.obj
 0001:00003230       ?OnSysColorChange@CMFCShadowRenderer@@UAEXXZ 10004230 f i nafxcw:afxcontrolrenderer.obj
 0001:00003230       ?OnFolderChange@CFileDialog@@MAEXXZ 10004230 f i nafxcw:dlgfile.obj
 0001:00003230       ?CleanUpSizes@CMFCRibbonBaseElement@@UAEXXZ 10004230 f i nafxcw:afxbaseribbonelement.obj
 0001:00003230       ?SaveBarState@CMFCToolBarButton@@UAEXXZ 10004230 f i nafxcw:afxcolorbar.obj
 0001:00003230       ?Destroy@CSmartDockingGroupGuide@@UAEXXZ 10004230 f i nafxcw:afxsmartdockingguide.obj
 0001:00003230       ?OnSysColorChange@CMFCCaptionBar@@IAEXXZ 10004230 f i nafxcw:afxcaptionbar.obj
 0001:00003230       ?DestroyCtrl@CMFCRibbonBaseElement@@UAEXXZ 10004230 f i nafxcw:afxbaseribbonelement.obj
 0001:00003230       ?OnShowMenuBar@CFrameWnd@@MAEXXZ 10004230 f i nafxcw:winfrm.obj
 0001:00003230       @_guard_check_icall_nop@4  10004230 f i libcmt:guard_support.obj
 0001:00003230       ?ToggleAutoHide@CPane@@UAEXXZ 10004230 f i nafxcw:afxpropertysheet.obj
 0001:00003230       ?OnUpdateSystemColors@CMFCVisualManager@@UAEXXZ 10004230 f i nafxcw:afxvisualmanager.obj
 0001:00003230       ?OnNcPaint@CMFCPopupMenuBar@@IAEXXZ 10004230 f i nafxcw:afxpopupmenubar.obj
 0001:00003230       ?OnBrowse@CVSListBoxBase@@UAEXXZ 10004230 f i nafxcw:afxvslistbox.obj
 0001:00003230       ?OnTypeChange@CFileDialog@@MAEXXZ 10004230 f i nafxcw:dlgfile.obj
 0001:00003230       ?OnAfterCreatePopupMenu@CMFCToolBarMenuButton@@UAEXXZ 10004230 f i nafxcw:afxtoolbarmenubutton.obj
 0001:00003230       ?OnScrollDown@CMFCOutlookBarTabCtrl@@MAEXXZ 10004230 f i nafxcw:afxoutlookbartabctrl.obj
 0001:00003240       ?TransformByObjectBone@BMD@@QAEXQAMPAXH0@Z 10004240 f   BMD.obj
 0001:00003270       ?TransformPosition@BMD@@QAEXPAY03MQAM1_N@Z 10004270 f   BMD.obj
 0001:000032a0       ?CreateBowAndCrossBowPos@cBows@@SAXXZ 100042a0 f   Bows.obj
 0001:00003490       ?CreateBowDimension@cBows@@SAXXZ 10004490 f   Bows.obj
 0001:00003580       ?CreateBowSkill@cBows@@SAXXZ 10004580 f   Bows.obj
 0001:000037f0       ?CreateCrossSkill@cBows@@SAXXZ 100047f0 f   Bows.obj
 0001:000038d0       ?CreateInvenPos@cBows@@SAXXZ 100048d0 f   Bows.obj
 0001:000039c0       ?Load@cBows@@QAEXXZ        100049c0 f   Bows.obj
 0001:00003aa0       ?BundledBlessInventoryPos@cBundles@@SAXXZ 10004aa0 f   Bundles.obj
 0001:00003ba0       ?BundledBlessInventorySize@cBundles@@SAXXZ 10004ba0 f   Bundles.obj
 0001:00003ca0       ?DrawColors@cBundles@@SAXH@Z 10004ca0 f   Bundles.obj
 0001:00004520       ?DrawNumber@cBundles@@SAHH@Z 10005520 f   Bundles.obj
 0001:00004690       ?Load@cBundles@@QAEXXZ     10005690 f   Bundles.obj
 0001:00004730       ??_GcCamera@@UAEPAXI@Z     10005730 f i Camera.obj
 0001:00004730       ??_EcCamera@@UAEPAXI@Z     10005730 f i Camera.obj
 0001:00004760       ?Motion@@YAXPAX@Z          10005760 f   Camera.obj
 0001:000048e0       ?ResetZoom@cCamera@@QAEXXZ 100058e0 f   Camera.obj
 0001:00004970       ?Run@cCamera@@QAEXPAUtagMOUSEHOOKSTRUCTEX@@I@Z 10005970 f   Camera.obj
 0001:00004b80       ?SetClips@cCamera@@QAEXXZ  10005b80 f   Camera.obj
 0001:00004c40       ?SwitchState@cCamera@@QAEXXZ 10005c40 f   Camera.obj
 0001:00004c70       ?Load@cCharacter@@QAEXXZ   10005c70 f   Character.obj
 0001:00004d90       ?Load@cComplete@@QAEXXZ    10005d90 f   Complete.obj
 0001:00004e40       ?MakeCharSet@cComplete@@SAHHPAEHH@Z 10005e40 f   Complete.obj
 0001:00005960       ?gLevelSmallConvert@@YAEH@Z 10006960 f   Complete.obj
 0001:000059c0       ?Load@cConnection@@QAEXXZ  100069c0 f   Connection.obj
 0001:00005be0       ___local_stdio_printf_options 10006be0 f i Connection.obj
 0001:00005bf0       _sprintf                   10006bf0 f i Connection.obj
 0001:00005c30       ??_EcControl@@UAEPAXI@Z    10006c30 f i Control.obj
 0001:00005c30       ??_GcControl@@UAEPAXI@Z    10006c30 f i Control.obj
 0001:00005c60       ?KeyboardProc@cControl@@SGJHIJ@Z 10006c60 f   Control.obj
 0001:00005d50       ?Load@cControl@@QAE_NXZ    10006d50 f   Control.obj
 0001:00005db0       ?MouseProc@cControl@@SGJHIJ@Z 10006db0 f   Control.obj
 0001:00005e30       ?DamageRot@cDamage@@SAXAAM0M@Z 10006e30 f   Damage.obj
 0001:00005ee0       ?Load@cDamage@@QAEXXZ      10006ee0 f   Damage.obj
 0001:00005f40       ??_GcDisplay@@UAEPAXI@Z    10006f40 f i Display.obj
 0001:00005f40       ??_EcDisplay@@UAEPAXI@Z    10006f40 f i Display.obj
 0001:00005f70       ?GameLoad@cDisplay@@SAHXZ  10006f70 f   Display.obj
 0001:000060c0       ?Load@cDisplay@@QAEXXZ     100070c0 f   Display.obj
 0001:00006130       ?MoveListInit@cDisplay@@SIXPAX0HH@Z 10007130 f   Display.obj
 0001:00006180       ?glEnable_h@@YGXI@Z        10007180 f   Display.obj
 0001:00006240       ?Load@cDrawFrame@@QAEXXZ   10007240 f   DrawFrame.obj
 0001:000063d0       ?CreateEffect@@YAXHQAM00HPAU_OBJECT@@FEME0E@Z 100073d0 f   Effect.obj
 0001:00006410       ?CreateParticle@@YAHHQAM00HMPAU_OBJECT@@@Z 10007410 f   Effect.obj
 0001:00006440       ?CreateSprite@@YAHHQAMM0PAU_OBJECT@@MH@Z 10007440 f   Effect.obj
 0001:00006480       ?Load@cEffect@@QAEXXZ      10007480 f   Effect.obj
 0001:000064e0       ?RenderPartObjectEffectEx@@YAXPAU_OBJECT@@HQAMMHHHHH@Z 100074e0 f   Effect.obj
 0001:00010d20       ?absf@@YAMM@Z              10011d20 f   Effect.obj
 0001:00010d50       _DllMain@12                10011d50 f   Engine.obj
 0001:00010f00       ??_EcExHP@@UAEPAXI@Z       10011f00 f i ExHP.obj
 0001:00010f00       ??_GcExHP@@UAEPAXI@Z       10011f00 f i ExHP.obj
 0001:00010f50       ?Draw@cExHP@@SAXXZ         10011f50 f   ExHP.obj
 0001:000111c0       ?InfoRecv@cExHP@@QAEXPAUMSG_ANS_LIFEBAR_SEND@@@Z 100121c0 f   ExHP.obj
 0001:00011250       ?Load@cExHP@@QAEXXZ        10012250 f   ExHP.obj
 0001:000112e0       ?Switcher@cExHP@@QAEXXZ    100122e0 f   ExHP.obj
 0001:00011330       ?AncientMainToolTip@cFixes@@SAXXZ 10012330 f   Fixes.obj
 0001:00011360       ?FixDeleteCharASM@cFixes@@SAXXZ 10012360 f   Fixes.obj
 0001:00011380       ?Load@cFixes@@QAEXXZ       10012380 f   Fixes.obj
 0001:00011630       ?StartAddress@@YAXPAX@Z    10012630 f   Fixes.obj
 0001:00011670       ?Load@cFogEffect@@SAXXZ    10012670 f   FogEffect.obj
 0001:000116b0       ?glEnable_Hooked@@YGXI@Z   100126b0 f   FogEffect.obj
 0001:00011880       ??_EcFont@@UAEPAXI@Z       10012880 f i Font.obj
 0001:00011880       ??_GcFont@@UAEPAXI@Z       10012880 f i Font.obj
 0001:000118b0       ?Load@cFont@@QAEXXZ        100128b0 f   Font.obj
 0001:00011900       ?LoadNewFont@cFont@@SAXXZ  10012900 f   Font.obj
 0001:00011df0       ?ItemGlowEx@cGlow@@SAXHMMQAM_N@Z 10012df0 f   Glow.obj
 0001:00011e90       ?Load@cGlow@@QAEXXZ        10012e90 f   Glow.obj
 0001:00011fe0       ??$sprintf_s@$0CAA@@@YAHAAY0CAA@DPBDZZ 10012fe0 f i GlowTron.obj
 0001:00012010       ??_GcGlowTron@@UAEPAXI@Z   10013010 f i GlowTron.obj
 0001:00012010       ??_EcGlowTron@@UAEPAXI@Z   10013010 f i GlowTron.obj
 0001:00012040       ?DoBlur@@YAXIIHHHHMM@Z     10013040 f   GlowTron.obj
 0001:00012160       ?DrawQuad@@YAXHH@Z         10013160 f   GlowTron.obj
 0001:00012260       ?InitScreenGlow@@YAXXZ     10013260 f   GlowTron.obj
 0001:00012540       ?LoadProgram@@YA_NPAPAU_CGprogram@@W4CGprofile@@PBD@Z 10013540 f   GlowTron.obj
 0001:000125e0       ?RenderScreenGlow@@YAXXZ   100135e0 f   GlowTron.obj
 0001:000129a0       ?SwitchState@cGlowTron@@QAEXXZ 100139a0 f   GlowTron.obj
 0001:000129f0       ?Load@Graphics@@QAEXXZ     100139f0 f   Graphics.obj
 0001:00012a60       ?SelectDraw@Graphics@@SAHH@Z 10013a60 f   Graphics.obj
 0001:00012a70       ?gGraphicsASM00@@YAXXZ     10013a70 f   Graphics.obj
 0001:00012ae0       ?gSelectASM00@@YAXXZ       10013ae0 f   Graphics.obj
 0001:00012b50       ??_EcInterface@@UAEPAXI@Z  10013b50 f i Interface.obj
 0001:00012b50       ??_GcInterface@@UAEPAXI@Z  10013b50 f i Interface.obj
 0001:00012b80       ?ChatHandler@cInterface@@SAXPAD@Z 10013b80 f   Interface.obj
 0001:00012ec0       ?CheckWindow@cInterface@@QAE_NH@Z 10013ec0 f   Interface.obj
 0001:00012ee0       ?DrawCameraUI@cInterface@@QAEXXZ 10013ee0 f   Interface.obj
 0001:00013370       ?DrawColoredGUI@cInterface@@QAEXFMMMMMMK@Z 10014370 f   Interface.obj
 0001:00013470       ?DrawFormat@cInterface@@QAAHKHHHHPBDZZ 10014470 f   Interface.obj
 0001:00013540       ?DrawGUI@cInterface@@QAEXFMMMM@Z 10014540 f   Interface.obj
 0001:000135e0       ?DrawToolTipEx@cInterface@@QAAHHHPBDZZ 100145e0 f   Interface.obj
 0001:000136a0       ?DrawUserHelp@cInterface@@QAEXXZ 100146a0 f   Interface.obj
 0001:00013900       ?EventCameraUI@cInterface@@QAEXK@Z 10014900 f   Interface.obj
 0001:00013a60       ?EventGlowTronButton@cInterface@@QAEXK@Z 10014a60 f   Interface.obj
 0001:00013bb0       ?EventHPMobCheck@cInterface@@QAEXK@Z 10014bb0 f   Interface.obj
 0001:00013d00       ?IsWorkZone@cInterface@@QAE_NF@Z 10014d00 f   Interface.obj
 0001:00013d60       ?Load@cInterface@@QAEXXZ   10014d60 f   Interface.obj
 0001:00014150       ?LoadImages@cInterface@@SAXXZ 10015150 f   Interface.obj
 0001:00014230       ?TimeSwitch@cInterface@@QAEXXZ 10015230 f   Interface.obj
 0001:00014260       ?WinKeyChecks@cInterface@@QAE_NXZ 10015260 f   Interface.obj
 0001:00014290       ?Work@cInterface@@SAXXZ    10015290 f   Interface.obj
 0001:00014770       ??$sprintf_s@$0BAA@@@YAHAAY0BAA@DPBDZZ 10015770 f i Item.obj
 0001:000147a0       ?BladesWizardryAdd@cItem@@SAXXZ 100157a0 f   Item.obj
 0001:000147f0       ?BladesWizardryDmg@cItem@@SAXXZ 100157f0 f   Item.obj
 0001:00014840       ?ItemAddGoldSmelt@cItem@@SAXXZ 10015840 f   Item.obj
 0001:00014960       ?ItemArmorPosition@cItem@@SAXXZ 10015960 f   Item.obj
 0001:00014a80       ?ItemDivineNameOnFloor@cItem@@SAXXZ 10015a80 f   Item.obj
 0001:00015070       ?ItemDropTitleColor@cItem@@SAXXZ 10016070 f   Item.obj
 0001:00015b40       ?ItemRingInventoryPos@cItem@@SAXXZ 10016b40 f   Item.obj
 0001:00015c00       ?ItemSummonBookInvenPos@cItem@@SAXXZ 10016c00 f   Item.obj
 0001:00015c50       ?ItemTitleColor@cItem@@SAXXZ 10016c50 f   Item.obj
 0001:00016c50       ?Load@cItem@@QAEXXZ        10017c50 f   Item.obj
 0001:00016ec0       ?LoadModels@cItem@@SAXXZ   10017ec0 f   Item.obj
 0001:00017620       ?LoadTextures@cItem@@SAXXZ 10018620 f   Item.obj
 0001:00017cf0       ?SceptersPetAttack@cItem@@SAXXZ 10018cf0 f   Item.obj
 0001:00017d90       ?SetItemSpecialStat@cItem@@SAHFHEEH@Z 10018d90 f   Item.obj
 0001:00017f00       ?Load@cItemLevel@@QAEXXZ   10018f00 f   ItemLevel.obj
 0001:00018100       ?ItemSocketInit@cItemSocket@@SAHH@Z 10019100 f   ItemSocket.obj
 0001:00018180       ?Load@cItemSocket@@QAEXXZ  10019180 f   ItemSocket.obj
 0001:00018280       ?JewelsAllowOnItem@cJewels@@SAXXZ 10019280 f   Jewels.obj
 0001:00018380       ?JewelsBlockDrop@cJewels@@SAXXZ 10019380 f   Jewels.obj
 0001:00018530       ?JewelsDropSound@cJewels@@SAXXZ 10019530 f   Jewels.obj
 0001:00018750       ?JewelsInvenSwitch@cJewels@@SAXXZ 10019750 f   Jewels.obj
 0001:00018820       ?JewelsMoveOnItem@cJewels@@SAXXZ 10019820 f   Jewels.obj
 0001:00018920       ?JewelsPickSound@cJewels@@SAXXZ 10019920 f   Jewels.obj
 0001:00018ac0       ?JewelsPricesOnShop@cJewels@@SAXXZ 10019ac0 f   Jewels.obj
 0001:00018df0       ?JewelsShineEffect@cJewels@@SAXXZ 10019df0 f   Jewels.obj
 0001:00018f90       ?JewelsUpdateFlags@cJewels@@SAXXZ 10019f90 f   Jewels.obj
 0001:00019460       ?Load@cJewels@@QAEXXZ      1001a460 f   Jewels.obj
 0001:000195e0       ??_GcLauncher@@UAEPAXI@Z   1001a5e0 f i Launcher.obj
 0001:000195e0       ??_EcLauncher@@UAEPAXI@Z   1001a5e0 f i Launcher.obj
 0001:00019610       ?Load@cLauncher@@QAEXXZ    1001a610 f   Launcher.obj
 0001:000196d0       ??_GcLoader@@UAEPAXI@Z     1001a6d0 f i Loader.obj
 0001:000196d0       ??_EcLoader@@UAEPAXI@Z     1001a6d0 f i Loader.obj
 0001:00019700       ?Load@cLoader@@QAEXXZ      1001a700 f   Loader.obj
 0001:00019870       ?LoadClearCommandSoundGM@cLoadSound@@SAHXZ 1001a870 f   LoadSound.obj
 0001:00019890       ?LoadDropHorrocruxsSound@cLoadSound@@SAHXZ 1001a890 f   LoadSound.obj
 0001:000198b0       ?LoadGetItemOnZenCommand@cLoadSound@@SAHXZ 1001a8b0 f   LoadSound.obj
 0001:000198d0       ?LoadInterfaceWindowTick@cLoadSound@@SAHXZ 1001a8d0 f   LoadSound.obj
 0001:000198f0       ?LoadMixsJewelsPackSound@cLoadSound@@SAHXZ 1001a8f0 f   LoadSound.obj
 0001:00019910       ?AllowFire@cMaps@@SAXXZ    1001a910 f   Maps.obj
 0001:00019960       ?AlphaTile@cMaps@@SAXXZ    1001a960 f   Maps.obj
 0001:000199d0       ?Load@cMaps@@QAEXXZ        1001a9d0 f   Maps.obj
 0001:00019b50       ?NameLoad@cMaps@@SAXXZ     1001ab50 f   Maps.obj
 0001:00019c80       ?NameText@cMaps@@SAXXZ     1001ac80 f   Maps.obj
 0001:00019db0       ?PlayMusic@cMaps@@SAXXZ    1001adb0 f   Maps.obj
 0001:00019f20       ?Core@cMiniMap@@SAXXZ      1001af20 f   MiniMap.obj
 0001:00019f30       ?CoreCheck@cMiniMap@@SA_NH@Z 1001af30 f   MiniMap.obj
 0001:00019f90       ?Load@cMiniMap@@QAEXXZ     1001af90 f   MiniMap.obj
 0001:0001a050       ?Path@cMiniMap@@SAXXZ      1001b050 f   MiniMap.obj
 0001:0001a180       ?Toggle@cMiniMap@@QAEXXZ   1001b180 f   MiniMap.obj
 0001:0001a190       ?Load@cMonster@@QAEXXZ     1001b190 f   Monster.obj
 0001:0001a1e0       ?SetMainAttr@cMonster@@SAXXZ 1001b1e0 f   Monster.obj
 0001:0001a240       ?CreateCodeMountEx@cPets@@SAXXZ 1001b240 f   Pets.obj
 0001:0001a2a0       ?CreateFenrirThis10@cPets@@SAXXZ 1001b2a0 f   Pets.obj
 0001:0001a320       ?CreateFenrirThis11@cPets@@SAXXZ 1001b320 f   Pets.obj
 0001:0001a3a0       ?CreateFenrirThis12@cPets@@SAXXZ 1001b3a0 f   Pets.obj
 0001:0001a430       ?CreateFenrirThis13@cPets@@SAXXZ 1001b430 f   Pets.obj
 0001:0001a4c0       ?CreateFenrirThis14@cPets@@SAXXZ 1001b4c0 f   Pets.obj
 0001:0001a550       ?CreateFenrirThis1@cPets@@SAXXZ 1001b550 f   Pets.obj
 0001:0001a5e0       ?CreateFenrirThis2@cPets@@SAXXZ 1001b5e0 f   Pets.obj
 0001:0001a660       ?CreateFenrirThis3@cPets@@SAXXZ 1001b660 f   Pets.obj
 0001:0001a6e0       ?CreateFenrirThis4@cPets@@SAXXZ 1001b6e0 f   Pets.obj
 0001:0001a760       ?CreateFenrirThis5@cPets@@SAXXZ 1001b760 f   Pets.obj
 0001:0001a7e0       ?CreateFenrirThis6@cPets@@SAXXZ 1001b7e0 f   Pets.obj
 0001:0001a860       ?CreateFenrirThis7@cPets@@SAXXZ 1001b860 f   Pets.obj
 0001:0001a8e0       ?CreateFenrirThis8@cPets@@SAXXZ 1001b8e0 f   Pets.obj
 0001:0001a960       ?CreateFenrirThis9@cPets@@SAXXZ 1001b960 f   Pets.obj
 0001:0001a9e0       ?CreatePetAllowedWalkOnMap@cPets@@SAXXZ 1001b9e0 f   Pets.obj
 0001:0001aae0       ?CreatePetEffectEx@cPets@@SADHD@Z 1001bae0 f   Pets.obj
 0001:0001b120       ?CreatePetFollowChar@cPets@@SAXXZ 1001c120 f   Pets.obj
 0001:0001b1e0       ?CreatePetFunctionUnknown@cPets@@SAXXZ 1001c1e0 f   Pets.obj
 0001:0001b2b0       ?CreatePetInvenModelPosEx@cPets@@SAXXZ 1001c2b0 f   Pets.obj
 0001:0001b410       ?CreatePetInvenNewNameExc@cPets@@SAXXZ 1001c410 f   Pets.obj
 0001:0001b470       ?CreatePetInventorySizeEx@cPets@@SAXXZ 1001c470 f   Pets.obj
 0001:0001b5f0       ?CreatePetMountEx@cPets@@SAHHH@Z 1001c5f0 f   Pets.obj
 0001:0001b760       ?CreatePetMovementOnWalk@cPets@@SAXXZ 1001c760 f   Pets.obj
 0001:0001b820       ?CreatePetObjectEx@cPets@@SAXH@Z 1001c820 f   Pets.obj
 0001:0001bc50       ?CreatePetSetPlayerActions@cPets@@SAXXZ 1001cc50 f   Pets.obj
 0001:0001bff0       ?CreatePetStatics@cPets@@SADHHHHH@Z 1001cff0 f   Pets.obj
 0001:0001c620       ?CreatePetTypeFenrir@cPets@@SAXXZ 1001d620 f   Pets.obj
 0001:0001c6a0       ?DemonShowLife@cPets@@SAXXZ 1001d6a0 f   Pets.obj
 0001:0001c6f0       ?DrawAngelMovement@cPets@@SAXXZ 1001d6f0 f   Pets.obj
 0001:0001c7b0       ?DrawHPBarOnScreen@cPets@@SAXXZ 1001d7b0 f   Pets.obj
 0001:0001cbf0       ?DrawObjectOnViewport@cPets@@SAHPAUgObjViewport@@@Z 1001dbf0 f   Pets.obj
 0001:0001cd20       ?DrawPetSkillEffect@cPets@@SAXXZ 1001dd20 f   Pets.obj
 0001:0001d0c0       ?FollowCharacter@cPets@@SAXXZ 1001e0c0 f   Pets.obj
 0001:0001d250       ?FunctionUnknown1@cPets@@SAXXZ 1001e250 f   Pets.obj
 0001:0001d2c0       ?FunctionUnknown2@cPets@@SAXXZ 1001e2c0 f   Pets.obj
 0001:0001d3a0       ?GetFenrirSkillColor@cPets@@SAHH@Z 1001e3a0 f   Pets.obj
 0001:0001d400       ?Init@cPets@@QAEXXZ        1001e400 f   Pets.obj
 0001:0001d9e0       ?Load@cPets@@QAEXXZ        1001e9e0 f   Pets.obj
 0001:0001dde0       ?LoadObjSkillModel@cPets@@SAXXZ 1001ede0 f   Pets.obj
 0001:0001de80       ?RedrawObjViewport@cPets@@SAXXZ 1001ee80 f   Pets.obj
 0001:0001df30       ?ResetPetPreviewEx@cPets@@SA_NH@Z 1001ef30 f   Pets.obj
 0001:0001dff0       ?RudolfSearchZen@cPets@@SAXXZ 1001eff0 f   Pets.obj
 0001:0001e0a0       ?PlayClearCommandSoundGM@cPlaySound@@SAHXZ 1001f0a0 f   PlaySound.obj
 0001:0001e0c0       ?PlayDropHorrocruxsSound@cPlaySound@@SAHXZ 1001f0c0 f   PlaySound.obj
 0001:0001e0e0       ?PlayGetItemOnZenCommand@cPlaySound@@SAHXZ 1001f0e0 f   PlaySound.obj
 0001:0001e100       ?PlayInterfaceWindowTick@cPlaySound@@SAHXZ 1001f100 f   PlaySound.obj
 0001:0001e120       ?PlayMixsJewelsPackSound@cPlaySound@@SAHXZ 1001f120 f   PlaySound.obj
 0001:0001e140       ?Load@cPoint@@QAEXXZ       1001f140 f   Point.obj
 0001:0001e280       ?SetPCPointItemPrice@cPoint@@SAHPAUObjectItem@@H@Z 1001f280 f   Point.obj
 0001:0001e2e0       ?DataRecv@cProtocol@@SAXKPAEHH@Z 1001f2e0 f   Protocol.obj
 0001:0001e5d0       ?Load@cProtocol@@QAEXXZ    1001f5d0 f   Protocol.obj
 0001:0001e5f0       ?SetData@cReset@@QAEXPAURESET_ANS_USERDATA@@@Z 1001f5f0 f   Reset.obj
 0001:0001e610       ??_EScriptEncode@@UAEPAXI@Z 1001f610 f i ScriptEncode.obj
 0001:0001e610       ??_GScriptEncode@@UAEPAXI@Z 1001f610 f i ScriptEncode.obj
 0001:0001e650       ?Close@ScriptEncode@@QAEXXZ 1001f650 f   ScriptEncode.obj
 0001:0001e660       ?GetNumber@ScriptEncode@@QAEHXZ 1001f660 f   ScriptEncode.obj
 0001:0001e670       ?GetString@ScriptEncode@@QAEPADXZ 1001f670 f   ScriptEncode.obj
 0001:0001e680       ?GetToken@ScriptEncode@@QAE?AW4WZSMDToken@@XZ 1001f680 f   ScriptEncode.obj
 0001:0001e9c0       ?ReadScript@ScriptEncode@@QAEHPAD@Z 1001f9c0 f   ScriptEncode.obj
 0001:0001eaa0       ?UnGetC@ScriptEncode@@QAEXH@Z 1001faa0 f   ScriptEncode.obj
 0001:0001eac0       ??_EcSkills@@UAEPAXI@Z     1001fac0 f i Skills.obj
 0001:0001eac0       ??_GcSkills@@UAEPAXI@Z     1001fac0 f i Skills.obj
 0001:0001eaf0       ?Load@cSkills@@QAEXXZ      1001faf0 f   Skills.obj
 0001:0001ed10       ??_GcSkyBox@@UAEPAXI@Z     1001fd10 f i SkyBox.obj
 0001:0001ed10       ??_EcSkyBox@@UAEPAXI@Z     1001fd10 f i SkyBox.obj
 0001:0001ed40       ?Display@cSkyBox@@SAXXZ    1001fd40 f   SkyBox.obj
 0001:0001f700       ?InitDisplay@cSkyBox@@QAEXXZ 10020700 f   SkyBox.obj
 0001:0001fa70       ?Load@cSkyBox@@QAEXXZ      10020a70 f   SkyBox.obj
 0001:0001faa0       ?SkyTimerProc@@YGXPAUHWND__@@IIK@Z 10020aa0 f   SkyBox.obj
 0001:0001fb30       ?GetLineId@cSmoke@@QAEHK@Z 10020b30 f   Smoke.obj
 0001:0001fb80       ?Load@cSmoke@@QAEXXZ       10020b80 f   Smoke.obj
 0001:0001fd00       ?SetColorEffect@cSmoke@@SAXXZ 10020d00 f   Smoke.obj
 0001:0001fde0       ?SetItemEffect@cSmoke@@SAXXZ 10020de0 f   Smoke.obj
 0001:0001fe20       ??$_Fputc@D@std@@YA_NDPAU_iobuf@@@Z 10020e20 f i Version.obj
 0001:0001fe40       ??$_Immortalize_impl@V_Iostream_error_category@std@@@std@@YGHPAX0PAPAX@Z 10020e40 f i Version.obj
 0001:0001fe60       ??$_Istream_extract_into_buffer@DU?$char_traits@D@std@@@std@@YAAAV?$basic_istream@DU?$char_traits@D@std@@@0@AAV10@IPAD@Z 10020e60 f i Version.obj
 0001:00020080       ??$use_facet@V?$codecvt@DDU_Mbstatet@@@std@@@std@@YAABV?$codecvt@DDU_Mbstatet@@@0@ABVlocale@0@@Z 10021080 f i Version.obj
 0001:000201e0       ??$use_facet@V?$ctype@D@std@@@std@@YAABV?$ctype@D@0@ABVlocale@0@@Z 100211e0 f i Version.obj
 0001:00020360       ??0?$basic_ifstream@DU?$char_traits@D@std@@@std@@QAE@PBDHH@Z 10021360 f i Version.obj
 0001:000205a0       ??0?$basic_istream@DU?$char_traits@D@std@@@std@@QAE@PAV?$basic_streambuf@DU?$char_traits@D@std@@@1@_N@Z 100215a0 f i Version.obj
 0001:00020780       ??0_Locinfo@std@@QAE@PBD@Z 10021780 f i Version.obj
 0001:00020830       ??0_System_error@std@@IAE@Verror_code@1@ABV?$basic_string@DU?$char_traits@D@std@@V?$allocator@D@2@@1@@Z 10021830 f i Version.obj
 0001:00020a00       ??0_System_error@std@@QAE@ABV01@@Z 10021a00 f i Version.obj
 0001:00020a50       ??0bad_alloc@std@@QAE@ABV01@@Z 10021a50 f i Version.obj
 0001:00020a90       ??0bad_array_new_length@std@@QAE@ABV01@@Z 10021a90 f i Version.obj
 0001:00020ad0       ??0bad_array_new_length@std@@QAE@XZ 10021ad0 f i Version.obj
 0001:00020af0       ??0exception@std@@QAE@ABV01@@Z 10021af0 f i Version.obj
 0001:00020b20       ??0failure@ios_base@std@@QAE@ABV012@@Z 10021b20 f i Version.obj
 0001:00020b70       ??0failure@ios_base@std@@QAE@PBDABVerror_code@2@@Z 10021b70 f i Version.obj
 0001:00020c50       ??0runtime_error@std@@QAE@ABV01@@Z 10021c50 f i Version.obj
 0001:00020c90       ??0system_error@std@@QAE@ABV01@@Z 10021c90 f i Version.obj
 0001:00020ce0       ??1?$_Yarn@D@std@@QAE@XZ   10021ce0 f i Version.obj
 0001:00020ce0       ??1?$_Yarn@_W@std@@QAE@XZ  10021ce0 f i Version.obj
 0001:00020d00       ??1?$basic_filebuf@DU?$char_traits@D@std@@@std@@UAE@XZ 10021d00 f i Version.obj
 0001:00020e40       ??1?$basic_ios@DU?$char_traits@D@std@@@std@@UAE@XZ 10021e40 f i Version.obj
 0001:00020e90       ??1?$basic_istream@DU?$char_traits@D@std@@@std@@UAE@XZ 10021e90 f i Version.obj
 0001:00020eb0       ??1?$basic_string@DU?$char_traits@D@std@@V?$allocator@D@2@@std@@QAE@XZ 10021eb0 f i Version.obj
 0001:00020f00       ??1?$unique_ptr@V_Facet_base@std@@U?$default_delete@V_Facet_base@std@@@2@@std@@QAE@XZ 10021f00 f i Version.obj
 0001:00020f10       ??1_Locinfo@std@@QAE@XZ    10021f10 f i Version.obj
 0001:00020fe0       ??1_Sentry_base@?$basic_istream@DU?$char_traits@D@std@@@std@@QAE@XZ 10021fe0 f i Version.obj
 0001:00020fe0       ??1_Sentry_base@?$basic_ostream@DU?$char_traits@D@std@@@std@@QAE@XZ 10021fe0 f i Version.obj
 0001:00021030       ??1bad_exception@std@@UAE@XZ 10022030 f i libvcruntime:frame.obj
 0001:00021030       ??1length_error@std@@UAE@XZ 10022030 f i libcpmt:xthrow.obj
 0001:00021030       ??1failure@ios_base@std@@UAE@XZ 10022030 f i Version.obj
 0001:00021030       ??1runtime_error@std@@UAE@XZ 10022030 f i libcpmt:xthrow.obj
 0001:00021030       ??1bad_array_new_length@std@@UAE@XZ 10022030 f i Version.obj
 0001:00021050       ??1locale@std@@QAE@XZ      10022050 f i Version.obj
 0001:00021070       ??1sentry@?$basic_istream@DU?$char_traits@D@std@@@std@@QAE@XZ 10022070 f i Version.obj
 0001:000210c0       ??1sentry@?$basic_ostream@DU?$char_traits@D@std@@@std@@QAE@XZ 100220c0 f i Version.obj
 0001:00021120       ??_D?$basic_ifstream@DU?$char_traits@D@std@@@std@@QAEXXZ 10022120 f i Version.obj
 0001:000211a9       ??_E?$basic_ifstream@DU?$char_traits@D@std@@@std@@$4PPPPPPPM@A@AEPAXI@Z 100221a9 f i Version.obj
 0001:000211b1       ??_E?$basic_istream@DU?$char_traits@D@std@@@std@@$4PPPPPPPM@A@AEPAXI@Z 100221b1 f i Version.obj
 0001:000211c0       ??_G?$basic_filebuf@DU?$char_traits@D@std@@@std@@UAEPAXI@Z 100221c0 f i Version.obj
 0001:000211c0       ??_E?$basic_filebuf@DU?$char_traits@D@std@@@std@@UAEPAXI@Z 100221c0 f i Version.obj
 0001:000211f0       ??_E?$basic_ifstream@DU?$char_traits@D@std@@@std@@UAEPAXI@Z 100221f0 f i Version.obj
 0001:000211f0       ??_G?$basic_ifstream@DU?$char_traits@D@std@@@std@@UAEPAXI@Z 100221f0 f i Version.obj
 0001:00021220       ??_G?$basic_ios@DU?$char_traits@D@std@@@std@@UAEPAXI@Z 10022220 f i Version.obj
 0001:00021220       ??_E?$basic_ios@DU?$char_traits@D@std@@@std@@UAEPAXI@Z 10022220 f i Version.obj
 0001:00021280       ??_G?$basic_istream@DU?$char_traits@D@std@@@std@@UAEPAXI@Z 10022280 f i Version.obj
 0001:00021280       ??_E?$basic_istream@DU?$char_traits@D@std@@@std@@UAEPAXI@Z 10022280 f i Version.obj
 0001:00021300       ??_G?$basic_streambuf@DU?$char_traits@D@std@@@std@@UAEPAXI@Z 10022300 f i Version.obj
 0001:00021300       ??_E?$basic_streambuf@DU?$char_traits@D@std@@@std@@UAEPAXI@Z 10022300 f i Version.obj
 0001:00021350       ??_E?$codecvt@DDU_Mbstatet@@@std@@MAEPAXI@Z 10022350 f i Version.obj
 0001:00021350       ??_G?$codecvt@DDU_Mbstatet@@@std@@MAEPAXI@Z 10022350 f i Version.obj
 0001:00021380       ??_E?$ctype@D@std@@MAEPAXI@Z 10022380 f i Version.obj
 0001:00021380       ??_G?$ctype@D@std@@MAEPAXI@Z 10022380 f i Version.obj
 0001:000213e0       ??_G_Facet_base@std@@UAEPAXI@Z 100223e0 f i Version.obj
 0001:000213e0       ??_E_Facet_base@std@@UAEPAXI@Z 100223e0 f i Version.obj
 0001:00021410       ??_E_Iostream_error_category@std@@UAEPAXI@Z 10022410 f i Version.obj
 0001:00021410       ??_G_Iostream_error_category@std@@UAEPAXI@Z 10022410 f i Version.obj
 0001:00021430       ??_Gfailure@ios_base@std@@UAEPAXI@Z 10022430 f i Version.obj
 0001:00021430       ??_Esystem_error@std@@UAEPAXI@Z 10022430 f i Version.obj
 0001:00021430       ??_G_System_error@std@@UAEPAXI@Z 10022430 f i Version.obj
 0001:00021430       ??_E_System_error@std@@UAEPAXI@Z 10022430 f i Version.obj
 0001:00021430       ??_Efailure@ios_base@std@@UAEPAXI@Z 10022430 f i Version.obj
 0001:00021430       ??_Gsystem_error@std@@UAEPAXI@Z 10022430 f i Version.obj
 0001:00021460       ??_Ebad_alloc@std@@UAEPAXI@Z 10022460 f i Version.obj
 0001:00021460       ??_Eruntime_error@std@@UAEPAXI@Z 10022460 f i Version.obj
 0001:00021460       ??_Eexception@std@@UAEPAXI@Z 10022460 f i Version.obj
 0001:00021460       ??_Gexception@std@@UAEPAXI@Z 10022460 f i Version.obj
 0001:00021460       ??_Gbad_array_new_length@std@@UAEPAXI@Z 10022460 f i Version.obj
 0001:00021460       ??_Gruntime_error@std@@UAEPAXI@Z 10022460 f i Version.obj
 0001:00021460       ??_Gbad_alloc@std@@UAEPAXI@Z 10022460 f i Version.obj
 0001:00021460       ??_Ebad_array_new_length@std@@UAEPAXI@Z 10022460 f i Version.obj
 0001:00021490       ??_Eios_base@std@@UAEPAXI@Z 10022490 f i Version.obj
 0001:00021490       ??_Gios_base@std@@UAEPAXI@Z 10022490 f i Version.obj
 0001:000214f0       ?_Decref@facet@locale@std@@UAEPAV_Facet_base@3@XZ 100224f0 f i Version.obj
 0001:00021510       ?_Endwrite@?$basic_filebuf@DU?$char_traits@D@std@@@std@@IAE_NXZ 10022510 f i Version.obj
 0001:000215e0       ?_Gnavail@?$basic_streambuf@DU?$char_traits@D@std@@@std@@IBE_JXZ 100225e0 f i Version.obj
 0001:00021600       ?_Incref@facet@locale@std@@UAEXXZ 10022600 f i Version.obj
 0001:00021610       ?_Init@?$basic_filebuf@DU?$char_traits@D@std@@@std@@IAEXPAU_iobuf@@W4_Initfl@12@@Z 10022610 f i Version.obj
 0001:00021700       ?_Initcvt@?$basic_filebuf@DU?$char_traits@D@std@@@std@@IAEXABV?$codecvt@DDU_Mbstatet@@@2@@Z 10022700 f i Version.obj
 0001:00021790       ?_Ipfx@?$basic_istream@DU?$char_traits@D@std@@@std@@QAE_N_N@Z 10022790 f i Version.obj
 0001:000219c0       ?_Lock@?$basic_filebuf@DU?$char_traits@D@std@@@std@@UAEXXZ 100229c0 f i Version.obj
 0001:000219d0       ?_Osfx@?$basic_ostream@DU?$char_traits@D@std@@@std@@QAEXXZ 100229d0 f i Version.obj
 0001:00021aa0       ?_Pnavail@?$basic_streambuf@DU?$char_traits@D@std@@@std@@IBE_JXZ 10022aa0 f i Version.obj
 0001:00021ac0       ?_Reset_back@?$basic_filebuf@DU?$char_traits@D@std@@@std@@AAEXXZ 10022ac0 f i Version.obj
 0001:00021af0       ?_Throw_bad_array_new_length@std@@YAXXZ 10022af0 f i Version.obj
 0001:00021b10       ?_Unlock@?$basic_filebuf@DU?$char_traits@D@std@@@std@@UAEXXZ 10022b10 f i Version.obj
 0001:00021b20       ?_Xlen@?$basic_string@DU?$char_traits@D@std@@V?$allocator@D@2@@std@@CAXXZ 10022b20 f i Version.obj
 0001:00021b30       ?allocate@?$allocator@D@std@@QAEPADI@Z 10022b30 f i Version.obj
 0001:00021b90       ?append@?$basic_string@DU?$char_traits@D@std@@V?$allocator@D@2@@std@@QAEAAV12@QBDI@Z 10022b90 f i Version.obj
 0001:00021cf0       ?assign@?$basic_string@DU?$char_traits@D@std@@V?$allocator@D@2@@std@@QAEAAV12@QBDI@Z 10022cf0 f i Version.obj
 0001:00021de0       ?clear@ios_base@std@@QAEXH_N@Z 10022de0 f i Version.obj
 0001:00021e60       ?default_error_condition@error_category@std@@UBE?AVerror_condition@2@H@Z 10022e60 f i Version.obj
 0001:00021e80       ?do_always_noconv@?$codecvt@DDU_Mbstatet@@@std@@MBE_NXZ 10022e80 f i Version.obj
 0001:00021e80       ___acrt_uninitialize_command_line 10022e80 f i libucrt:argv_data.obj
 0001:00021e90       ?do_encoding@codecvt_base@std@@MBEHXZ 10022e90 f i Version.obj
 0001:00021e90       ?do_max_length@codecvt_base@std@@MBEHXZ 10022e90 f i Version.obj
 0001:00021ea0       ?do_out@?$codecvt@DDU_Mbstatet@@@std@@MBEHAAU_Mbstatet@@PBD1AAPBDPAD3AAPAD@Z 10022ea0 f i Version.obj
 0001:00021ea0       ?do_in@?$codecvt@DDU_Mbstatet@@@std@@MBEHAAU_Mbstatet@@PBD1AAPBDPAD3AAPAD@Z 10022ea0 f i Version.obj
 0001:00021ec0       ?do_length@?$codecvt@DDU_Mbstatet@@@std@@MBEHAAU_Mbstatet@@PBD1I@Z 10022ec0 f i Version.obj
 0001:00021ee0       ?do_narrow@?$ctype@D@std@@MBEDDD@Z 10022ee0 f i Version.obj
 0001:00021ef0       ?do_narrow@?$ctype@D@std@@MBEPBDPBD0DPAD@Z 10022ef0 f i Version.obj
 0001:00021f10       ?do_tolower@?$ctype@D@std@@MBEDD@Z 10022f10 f i Version.obj
 0001:00021f30       ?do_tolower@?$ctype@D@std@@MBEPBDPADPBD@Z 10022f30 f i Version.obj
 0001:00021f60       ?do_toupper@?$ctype@D@std@@MBEDD@Z 10022f60 f i Version.obj
 0001:00021f80       ?do_toupper@?$ctype@D@std@@MBEPBDPADPBD@Z 10022f80 f i Version.obj
 0001:00021fb0       ?do_unshift@?$codecvt@DDU_Mbstatet@@@std@@MBEHAAU_Mbstatet@@PAD1AAPAD@Z 10022fb0 f i Version.obj
 0001:00021fd0       ?do_widen@?$ctype@D@std@@MBEDD@Z 10022fd0 f i Version.obj
 0001:00021fe0       ?do_widen@?$ctype@D@std@@MBEPBDPBD0PAD@Z 10022fe0 f i Version.obj
 0001:00022000       ?equivalent@error_category@std@@UBE_NABVerror_code@2@H@Z 10023000 f i Version.obj
 0001:00022030       ?equivalent@error_category@std@@UBE_NHABVerror_condition@2@@Z 10023030 f i Version.obj
 0001:00022070       ?flush@?$basic_ostream@DU?$char_traits@D@std@@@std@@QAEAAV12@XZ 10023070 f i Version.obj
 0001:000221b0       ?getVersion@Version@@QAEHPAE@Z 100231b0 f   Version.obj
 0001:00022270       ?imbue@?$basic_filebuf@DU?$char_traits@D@std@@@std@@MAEXABVlocale@2@@Z 10023270 f i Version.obj
 0001:00022290       ?OnButtonClicked@CFileDialog@@MAEXK@Z 10023290 f i nafxcw:dlgfile.obj
 0001:00022290       ?OnShow@CMFCToolBarButton@@UAEXH@Z 10023290 f i nafxcw:afxcolorbar.obj
 0001:00022290       ?DoDataExchange@CWnd@@MAEXPAVCDataExchange@@@Z 10023290 f i nafxcw:wincore.obj
 0001:00022290       ?Serialize@CObject@@UAEXAAVCArchive@@@Z 10023290 f i nafxcw:except.obj
 0001:00022290       ?OnAfterChangeTool@CMFCToolBarsCustomizeDialog@@MAEXPAVCUserTool@@@Z 10023290 f i nafxcw:afxtoolbarscustomizedialog.obj
 0001:00022290       ?OnShow@CMFCRibbonBaseElement@@UAEXH@Z 10023290 f i nafxcw:afxbaseribbonelement.obj
 0001:00022290       ?DrawItem@CHeaderCtrl@@UAEXPAUtagDRAWITEMSTRUCT@@@Z 10023290 f i nafxcw:winctrl2.obj
 0001:00022290       ?DrawItem@CButton@@UAEXPAUtagDRAWITEMSTRUCT@@@Z 10023290 f i nafxcw:winctrl1.obj
 0001:00022290       ?OnRTLChanged@CMFCRibbonBaseElement@@UAEXH@Z 10023290 f i nafxcw:afxbaseribbonelement.obj
 0001:00022290       ?DrawItem@CListCtrl@@UAEXPAUtagDRAWITEMSTRUCT@@@Z 10023290 f i nafxcw:winctrl2.obj
 0001:00022290       ?AdjustTabTextRect@CMFCVisualManager@@UAEXAAVCRect@@@Z 10023290 f i nafxcw:afxvisualmanager.obj
 0001:00022290       ?MeasureItem@CCheckListBox@@UAEXPAUtagMEASUREITEMSTRUCT@@@Z 10023290 f i nafxcw:winctrl3.obj
 0001:00022290       ?OnScroll@CMFCOutlookBar@@UAEXH@Z 10023290 f i nafxcw:afxoutlookbar.obj
 0001:00022290       ?ConvertToTabbedDocument@CPane@@UAEXH@Z 10023290 f i nafxcw:afxpane.obj
 0001:00022290       ?OnDefaultMenuLoaded@CMFCMenuBar@@UAEXPAUHMENU__@@@Z 10023290 f i nafxcw:afxmenubar.obj
 0001:00022290       ?Serialize@CMFCToolBarSystemMenuButton@@UAEXAAVCArchive@@@Z 10023290 f i nafxcw:afxtoolbarsystemmenubutton.obj
 0001:00022290       ?SetCheck@CMFCTasksPaneToolBarCmdUI@@UAEXH@Z 10023290 f i nafxcw:afxtaskspane.obj
 0001:00022290       ?OnControlActivating@CFileDialog@@MAEXK@Z 10023290 f i nafxcw:dlgfile.obj
 0001:00022290       ?OnAfterChangeParent@CBasePane@@UAEXPAVCWnd@@@Z 10023290 f i nafxcw:afxbasepane.obj
 0001:00022290       ?OnAfterRenameItem@CVSListBoxBase@@UAEXH@Z 10023290 f i nafxcw:afxvslistbox.obj
 0001:00022290       ?DrawItem@CStatic@@UAEXPAUtagDRAWITEMSTRUCT@@@Z 10023290 f i nafxcw:winctrl1.obj
 0001:00022290       ?DoPaint@CDummyDockablePane@@EAEXPAVCDC@@@Z 10023290 f i nafxcw:afxdragframeimpl.obj
 0001:00022290       ?OnEnable@CMFCRibbonBaseElement@@MAEXH@Z 10023290 f i nafxcw:afxbaseribbonelement.obj
 0001:00022290       ?MeasureItem@CComboBox@@UAEXPAUtagMEASUREITEMSTRUCT@@@Z 10023290 f i nafxcw:winctrl1.obj
 0001:00022290       ?OnHighlight@CMFCRibbonBaseElement@@MAEXH@Z 10023290 f i nafxcw:afxbaseribbonelement.obj
 0001:00022290       ?OnActivateTab@CBaseTabbedPane@@MAEXH@Z 10023290 f i nafxcw:afxoutlookbar.obj
 0001:00022290       ?Show@CSmartDockingGroupGuide@@UAEXH@Z 10023290 f i nafxcw:afxsmartdockingguide.obj
 0001:00022290       ?SetCheck@CTestCmdUI@@UAEXH@Z 10023290 f i nafxcw:wincore.obj
 0001:00022290       ?OnFillBackground@CMFCToolBar@@UAEXPAVCDC@@@Z 10023290 f i nafxcw:afxpropertysheet.obj
 0001:00022290       ?DrawItem@CComboBox@@UAEXPAUtagDRAWITEMSTRUCT@@@Z 10023290 f i nafxcw:winctrl1.obj
 0001:00022290       ?SetText@CTestCmdUI@@UAEXPBD@Z 10023290 f i nafxcw:wincore.obj
 0001:00022290       ?OnAfterMoveItemUp@CVSListBoxBase@@UAEXH@Z 10023290 f i nafxcw:afxvslistbox.obj
 0001:00022290       ?OnDblClk@CMFCToolBarButton@@UAEXPAVCWnd@@@Z 10023290 f i nafxcw:afxcolorbar.obj
 0001:00022290       ?SetRadio@CMFCTasksPaneToolBarCmdUI@@UAEXH@Z 10023290 f i nafxcw:afxtaskspane.obj
 0001:00022290       ?OnResizePane@CDockingPanesRow@@UAEXPAVCBasePane@@@Z 10023290 f i nafxcw:afxdockingpanesrow.obj
 0001:00022290       ?DrawItem@CListBox@@UAEXPAUtagDRAWITEMSTRUCT@@@Z 10023290 f i nafxcw:winctrl1.obj
 0001:00022290       ?OnPressButtons@CDockablePane@@MAEXI@Z 10023290 f i nafxcw:afxoutlookbar.obj
 0001:00022290       ?SetActive@CMFCRibbonPanelMenu@@UAEXH@Z 10023290 f i nafxcw:afxribbonminitoolbar.obj
 0001:00022290       ?OnRemoveFromMiniFrame@CBasePane@@UAEXPAVCPaneFrameWnd@@@Z 10023290 f i nafxcw:afxpropertysheet.obj
 0001:00022290       ?Serialize@CMFCToolBarMenuButtonsButton@@UAEXAAVCArchive@@@Z 10023290 f i nafxcw:afxtoolbarmenubuttonsbutton.obj
 0001:00022290       ?AdjustSizeImmediate@CMFCPopupMenuBar@@UAEXH@Z 10023290 f i nafxcw:afxcolorbar.obj
 0001:00022290       ?DoPaint@CDockBar@@UAEXPAVCDC@@@Z 10023290 f i nafxcw:bardock.obj
 0001:00022290       ?EnableGripper@CBasePane@@UAEXH@Z 10023290 f i nafxcw:afxpropertysheet.obj
 0001:00022290       ?OnCalcTextSize@CMFCRibbonBaseElement@@UAEXPAVCDC@@@Z 10023290 f i nafxcw:afxbaseribbonelement.obj
 0001:00022290       ?OnBeforeChangeTool@CMFCToolBarsCustomizeDialog@@MAEXPAVCUserTool@@@Z 10023290 f i nafxcw:afxtoolbarscustomizedialog.obj
 0001:00022290       ?OnSetFont@CDialog@@UAEXPAVCFont@@@Z 10023290 f i nafxcw:dlgcore.obj
 0001:00022290       ?OnChooseItem@CMFCPopupMenu@@MAEXI@Z 10023290 f i nafxcw:afxcolorbutton.obj
 0001:00022290       ?OnDrawBorder@CMFCPropertyGridCtrl@@MAEXPAVCDC@@@Z 10023290 f i nafxcw:afxpropertygridctrl.obj
 0001:00022290       ?OnSetFocus@CMFCRibbonBaseElement@@MAEXH@Z 10023290 f i nafxcw:afxbaseribbonelement.obj
 0001:00022290       ?OnShowEditbox@CMFCToolBarEditBoxButton@@MAEXH@Z 10023290 f i nafxcw:afxtoolbareditboxbutton.obj
 0001:00022290       ?OnCheck@CMFCRibbonBaseElement@@MAEXH@Z 10023290 f i nafxcw:afxbaseribbonelement.obj
 0001:00022290       ?OnAfterAnimation@CMFCOutlookBar@@UAEXH@Z 10023290 f i nafxcw:afxoutlookbar.obj
 0001:00022290       ?DrawItem@CMenu@@UAEXPAUtagDRAWITEMSTRUCT@@@Z 10023290 f i nafxcw:winmenu.obj
 0001:00022290       ?OnChangeHot@CMFCPopupMenu@@MAEXH@Z 10023290 f i nafxcw:afxcolorbutton.obj
 0001:00022290       ?OnMovePaneDivider@CBasePane@@UAEXPAVCPaneDivider@@@Z 10023290 f i nafxcw:afxpropertysheet.obj
 0001:00022290       ?OnAfterAddItem@CVSListBoxBase@@UAEXH@Z 10023290 f i nafxcw:afxvslistbox.obj
 0001:00022290       ?DeleteItem@CListBox@@UAEXPAUtagDELETEITEMSTRUCT@@@Z 10023290 f i nafxcw:winctrl1.obj
 0001:00022290       ?SetRadio@CTestCmdUI@@UAEXH@Z 10023290 f i nafxcw:wincore.obj
 0001:00022290       ?DeleteItem@CComboBox@@UAEXPAUtagDELETEITEMSTRUCT@@@Z 10023290 f i nafxcw:winctrl1.obj
 0001:00022290       ?OnSize@CMFCToolBarButton@@UAEXH@Z 10023290 f i nafxcw:afxcolorbar.obj
 0001:00022290       ?OnAfterMoveItemDown@CVSListBoxBase@@UAEXH@Z 10023290 f i nafxcw:afxvslistbox.obj
 0001:00022290       ?AccNotifyObjectFocusEvent@CBasePane@@UAEXH@Z 10023290 f i nafxcw:afxbasepane.obj
 0001:00022290       ?OnAfterStretch@CPane@@MAEXH@Z 10023290 f i nafxcw:afxpane.obj
 0001:00022290       ?MeasureItem@CMenu@@UAEXPAUtagMEASUREITEMSTRUCT@@@Z 10023290 f i nafxcw:winmenu.obj
 0001:00022290       ?imbue@?$basic_streambuf@DU?$char_traits@D@std@@@std@@MAEXABVlocale@2@@Z 10023290 f i Version.obj
 0001:00022290       ?MeasureItem@CListBox@@UAEXPAUtagMEASUREITEMSTRUCT@@@Z 10023290 f i nafxcw:winctrl1.obj
 0001:00022290       ?OnBeforeStretch@CPane@@MAEXAAH@Z 10023290 f i nafxcw:afxpropertysheet.obj
 0001:00022290       ?StoreRecentDockSiteInfo@CPaneFrameWnd@@UAEXPAVCPane@@@Z 10023290 f i nafxcw:afxpaneframewnd.obj
 0001:00022290       ?OnAfterChangeParent@CMFCBaseToolBar@@UAEXPAVCWnd@@@Z 10023290 f i nafxcw:afxbasetoolbar.obj
 0001:00022290       ?UndockPane@CBasePane@@UAEXH@Z 10023290 f i nafxcw:afxbasepane.obj
 0001:000222a0       ?make_error_code@std@@YA?AVerror_code@1@W4io_errc@1@@Z 100232a0 f i Version.obj
 0001:000222e0       ?message@_Iostream_error_category@std@@UBE?AV?$basic_string@DU?$char_traits@D@std@@V?$allocator@D@2@@2@H@Z 100232e0 f i Version.obj
 0001:00022380       ?name@_Iostream_error_category@std@@UBEPBDXZ 10023380 f i Version.obj
 0001:00022390       ?overflow@?$basic_filebuf@DU?$char_traits@D@std@@@std@@MAEHH@Z 10023390 f i Version.obj
 0001:00022500       ?pbackfail@?$basic_streambuf@DU?$char_traits@D@std@@@std@@MAEHH@Z 10023500 f i Version.obj
 0001:00022500       ?overflow@?$basic_streambuf@DU?$char_traits@D@std@@@std@@MAEHH@Z 10023500 f i Version.obj
 0001:00022500       ?OnGetImage@CVSListBoxBase@@UAEHPAUtagLVITEMA@@@Z 10023500 f i nafxcw:afxvslistbox.obj
 0001:00022510       ?pbackfail@?$basic_filebuf@DU?$char_traits@D@std@@@std@@MAEHH@Z 10023510 f i Version.obj
 0001:000225c0       ?seekoff@?$basic_filebuf@DU?$char_traits@D@std@@@std@@MAE?AV?$fpos@U_Mbstatet@@@2@_JHH@Z 100235c0 f i Version.obj
 0001:000226a0       ?seekoff@?$basic_streambuf@DU?$char_traits@D@std@@@std@@MAE?AV?$fpos@U_Mbstatet@@@2@_JHH@Z 100236a0 f i Version.obj
 0001:000226d0       ?seekpos@?$basic_filebuf@DU?$char_traits@D@std@@@std@@MAE?AV?$fpos@U_Mbstatet@@@2@V32@H@Z 100236d0 f i Version.obj
 0001:000227a0       ?seekpos@?$basic_streambuf@DU?$char_traits@D@std@@@std@@MAE?AV?$fpos@U_Mbstatet@@@2@V32@H@Z 100237a0 f i Version.obj
 0001:000227d0       ?setbuf@?$basic_filebuf@DU?$char_traits@D@std@@@std@@MAEPAV?$basic_streambuf@DU?$char_traits@D@std@@@2@PAD_J@Z 100237d0 f i Version.obj
 0001:00022830       ?setbuf@?$basic_streambuf@DU?$char_traits@D@std@@@std@@MAEPAV12@PAD_J@Z 10023830 f i Version.obj
 0001:00022840       ?setstate@?$basic_ios@DU?$char_traits@D@std@@@std@@QAEXH_N@Z 10023840 f i Version.obj
 0001:00022870       ?showmanyc@?$basic_streambuf@DU?$char_traits@D@std@@@std@@MAE_JXZ 10023870 f i Version.obj
 0001:00022880       ?snextc@?$basic_streambuf@DU?$char_traits@D@std@@@std@@QAEHXZ 10023880 f i Version.obj
 0001:000228f0       ?sync@?$basic_filebuf@DU?$char_traits@D@std@@@std@@MAEHXZ 100238f0 f i Version.obj
 0001:00022920       ?IsShowTooltipOnBottom@CMFCRibbonCaptionButton@@MBEHXZ 10023920 f i nafxcw:afxribbonbar.obj
 0001:00022920       ?AllowSelectDisabled@CMFCToolBar@@MBEHXZ 10023920 f i nafxcw:afxpropertysheet.obj
 0001:00022920       ?DoesAllowDynInsertBefore@CDockSite@@UBEHXZ 10023920 f i nafxcw:afxdocksite.obj
 0001:00022920       ?HasMenu@CMFCRibbonBaseElement@@UBEHXZ 10023920 f i nafxcw:afxbaseribbonelement.obj
 0001:00022920       ?IsGalleryIcon@CMFCRibbonBaseElement@@UBEHXZ 10023920 f i nafxcw:afxbaseribbonelement.obj
 0001:00022920       ?OnColorOK@CColorDialog@@MAEHXZ 10023920 f i nafxcw:dlgclr.obj
 0001:00022920       ?IsLayeredRibbonKeyTip@CMFCVisualManager@@UBEHXZ 10023920 f i nafxcw:afxvisualmanager.obj
 0001:00022920       ?OnClickMenuItem@CMFCToolBarMenuButton@@UAEHXZ 10023920 f i nafxcw:afxtoolbarmenubutton.obj
 0001:00022920       ?AllowShowOnPaneMenu@CMFCPopupMenuBar@@MBEHXZ 10023920 f i nafxcw:afxcolorbar.obj
 0001:00022920       ?GetDockingPaneCaptionExtraHeight@CMFCVisualManager@@UBEHXZ 10023920 f i nafxcw:afxvisualmanager.obj
 0001:00022920       ?IsAlignByColumn@CMFCRibbonButtonsGroup@@MBEHXZ 10023920 f i nafxcw:afxribbonquickaccesstoolbar.obj
 0001:00022920       ?IsTabbedMDIChild@CMDIChildWnd@@UAEHXZ 10023920 f i nafxcw:winmdi.obj
 0001:00022920       ?IsButtonExtraSizeAvailable@CMFCPopupMenuBar@@MBEHXZ 10023920 f i nafxcw:afxcolorbar.obj
 0001:00022920       ?IsItemMenuLook@CMFCRibbonGallery@@MBEHXZ 10023920 f i nafxcw:afxribboncolorbutton.obj
 0001:00022920       ?IsRibbonPanel@CMFCPopupMenuBar@@UBEHXZ 10023920 f i nafxcw:afxcolorbar.obj
 0001:00022920       ?IsHighlightOneNoteTabs@CMFCVisualManager@@UBEHXZ 10023920 f i nafxcw:afxvisualmanager.obj
 0001:00022920       ?IsApplicationButton@CMFCRibbonButton@@UBEHXZ 10023920 f i nafxcw:afxribbonbutton.obj
 0001:00022920       ?sync@?$basic_streambuf@DU?$char_traits@D@std@@@std@@MAEHXZ 10023920 f i Version.obj
 0001:00022920       ?GetGroupOffset@CMFCRibbonGallery@@UBEHXZ 10023920 f i nafxcw:afxribbonpalettegallery.obj
 0001:00022920       ?GetParentWnd@CMFCBaseAccessibleObject@@UBEPAVCWnd@@XZ 10023920 f i nafxcw:afxbaseribbonelement.obj
 0001:00022920       ?AllowShowOnPaneMenu@CMFCAutoHideBar@@UBEHXZ 10023920 f i nafxcw:afxautohidebar.obj
 0001:00022920       ?HasCompactMode@CMFCRibbonBaseElement@@UBEHXZ 10023920 f i nafxcw:afxbaseribbonelement.obj
 0001:00022920       ?IsButtonExtraSizeAvailable@CMFCImageEditorPaletteBar@@EBEHXZ 10023920 f i nafxcw:afximageeditordialog.obj
 0001:00022920       ?GetRibbonQuickAccessToolBarRightMargin@CMFCVisualManager@@UAEHXZ 10023920 f i nafxcw:afxvisualmanager.obj
 0001:00022920       ?AllowShowOnList@CMFCOutlookBarPane@@MBEHXZ 10023920 f i nafxcw:afxpropertysheet.obj
 0001:00022920       ?IsInFloatingMultiPaneFrameWnd@CPane@@UBEHXZ 10023920 f i nafxcw:afxpropertysheet.obj
 0001:00022920       ?AllowShowOnPaneMenu@CMFCDropDownToolBar@@UBEHXZ 10023920 f i nafxcw:afxdropdowntoolbar.obj
 0001:00022920       ?IsAlwaysClose@CMFCPopupMenu@@UBEHXZ 10023920 f i nafxcw:afxcolorbutton.obj
 0001:00022920       ?HasFocus@CMFCRibbonBaseElement@@UBEHXZ 10023920 f i nafxcw:afxbaseribbonelement.obj
 0001:00022920       ?AllowShowOnPaneMenu@CMFCOutlookBarPane@@MBEHXZ 10023920 f i nafxcw:afxpropertysheet.obj
 0001:00022920       ?AllowShowOnPaneMenu@CMFCMenuBar@@UBEHXZ 10023920 f i nafxcw:afxmenubar.obj
 0001:00022920       ?HasOverlappedAutoHideButtons@CMFCVisualManager@@UBEHXZ 10023920 f i nafxcw:afxvisualmanager.obj
 0001:00022920       ?DoesAllowDynInsertBefore@CMFCOutlookBar@@UBEHXZ 10023920 f i nafxcw:afxoutlookbar.obj
 0001:00022920       ?IsShowTooltipOnBottom@CMFCRibbonTab@@UBEHXZ 10023920 f i nafxcw:afxribboncategory.obj
 0001:00022920       ?IsEditable@CHelpComboBoxButton@@UBEHXZ 10023920 f i nafxcw:afxmenubar.obj
 0001:00022920       ?IsReadOnly@CMDIChildWndEx@@UAEHXZ 10023920 f i nafxcw:afxmdichildwndex.obj
 0001:00022920       ?IsOwnerDrawMenuCheck@CMFCVisualManager@@UAEHXZ 10023920 f i nafxcw:afxvisualmanager.obj
 0001:00022920       ?HaveHotBorder@CMFCToolBarMenuButton@@UBEHXZ 10023920 f i nafxcw:afxtoolbarmenubutton.obj
 0001:00022920       ?IsOneNoteStyle@CMFCBaseTabCtrl@@UBEHXZ 10023920 f i nafxcw:afxbasetabctrl.obj
 0001:00022920       ?AllowShowOnPaneMenu@CMFCTasksPaneToolBar@@UBEHXZ 10023920 f i nafxcw:afxtaskspane.obj
 0001:00022920       ?AllowShowOnPaneMenu@CMFCPrintPreviewToolBar@@MBEHXZ 10023920 f i nafxcw:afxpreviewviewex.obj
 0001:00022920       ?HaveHotBorder@CMFCToolBarMenuButtonsButton@@UBEHXZ 10023920 f i nafxcw:afxtoolbarmenubuttonsbutton.obj
 0001:00022920       ?OnWizardNext@CPropertyPage@@UAEJXZ 10023920 f i nafxcw:dlgprop.obj
 0001:00022920       ?IsDefaultPanelButton@CMFCRibbonButton@@UBEHXZ 10023920 f i nafxcw:afxribbonbutton.obj
 0001:00022920       ?OnClickUp@CMFCToolBarButton@@UAEHXZ 10023920 f i nafxcw:afxcolorbar.obj
 0001:00022920       ?IsDroppedDown@CMFCToolBarButton@@UBEHXZ 10023920 f i nafxcw:afxcolorbar.obj
 0001:00022920       ?CanBeStored@CMFCToolBarSystemMenuButton@@UBEHXZ 10023920 f i nafxcw:afxtoolbarsystemmenubutton.obj
 0001:00022920       ?IsTabStop@CMFCRibbonLabel@@MBEHXZ 10023920 f i nafxcw:afxribbonlabel.obj
 0001:00022920       ?AllowAltCustomization@CMFCPopupMenuBar@@MBEHXZ 10023920 f i nafxcw:afxcolorbar.obj
 0001:00022920       ?CanBeStretchedHorizontally@CMFCRibbonBaseElement@@UAEHXZ 10023920 f i nafxcw:afxbaseribbonelement.obj
 0001:00022920       ?IsButtonExtraSizeAvailable@CMFCTasksPaneToolBar@@UBEHXZ 10023920 f i nafxcw:afxtaskspane.obj
 0001:00022920       ?IsButtonExtraSizeAvailable@CMFCMenuBar@@UBEHXZ 10023920 f i nafxcw:afxmenubar.obj
 0001:00022920       ?IsFrameWnd@CWnd@@UBEHXZ   10023920 f i nafxcw:wincore.obj
 0001:00022920       ?OnWizardBack@CPropertyPage@@UAEJXZ 10023920 f i nafxcw:dlgprop.obj
 0001:00022920       ?HasLargeMode@CMFCRibbonBaseElement@@UBEHXZ 10023920 f i nafxcw:afxbaseribbonelement.obj
 0001:00022920       ?IsOffsetPressedButton@CMFCVisualManagerOffice2003@@UBEHXZ 10023920 f i nafxcw:afxvisualmanageroffice2007.obj
 0001:00022920       ?IsEmptyMenuAllowed@CMFCToolBarMenuButton@@UBEHXZ 10023920 f i nafxcw:afxtoolbarmenubutton.obj
 0001:00022920       ?IsDockingTabHasBorder@CMFCVisualManagerOffice2003@@UAEHXZ 10023920 f i nafxcw:afxvisualmanageroffice2007.obj
 0001:00022920       ?AlwaysHighlight3DTabs@CMFCVisualManager@@UBEHXZ 10023920 f i nafxcw:afxvisualmanager.obj
 0001:00022920       ?AlwaysSaveSelection@CMFCToolBar@@MBEHXZ 10023920 f i nafxcw:afxpropertysheet.obj
 0001:00022920       ?AlwaysSaveSelection@CMFCPopupMenuBar@@MBEHXZ 10023920 f i nafxcw:afxcolorbar.obj
 0001:00022920       ?IsEditable@CMFCCustomizeButton@@UBEHXZ 10023920 f i nafxcw:afxcustomizebutton.obj
 0001:00022920       ?AllowChangeTextLabels@CMFCColorBar@@MBEHXZ 10023920 f i nafxcw:afxcolorbar.obj
 0001:00022920       ?GetTypeLibCache@CCmdTarget@@UAEPAVCTypeLibCache@@XZ 10023920 f i nafxcw:cmdtarg.obj
 0001:00022920       ?IsRibbonPanelInRegularMode@CMFCPopupMenuBar@@UBEHXZ 10023920 f i nafxcw:afxcolorbar.obj
 0001:00022920       ?IsTabStop@CMFCRibbonSeparator@@MBEHXZ 10023920 f i nafxcw:afxbaseribbonelement.obj
 0001:00022920       ?IsOwnerDrawCaption@CMFCVisualManager@@UAEHXZ 10023920 f i nafxcw:afxvisualmanager.obj
 0001:00022920       ?GetPopupMenuGap@CMFCVisualManagerOfficeXP@@MBEHXZ 10023920 f i nafxcw:afxvisualmanageroffice2007.obj
 0001:00022920       ?AllowShowOnList@CMFCPopupMenuBar@@MBEHXZ 10023920 f i nafxcw:afxpopupmenubar.obj
 0001:00022920       ?IsFlatTab@CMFCBaseTabCtrl@@UBEHXZ 10023920 f i nafxcw:afxbasetabctrl.obj
 0001:00022920       ?IsRibbonMiniToolBar@CMFCPopupMenu@@MBEHXZ 10023920 f i nafxcw:afxcolorbutton.obj
 0001:00022920       ?IsAccessibilityCompatible@CDockSite@@UAEHXZ 10023920 f i nafxcw:afxdocksite.obj
 0001:00022920       ?HaveHotBorder@CMFCToolBarSystemMenuButton@@UBEHXZ 10023920 f i nafxcw:afxtoolbarsystemmenubutton.obj
 0001:00022920       ?IsWholeRowHeight@CMFCRibbonBaseElement@@UBEHXZ 10023920 f i nafxcw:afxbaseribbonelement.obj
 0001:00022920       ?IsHighlightWholeMenuItem@CMFCVisualManager@@UAEHXZ 10023920 f i nafxcw:afxvisualmanager.obj
 0001:00022920       ?IsTabStop@CRibbonUndoLabel@@UBEHXZ 10023920 f i nafxcw:afxribbonundobutton.obj
 0001:00022920       ?CanBeClosed@CMFCMenuBar@@UBEHXZ 10023920 f i nafxcw:afxmenubar.obj
 0001:00022920       ?CanBeStretched@CMFCToolBarButton@@UBEHXZ 10023920 f i nafxcw:afxcolorbar.obj
 0001:00022920       ?OnAutoRepeat@CMFCRibbonBaseElement@@UAEHXZ 10023920 f i nafxcw:afxbaseribbonelement.obj
 0001:00022920       ?HasAutoHideMode@CBaseTabbedPane@@UBEHXZ 10023920 f i nafxcw:afxoutlookbar.obj
 0001:00022920       ?AllowShowOnPaneMenu@CMFCOutlookBarToolBar@@UBEHXZ 10023920 f i nafxcw:afxoutlookbartabctrl.obj
 0001:00022920       ?IsWindowsThemingSupported@CMFCVisualManager@@UBEHXZ 10023920 f i nafxcw:afxvisualmanager.obj
 0001:00022920       ?IsAccessibilityCompatible@CDockablePane@@UAEHXZ 10023920 f i nafxcw:afxoutlookbar.obj
 0001:00022920       ?GetOccDialogInfo@CWnd@@MAEPAU_AFX_OCC_DIALOG_INFO@@XZ 10023920 f i nafxcw:wincore.obj
 0001:00022920       ?IsTabbed@CMFCOutlookBarToolBar@@UBEHXZ 10023920 f i nafxcw:afxoutlookbartabctrl.obj
 0001:00022920       ?CanFloat@CMFCOutlookBarPane@@MBEHXZ 10023920 f i nafxcw:afxpropertysheet.obj
 0001:00022920       ?AllowShowOnList@CMFCTasksPaneToolBar@@UBEHXZ 10023920 f i nafxcw:afxtaskspane.obj
 0001:00022920       ?GetHwnd@CMFCToolBarButton@@UAEPAUHWND__@@XZ 10023920 f i nafxcw:afxcolorbar.obj
 0001:00022920       ?CanBeTabbedDocument@CBasePane@@UBEHXZ 10023920 f i nafxcw:afxbasepane.obj
 0001:00022920       ?IsQuickAccessToolBar@CMFCRibbonButtonsGroup@@MBEHXZ 10023920 f i nafxcw:afxribbonmainpanel.obj
 0001:00022920       ?IsVS2005Style@CMFCBaseTabCtrl@@UBEHXZ 10023920 f i nafxcw:afxbasetabctrl.obj
 0001:00022920       ?HasButton@CMFCToolBarMenuButton@@UBEHXZ 10023920 f i nafxcw:afxtoolbarmenubutton.obj
 0001:00022920       ?IsInFloatingMultiPaneFrameWnd@CBasePane@@UBEHXZ 10023920 f i nafxcw:afxbasepane.obj
 0001:00022920       ?GetRibbonQuickAccessToolBarChevronOffset@CMFCVisualManager@@UAEHXZ 10023920 f i nafxcw:afxvisualmanager.obj
 0001:00022920       ?AllowShowOnList@CMFCOutlookBarToolBar@@UBEHXZ 10023920 f i nafxcw:afxoutlookbartabctrl.obj
 0001:00022920       ?CanBeStored@CMFCToolBarMenuButtonsButton@@UBEHXZ 10023920 f i nafxcw:afxtoolbarmenubuttonsbutton.obj
 0001:00022920       ?IsToolBox@CMFCTasksPane@@UBEHXZ 10023920 f i nafxcw:afxtaskspane.obj
 0001:00022920       ?IsFlatFrame@CMFCBaseTabCtrl@@UBEHXZ 10023920 f i nafxcw:afxbasetabctrl.obj
 0001:00022920       ?IsAutoHideMode@CBasePane@@UBEHXZ 10023920 f i nafxcw:afxpropertysheet.obj
 0001:00022920       ?CanBeAttached@CBasePane@@UBEHXZ 10023920 f i nafxcw:afxbasepane.obj
 0001:00022920       ?GetTypeInfoCount@CCmdTarget@@UAEIXZ 10023920 f i nafxcw:cmdtarg.obj
 0001:00022920       ?DoesAllowDynInsertBefore@CMFCCaptionBar@@UBEHXZ 10023920 f i nafxcw:afxcaptionbar.obj
 0001:00022920       ?IsResizable@CPane@@UBEHXZ 10023920 f i nafxcw:afxpropertysheet.obj
 0001:00022920       ?IsFixedSize@CMFCRibbonPanel@@MBEHXZ 10023920 f i nafxcw:afxribbonpanel.obj
 0001:00022920       ?CanBeAddedToQuickAccessToolBar@CMFCRibbonLabel@@MBEHXZ 10023920 f i nafxcw:afxribbonlabel.obj
 0001:00022920       ?IsBlank@CDocItem@@UBEHXZ  10023920 f i nafxcw:oledoc1.obj
 0001:00022920       ?GetCaptionHeight@CBasePane@@UBEHXZ 10023920 f i nafxcw:afxpropertysheet.obj
 0001:00022920       ?IsResizable@CDockSite@@UBEHXZ 10023920 f i nafxcw:afxdocksite.obj
 0001:00022920       ?IsLeftRightRounded@CMFCBaseTabCtrl@@UBEHXZ 10023920 f i nafxcw:afxbasetabctrl.obj
 0001:00022920       ?CanBeStretched@CMFCRibbonEdit@@UAEHXZ 10023920 f i nafxcw:afxribbonedit.obj
 0001:00022920       ?IsActiveTabCloseButton@CMFCBaseTabCtrl@@UBEHXZ 10023920 f i nafxcw:afxbasetabctrl.obj
 0001:00022920       ?IsCaptionButton@CMFCRibbonBaseElement@@MBEHXZ 10023920 f i nafxcw:afxbaseribbonelement.obj
 0001:00022920       ?CanBeStored@CMFCCustomizeButton@@UBEHXZ 10023920 f i nafxcw:afxcustomizebutton.obj
 0001:00022920       ?CanFocus@CMFCToolBar@@UBEHXZ 10023920 f i nafxcw:afxpropertysheet.obj
 0001:00022920       ?OnFileNameOK@CFileDialog@@MAEHXZ 10023920 f i nafxcw:dlgfile.obj
 0001:00022920       ?IsBorder@CMFCToolBarSystemMenuButton@@UBEHXZ 10023920 f i nafxcw:afxtoolbarsystemmenubutton.obj
 0001:00022920       ?AllowShowOnPaneMenu@CAutoHideDockSite@@UBEHXZ 10023920 f i nafxcw:afxautohidedocksite.obj
 0001:00022920       ?IsSeparator@CMFCRibbonBaseElement@@UBEHXZ 10023920 f i nafxcw:afxbaseribbonelement.obj
 0001:00022920       ?AllowChangeTextLabels@CMFCMenuBar@@UBEHXZ 10023920 f i nafxcw:afxmenubar.obj
 0001:00022920       ?HasLargeMode@CMFCRibbonEdit@@UBEHXZ 10023920 f i nafxcw:afxribbonedit.obj
 0001:00022920       ?IsMainPanel@CMFCRibbonPanel@@UBEHXZ 10023920 f i nafxcw:afxribbonpanel.obj
 0001:00022920       ?CanBeStretched@CMFCRibbonButtonsGroup@@MAEHXZ 10023920 f i nafxcw:afxribbonquickaccesstoolbar.obj
 0001:00022920       ?IsExclusive@CMFCToolBarMenuButton@@UBEHXZ 10023920 f i nafxcw:afxtoolbarmenubutton.obj
 0001:00022930       ?uflow@?$basic_filebuf@DU?$char_traits@D@std@@@std@@MAEHXZ 10023930 f i Version.obj
 0001:00022c40       ?uflow@?$basic_streambuf@DU?$char_traits@D@std@@@std@@MAEHXZ 10023c40 f i Version.obj
 0001:00022c70       ?underflow@?$basic_filebuf@DU?$char_traits@D@std@@@std@@MAEHXZ 10023c70 f i Version.obj
 0001:00022cb0       ?GetFirstVisibleTabNum@CMFCBaseTabCtrl@@UBEHXZ 10023cb0 f i nafxcw:afxbasetabctrl.obj
 0001:00022cb0       ?GetResizeStep@CPane@@UBEHXZ 10023cb0 f i nafxcw:afxpropertysheet.obj
 0001:00022cb0       ?underflow@?$basic_streambuf@DU?$char_traits@D@std@@@std@@MAEHXZ 10023cb0 f i Version.obj
 0001:00022cb0       ?GetToolbarDisabledColor@CMFCVisualManager@@UBEKXZ 10023cb0 f i nafxcw:afxvisualmanager.obj
 0001:00022cb0       ?GetMDITabsBordersSize@CMFCVisualManager@@UAEHXZ 10023cb0 f i nafxcw:afxvisualmanager.obj
 0001:00022cb0       ?GetDockingTabsBordersSize@CMFCVisualManager@@UAEHXZ 10023cb0 f i nafxcw:afxvisualmanager.obj
 0001:00022cc0       ?what@exception@std@@UBEPBDXZ 10023cc0 f i Version.obj
 0001:00022cd0       ?xsgetn@?$basic_filebuf@DU?$char_traits@D@std@@@std@@MAE_JPAD_J@Z 10023cd0 f i Version.obj
 0001:00022ec0       ?xsgetn@?$basic_streambuf@DU?$char_traits@D@std@@@std@@MAE_JPAD_J@Z 10023ec0 f i Version.obj
 0001:00022f90       ?xsputn@?$basic_filebuf@DU?$char_traits@D@std@@@std@@MAE_JPBD_J@Z 10023f90 f i Version.obj
 0001:00023110       ?xsputn@?$basic_streambuf@DU?$char_traits@D@std@@@std@@MAE_JPBD_J@Z 10024110 f i Version.obj
 0001:000231d0       ??0CSplash@@QAE@PBDK@Z     100241d0 f   Splash.obj
 0001:000232d0       ??1CSplash@@UAE@XZ         100242d0 f   Splash.obj
 0001:000232f0       ??_GCSplash@@UAEPAXI@Z     100242f0 f i Splash.obj
 0001:000232f0       ??_ECSplash@@UAEPAXI@Z     100242f0 f i Splash.obj
 0001:00023330       ?CloseSplash@CSplash@@QAEHXZ 10024330 f   Splash.obj
 0001:00023460       ?ShowSplash@CSplash@@QAEXXZ 10024460 f   Splash.obj
 0001:000235b0       ?FileExists@ToolKit@@QAE_NPAD@Z 100245b0 f   ToolKit.obj
 0001:000235e0       ?HookExactOffset@ToolKit@@QAEXKKE@Z 100245e0 f   ToolKit.obj
 0001:00023600       ?HookOffset@ToolKit@@QAEXKKE@Z 10024600 f   ToolKit.obj
 0001:00023620       ?MemorySet@ToolKit@@QAEXKKK@Z 10024620 f   ToolKit.obj
 0001:00023660       ?SetByte@ToolKit@@QAEKQAXE@Z 10024660 f   ToolKit.obj
 0001:000236c0       ?SetCompleteHook@ToolKit@@QAAXEKZZ 100246c0 f   ToolKit.obj
 0001:00023700       ?SetFloat@ToolKit@@QAEKQAXM@Z 10024700 f   ToolKit.obj
 0001:00023760       ?SetJmp@ToolKit@@QAEKQAX0@Z 10024760 f   ToolKit.obj
 0001:000237d0       ?SetNop@ToolKit@@QAEXKH@Z  100247d0 f   ToolKit.obj
 0001:000237f0       ?SetOp@ToolKit@@QAEKQAX0E@Z 100247f0 f   ToolKit.obj
 0001:00023870       ?SetRange@ToolKit@@QAEKQAXGE@Z 10024870 f   ToolKit.obj
 0001:000238f0       ?WriteMemory@ToolKit@@QAEKQAX0I@Z 100248f0 f   ToolKit.obj
 0001:00023960       ?AddText@cToolTip@@SAXPADHH@Z 10024960 f   ToolTip.obj
 0001:000239b0       ?ItemDescriptionAddOptionTypePosText@cToolTip@@SAXXZ 100249b0 f   ToolTip.obj
 0001:00023dd0       ?ItemDescriptionFixLostMap@cToolTip@@SAXXZ 10024dd0 f   ToolTip.obj
 0001:000262b0       ?ItemDescriptionFixRena@cToolTip@@SAXXZ 100272b0 f   ToolTip.obj
 0001:00027ad0       ?ItemDescriptionFixSymbolKundun@cToolTip@@SAXXZ 10028ad0 f   ToolTip.obj
 0001:00027b30       ?ItemDescriptionFixSymbolKundunAdd@cToolTip@@SAXXZ 10028b30 f   ToolTip.obj
 0001:00027ba0       ?ItemDescriptionText@cToolTip@@SAXXZ 10028ba0 f   ToolTip.obj
 0001:000289d0       ?ItemNameColorDrop@cToolTip@@QAEXH@Z 100299d0 f   ToolTip.obj
 0001:000293c0       ?Load@cToolTip@@QAEXXZ     1002a3c0 f   ToolTip.obj
 0001:000294c0       ?Load@cUser@@QAEXXZ        1002a4c0 f   User.obj
 0001:000294d0       ??$sprintf_s@$0DC@@@YAHAAY0DC@DPBDZZ 1002a4d0 f i VisualFix.obj
 0001:00029500       ?CalculateAttackRate@cVisualFix@@SIXPAUObjectCharacter@@PAX@Z 1002a500 f   VisualFix.obj
 0001:00029590       ?CalculateAttackSpeed@cVisualFix@@SIXPAUObjectCharacter@@PAX@Z 1002a590 f   VisualFix.obj
 0001:00029640       ?CalculateDamageRate@cVisualFix@@SIXPAUObjectCharacter@@PAX@Z 1002a640 f   VisualFix.obj
 0001:00029700       ?DrawAg@cVisualFix@@SANMMHM@Z 1002a700 f   VisualFix.obj
 0001:00029740       ?DrawCircle@cVisualFix@@SAXKMMMMMMMM_N0M@Z 1002a740 f   VisualFix.obj
 0001:00029ad0       ?DrawDamageHP@cVisualFix@@SAXHHHMD@Z 1002aad0 f   VisualFix.obj
 0001:00029b00       ?DrawDamageSD@cVisualFix@@SAXHHHMD@Z 1002ab00 f   VisualFix.obj
 0001:00029b30       ?DrawHp@cVisualFix@@SANMMHM@Z 1002ab30 f   VisualFix.obj
 0001:00029b70       ?DrawMp@cVisualFix@@SANMMHM@Z 1002ab70 f   VisualFix.obj
 0001:00029bb0       ?DrawSd@cVisualFix@@SANMMHM@Z 1002abb0 f   VisualFix.obj
 0001:00029bf0       ?DrawTabAG@cVisualFix@@SAHHHPBD@Z 1002abf0 f   VisualFix.obj
 0001:00029c20       ?DrawTabHP@cVisualFix@@SAHHHPBD@Z 1002ac20 f   VisualFix.obj
 0001:00029c50       ?DrawTabMP@cVisualFix@@SAHHHPBD@Z 1002ac50 f   VisualFix.obj
 0001:00029c80       ?DrawTabSD@cVisualFix@@SAHHHPBD@Z 1002ac80 f   VisualFix.obj
 0001:00029cb0       ?GetAttackRate@cVisualFix@@SAHXZ 1002acb0 f   VisualFix.obj
 0001:00029cc0       ?GetDamageRate@cVisualFix@@SAHXZ 1002acc0 f   VisualFix.obj
 0001:00029cd0       ?InfoHp@cVisualFix@@SAHHPBDZZ 1002acd0 f   VisualFix.obj
 0001:00029d00       ?InfoMp@cVisualFix@@SAHHPBDZZ 1002ad00 f   VisualFix.obj
 0001:00029d30       ?InfoPoint@cVisualFix@@SAHHPBDZZ 1002ad30 f   VisualFix.obj
 0001:00029d70       ?Load@cVisualFix@@QAEXXZ   1002ad70 f   VisualFix.obj
 0001:0002a070       ?RecvDamage@cVisualFix@@QAEXPAUPMSG_ATTACKRESULT@@@Z 1002b070 f   VisualFix.obj
 0001:0002a0c0       ?RecvDownPoint@cVisualFix@@QAEXPAUPMSG_LVPOINTADDRESULT@@@Z 1002b0c0 f   VisualFix.obj
 0001:0002a0e0       ?RecvHPSD@cVisualFix@@QAEXPAUPMSG_REFILL@@@Z 1002b0e0 f   VisualFix.obj
 0001:0002a130       ?RecvIndex@cVisualFix@@QAEXPAUPMSG_JOINRESULT@@@Z 1002b130 f   VisualFix.obj
 0001:0002a150       ?RecvKilledObject@cVisualFix@@QAEXPAUPMSG_DIEPLAYER@@@Z 1002b150 f   VisualFix.obj
 0001:0002a180       ?RecvMPAG@cVisualFix@@QAEXPAUPMSG_MANASEND@@@Z 1002b180 f   VisualFix.obj
 0001:0002a1c0       ?RecvRespawn@cVisualFix@@QAEXXZ 1002b1c0 f   VisualFix.obj
 0001:0002a1e0       ?RecvUpLevel@cVisualFix@@QAEXPAUPMSG_LEVELUP@@@Z 1002b1e0 f   VisualFix.obj
 0001:0002a1f0       ?RecvUpPoint@cVisualFix@@QAEXPAUPMSG_CHARMAPJOINRESULT@@@Z 1002b1f0 f   VisualFix.obj
 0001:0002a200       ?AddAdditionalOption@cWings@@SAXXZ 1002b200 f   Wings.obj
 0001:0002aad0       ?AddExcellentStatus@cWings@@SAXXZ 1002bad0 f   Wings.obj
 0001:0002ab20       ?AddLuckOption@cWings@@SAXXZ 1002bb20 f   Wings.obj
 0001:0002ab70       ?AllowRepair@cWings@@SAXXZ 1002bb70 f   Wings.obj
 0001:0002abc0       ?DisableLevelShine@cWings@@SAXXZ 1002bbc0 f   Wings.obj
 0001:0002ac90       ?FixMoveKanturu@cWings@@SAXXZ 1002bc90 f   Wings.obj
 0001:0002ad00       ?HideExcellentGlow@cWings@@SAXXZ 1002bd00 f   Wings.obj
 0001:0002ad90       ?HideExcellentText@cWings@@SAXXZ 1002bd90 f   Wings.obj
 0001:0002ae80       ?Load@cWings@@QAEXXZ       1002be80 f   Wings.obj
 0001:0002b170       ?SetMaxDurability@cWings@@SAHPAUObjectItem@@HH@Z 1002c170 f   Wings.obj
 0001:0002b2a0       ?ShowAdditionals@cWings@@SAXXZ 1002c2a0 f   Wings.obj
 0001:0002b350       ?ShowDurability@cWings@@SAXXZ 1002c350 f   Wings.obj
 0001:0002b3d0       ??_EcWinTitle@@UAEPAXI@Z   1002c3d0 f i WinTitle.obj
 0001:0002b3d0       ??_GcWinTitle@@UAEPAXI@Z   1002c3d0 f i WinTitle.obj
 0001:0002b400       ?Load@cWinTitle@@QAEXXZ    1002c400 f   WinTitle.obj
 0001:0002b48d       _glGetIntegerv@8           1002c48d f   opengl32:OPENGL32.dll
 0001:0002b493       _glTexParameterf@12        1002c493 f   opengl32:OPENGL32.dll
 0001:0002b499       _glTexParameteri@12        1002c499 f   opengl32:OPENGL32.dll
 0001:0002b49f       _glColor3f@12              1002c49f f   opengl32:OPENGL32.dll
 0001:0002b4a5       _glEnable@4                1002c4a5 f   opengl32:OPENGL32.dll
 0001:0002b4ab       _glDisable@4               1002c4ab f   opengl32:OPENGL32.dll
 0001:0002b4b1       _glHint@8                  1002c4b1 f   opengl32:OPENGL32.dll
 0001:0002b4b7       _glFogf@8                  1002c4b7 f   opengl32:OPENGL32.dll
 0001:0002b4bd       _glFogi@8                  1002c4bd f   opengl32:OPENGL32.dll
 0001:0002b4c3       _glFogfv@8                 1002c4c3 f   opengl32:OPENGL32.dll
 0001:0002b4c9       _glMatrixMode@4            1002c4c9 f   opengl32:OPENGL32.dll
 0001:0002b4cf       _glOrtho@48                1002c4cf f   opengl32:OPENGL32.dll
 0001:0002b4d5       _glViewport@16             1002c4d5 f   opengl32:OPENGL32.dll
 0001:0002b4db       _glPushMatrix@0            1002c4db f   opengl32:OPENGL32.dll
 0001:0002b4e1       _glPopMatrix@0             1002c4e1 f   opengl32:OPENGL32.dll
 0001:0002b4e7       _glLoadIdentity@0          1002c4e7 f   opengl32:OPENGL32.dll
 0001:0002b4ed       _glBegin@4                 1002c4ed f   opengl32:OPENGL32.dll
 0001:0002b4f3       _glEnd@0                   1002c4f3 f   opengl32:OPENGL32.dll
 0001:0002b4f9       _glVertex3f@12             1002c4f9 f   opengl32:OPENGL32.dll
 0001:0002b4ff       _glTexCoord2f@8            1002c4ff f   opengl32:OPENGL32.dll
 0001:0002b505       _glTexImage2D@36           1002c505 f   opengl32:OPENGL32.dll
 0001:0002b50b       _glGenTextures@8           1002c50b f   opengl32:OPENGL32.dll
 0001:0002b511       _glBindTexture@8           1002c511 f   opengl32:OPENGL32.dll
 0001:0002b517       _glCopyTexImage2D@32       1002c517 f   opengl32:OPENGL32.dll
 0001:0002b51d       _glGetDoublev@8            1002c51d f   opengl32:OPENGL32.dll
 0001:0002b523       _glVertex3d@24             1002c523 f   opengl32:OPENGL32.dll
 0001:0002b529       _glColor3d@24              1002c529 f   opengl32:OPENGL32.dll
 0001:0002b52f       _glPixelStorei@8           1002c52f f   opengl32:OPENGL32.dll
 0001:0002b535       _cgCreateContext           1002c535 f   cg:cg.dll
 0001:0002b53b       _cgCreateProgramFromFile   1002c53b f   cg:cg.dll
 0001:0002b541       _cgGetNamedParameter       1002c541 f   cg:cg.dll
 0001:0002b547       _cgGetError                1002c547 f   cg:cg.dll
 0001:0002b54d       _cgGetErrorString          1002c54d f   cg:cg.dll
 0001:0002b553       _cgGLEnableProfile         1002c553 f   cgGL:cgGL.dll
 0001:0002b559       _cgGLDisableProfile        1002c559 f   cgGL:cgGL.dll
 0001:0002b55f       _cgGLGetLatestProfile      1002c55f f   cgGL:cgGL.dll
 0001:0002b565       _cgGLSetOptimalOptions     1002c565 f   cgGL:cgGL.dll
 0001:0002b56b       _cgGLLoadProgram           1002c56b f   cgGL:cgGL.dll
 0001:0002b571       _cgGLBindProgram           1002c571 f   cgGL:cgGL.dll
 0001:0002b577       _cgGLSetParameter1f        1002c577 f   cgGL:cgGL.dll
 0001:0002b57d       _cgGLSetStateMatrixParameter 1002c57d f   cgGL:cgGL.dll
 0001:0002b583       ?AfxNewHandler@@YAHI@Z     1002c583 f   nafxcw:afxmem.obj
 0001:0002b588       ??2@YAPAXI@Z               1002c588 f   nafxcw:afxmem.obj
 0001:0002b5c0       ??_V@YAXPAX@Z              1002c5c0 f   nafxcw:afxmem.obj
 0001:0002b5c0       ??3@YAXPAX@Z               1002c5c0 f   nafxcw:afxmem.obj
 0001:0002b5c5       ??_U@YAPAXI@Z              1002c5c5 f   nafxcw:afxmem.obj
 0001:0002b5ce       ?AfxSetNewHandler@@YGP6AHI@ZP6AHI@Z@Z 1002c5ce f   nafxcw:afxmem.obj
 0001:0002b5e3       ??$AtlAdd@H@ATL@@YAJPAHHH@Z 1002c5e3 f i nafxcw:stdafx.obj
 0001:0002b609       ??$AtlAdd@K@ATL@@YAJPAKKK@Z 1002c609 f i nafxcw:stdafx.obj
 0001:0002b62c       ??$AtlMultiply@K@ATL@@YAJPAKKK@Z 1002c62c f i nafxcw:stdafx.obj
 0001:0002b62c       ??$AtlMultiply@I@ATL@@YAJPAIII@Z 1002c62c f i nafxcw:stdafx.obj
 0001:0002b64e       ??0CInitGDIPlus@CImage@ATL@@QAE@XZ 1002c64e f i nafxcw:stdafx.obj
 0001:0002b683       ??1CComBSTR@ATL@@QAE@XZ    1002c683 f i nafxcw:stdafx.obj
 0001:0002b68c       ??1CDCCache@CImage@ATL@@QAE@XZ 1002c68c f i nafxcw:stdafx.obj
 0001:0002b6aa       ?GetCDCCacheInstance@CImage@ATL@@CAPAVCDCCache@12@XZ 1002c6aa f i nafxcw:stdafx.obj
 0001:0002b6da       ?GetInitGDIPlusInstance@CImage@ATL@@CAPAVCInitGDIPlus@12@XZ 1002c6da f i nafxcw:stdafx.obj
 0001:0002b70a       ?Init@CComCriticalSection@ATL@@QAEJXZ 1002c70a f i nafxcw:stdafx.obj
 0001:0002b732       ?ReleaseGDIPlus@CInitGDIPlus@CImage@ATL@@QAEXXZ 1002c732 f i nafxcw:stdafx.obj
 0001:0002b759       _IsolationAwareActivateActCtx@8 1002c759 f i nafxcw:stdafx.obj
 0001:0002b79c       _IsolationAwareCreateActCtxW@4 1002c79c f i nafxcw:stdafx.obj
 0001:0002b7e1       _IsolationAwareDeactivateActCtx@8 1002c7e1 f i nafxcw:stdafx.obj
 0001:0002b824       _IsolationAwareFindActCtxSectionStringW@20 1002c824 f i nafxcw:stdafx.obj
 0001:0002b870       _IsolationAwarePrivatenPgViNgRzlnPgpgk@4 1002c870 f i nafxcw:stdafx.obj
 0001:0002b8eb       _IsolationAwarePrivatezltRgCebPnQQeRff@12 1002c8eb f i nafxcw:stdafx.obj
 0001:0002b929       _IsolationAwarePrivatezltRgzbQhYRuNaQYRJ@4 1002c929 f i nafxcw:stdafx.obj
 0001:0002b933       _IsolationAwarePrivatezltRgzbQhYRuNaQYRn@4 1002c933 f i nafxcw:stdafx.obj
 0001:0002b93d       _IsolationAwareQueryActCtxW@28 1002c93d f i nafxcw:stdafx.obj
 0001:0002b98f       _WinbaseIsolationAwarePrivatetRgzlnPgpgk@0 1002c98f f i nafxcw:stdafx.obj
 0001:0002bb5b       ??0CException@@QAE@H@Z     1002cb5b f   nafxcw:except.obj
 0001:0002bb6a       ??0CException@@QAE@XZ      1002cb6a f   nafxcw:except.obj
 0001:0002bb74       ??3CObject@@SGXPAX@Z       1002cb74 f i nafxcw:except.obj
 0001:0002bb84       ??_GCNotSupportedException@@UAEPAXI@Z 1002cb84 f i nafxcw:except.obj
 0001:0002bb84       ??_ECUserException@@UAEPAXI@Z 1002cb84 f i nafxcw:wingdi.obj
 0001:0002bb84       ??_GCMemoryException@@UAEPAXI@Z 1002cb84 f i nafxcw:except.obj
 0001:0002bb84       ??_GCUserException@@UAEPAXI@Z 1002cb84 f i nafxcw:wingdi.obj
 0001:0002bb84       ??_GCResourceException@@UAEPAXI@Z 1002cb84 f i nafxcw:wingdi.obj
 0001:0002bb84       ??_GCInvalidArgException@@UAEPAXI@Z 1002cb84 f i nafxcw:except.obj
 0001:0002bb84       ??_ECMemoryException@@UAEPAXI@Z 1002cb84 f i nafxcw:except.obj
 0001:0002bb84       ??_ECResourceException@@UAEPAXI@Z 1002cb84 f i nafxcw:wingdi.obj
 0001:0002bb84       ??_ECInvalidArgException@@UAEPAXI@Z 1002cb84 f i nafxcw:except.obj
 0001:0002bb84       ??_ECNotSupportedException@@UAEPAXI@Z 1002cb84 f i nafxcw:except.obj
 0001:0002bbb8       ?AfxCrtErrorCheck@@YAHH@Z  1002cbb8 f i nafxcw:except.obj
 0001:0002bbe2       ?AfxThrowInvalidArgException@@YGXXZ 1002cbe2 f   nafxcw:except.obj
 0001:0002bbfc       ?AfxThrowMemoryException@@YGXXZ 1002cbfc f   nafxcw:except.obj
 0001:0002bc16       ?AfxThrowNotSupportedException@@YGXXZ 1002cc16 f   nafxcw:except.obj
 0001:0002bc30       ?CreateObject@?$CThreadLocal@V_AFX_THREAD_STATE@@@@SGPAVCNoTrackObject@@XZ 1002cc30 f i nafxcw:except.obj
 0001:0002bc5f       ?Delete@CException@@QAEXXZ 1002cc5f f   nafxcw:except.obj
 0001:0002bc7f       ?GetErrorMessage@CException@@UAEHPADIPAI@Z 1002cc7f f   nafxcw:except.obj
 0001:0002bca6       ?GetErrorMessage@CSimpleException@@UBEHPADIPAI@Z 1002cca6 f   nafxcw:except.obj
 0001:0002bcff       ?GetRuntimeClass@CInvalidArgException@@UBEPAUCRuntimeClass@@XZ 1002ccff f   nafxcw:except.obj
 0001:0002bd05       ?GetRuntimeClass@CMemoryException@@UBEPAUCRuntimeClass@@XZ 1002cd05 f   nafxcw:except.obj
 0001:0002bd0b       ?GetRuntimeClass@CNotSupportedException@@UBEPAUCRuntimeClass@@XZ 1002cd0b f   nafxcw:except.obj
 0001:0002bd11       ?GetRuntimeClass@CSimpleException@@UBEPAUCRuntimeClass@@XZ 1002cd11 f   nafxcw:except.obj
 0001:0002bd17       ?InitString@CSimpleException@@QAEXXZ 1002cd17 f   nafxcw:except.obj
 0001:0002bd40       ?ReportError@CException@@UAEHII@Z 1002cd40 f   nafxcw:except.obj
 0001:0002bdc0       ??$AtlMultiplyThrow@I@ATL@@YAIII@Z 1002cdc0 f i nafxcw:afxtls.obj
 0001:0002bde6       ??0CThreadSlotData@@QAE@XZ 1002cde6 f   nafxcw:afxtls.obj
 0001:0002be26       ??1CProcessLocalObject@@QAE@XZ 1002ce26 f   nafxcw:afxtls.obj
 0001:0002be55       ??1CThreadLocalObject@@QAE@XZ 1002ce55 f   nafxcw:afxtls.obj
 0001:0002be73       ??2CNoTrackObject@@SGPAXI@Z 1002ce73 f   nafxcw:afxtls.obj
 0001:0002be8f       ??3CNoTrackObject@@SGXPAX@Z 1002ce8f f   nafxcw:afxtls.obj
 0001:0002bea3       ??_ECThreadData@@UAEPAXI@Z 1002cea3 f i nafxcw:afxtls.obj
 0001:0002bea3       ??_GCThreadData@@UAEPAXI@Z 1002cea3 f i nafxcw:afxtls.obj
 0001:0002bed3       ?AddHead@CSimpleList@@QAEXPAX@Z 1002ced3 f   nafxcw:afxtls.obj
 0001:0002bef5       ?AllocSlot@CThreadSlotData@@QAEHXZ 1002cef5 f   nafxcw:afxtls.obj
 0001:0002c014       ?AtlThrowImpl@ATL@@YGXJ@Z  1002d014 f i nafxcw:afxtls.obj
 0001:0002c02e       ?FreeSlot@CThreadSlotData@@QAEXH@Z 1002d02e f   nafxcw:afxtls.obj
 0001:0002c0aa       ?GetData@CProcessLocalObject@@QAEPAVCNoTrackObject@@P6GPAV2@XZ@Z 1002d0aa f   nafxcw:afxtls.obj
 0001:0002c101       ?GetData@CThreadLocalObject@@QAEPAVCNoTrackObject@@P6GPAV2@XZ@Z 1002d101 f   nafxcw:afxtls.obj
 0001:0002c18c       ?GetThreadValue@CThreadSlotData@@QAEPAXH@Z 1002d18c f i nafxcw:afxtls.obj
 0001:0002c1e0       ?Remove@CSimpleList@@QAEHPAX@Z 1002d1e0 f   nafxcw:afxtls.obj
 0001:0002c234       ?SetValue@CThreadSlotData@@QAEXHPAX@Z 1002d234 f   nafxcw:afxtls.obj
 0001:0002c36c       ??0?$CSimpleStringT@_W$0A@@ATL@@QAE@PAUIAtlStringMgr@1@@Z 1002d36c f i nafxcw:olemisc.obj
 0001:0002c36c       ??0?$CSimpleStringT@D$0A@@ATL@@QAE@PAUIAtlStringMgr@1@@Z 1002d36c f i nafxcw:afxstate.obj
 0001:0002c3a5       ??0?$CStringT@DV?$StrTraitMFC@DV?$ChTraitsCRT@D@ATL@@@@@ATL@@QAE@XZ 1002d3a5 f i nafxcw:afxstate.obj
 0001:0002c3b9       ??0AFX_MAINTAIN_STATE2@@QAE@PAVAFX_MODULE_STATE@@@Z 1002d3b9 f   nafxcw:afxstate.obj
 0001:0002c3be       ??0AFX_MODULE_STATE@@QAE@H@Z 1002d3be f   nafxcw:afxstate.obj
 0001:0002c466       ??0AFX_MODULE_THREAD_STATE@@QAE@XZ 1002d466 f   nafxcw:afxstate.obj
 0001:0002c48d       ??0_AFX_THREAD_STATE@@QAE@XZ 1002d48d f   nafxcw:afxstate.obj
 0001:0002c4a4       ??1?$CSimpleStringT@_W$0A@@ATL@@QAE@XZ 1002d4a4 f i nafxcw:olemisc.obj
 0001:0002c4a4       ??1?$CStringT@_WV?$StrTraitMFC@_WV?$ChTraitsCRT@_W@ATL@@@@@ATL@@QAE@XZ 1002d4a4 f i nafxcw:olemisc.obj
 0001:0002c4a4       ??1?$CSimpleStringT@D$0A@@ATL@@QAE@XZ 1002d4a4 f i nafxcw:afxstate.obj
 0001:0002c4a4       ??1?$CStringT@DV?$StrTraitMFC@DV?$ChTraitsCRT@D@ATL@@@@@ATL@@QAE@XZ 1002d4a4 f i nafxcw:afxstate.obj
 0001:0002c4a4       ??1CMFCRestoredTabInfo@@QAE@XZ 1002d4a4 f i nafxcw:afxbasetabctrl.obj
 0001:0002c4ae       ??1?$CThreadLocal@VAFX_MODULE_THREAD_STATE@@@@QAE@XZ 1002d4ae f i nafxcw:afxstate.obj
 0001:0002c4b3       ??1AFX_MODULE_STATE@@UAE@XZ 1002d4b3 f   nafxcw:afxstate.obj
 0001:0002c552       ??1AFX_MODULE_THREAD_STATE@@UAE@XZ 1002d552 f   nafxcw:afxstate.obj
 0001:0002c6a5       ??1_AFX_THREAD_STATE@@UAE@XZ 1002d6a5 f   nafxcw:afxstate.obj
 0001:0002c6dd       ??_GAFX_MODULE_STATE@@UAEPAXI@Z 1002d6dd f i nafxcw:afxstate.obj
 0001:0002c6dd       ??_G_AFX_BASE_MODULE_STATE@@UAEPAXI@Z 1002d6dd f i nafxcw:afxstate.obj
 0001:0002c6dd       ??_EAFX_MODULE_STATE@@UAEPAXI@Z 1002d6dd f i nafxcw:afxstate.obj
 0001:0002c6dd       ??_E_AFX_BASE_MODULE_STATE@@UAEPAXI@Z 1002d6dd f i nafxcw:afxstate.obj
 0001:0002c710       ??_EAFX_MODULE_THREAD_STATE@@UAEPAXI@Z 1002d710 f i nafxcw:afxstate.obj
 0001:0002c710       ??_GAFX_MODULE_THREAD_STATE@@UAEPAXI@Z 1002d710 f i nafxcw:afxstate.obj
 0001:0002c740       ??_E_AFX_THREAD_STATE@@UAEPAXI@Z 1002d740 f i nafxcw:afxstate.obj
 0001:0002c740       ??_G_AFX_THREAD_STATE@@UAEPAXI@Z 1002d740 f i nafxcw:afxstate.obj
 0001:0002c773       ?AfxGetModuleState@@YGPAVAFX_MODULE_STATE@@XZ 1002d773 f   nafxcw:afxstate.obj
 0001:0002c7a6       ?AfxGetModuleThreadState@@YGPAVAFX_MODULE_THREAD_STATE@@XZ 1002d7a6 f   nafxcw:afxstate.obj
 0001:0002c7c1       ?AfxGetThreadState@@YGPAV_AFX_THREAD_STATE@@XZ 1002d7c1 f   nafxcw:afxstate.obj
 0001:0002c7d9       ?CopyChars@?$CSimpleStringT@D$0A@@ATL@@SAXPADIPBDH@Z 1002d7d9 f i nafxcw:afxstate.obj
 0001:0002c84b       ?CreateObject@?$CProcessLocal@V_AFX_BASE_MODULE_STATE@@@@SGPAVCNoTrackObject@@XZ 1002d84b f i nafxcw:afxstate.obj
 0001:0002c889       ?CreateObject@?$CThreadLocal@VAFX_MODULE_THREAD_STATE@@@@SGPAVCNoTrackObject@@XZ 1002d889 f i nafxcw:afxstate.obj
 0001:0002c8a8       ?Fork@?$CSimpleStringT@D$0A@@ATL@@AAEXH@Z 1002d8a8 f i nafxcw:afxstate.obj
 0001:0002c936       ?PrepareWrite2@?$CSimpleStringT@D$0A@@ATL@@AAEXH@Z 1002d936 f i nafxcw:afxstate.obj
 0001:0002c98d       ?PrepareWrite@?$CSimpleStringT@D$0A@@ATL@@AAEPADH@Z 1002d98d f i nafxcw:afxstate.obj
 0001:0002c9c9       ?Reallocate@?$CSimpleStringT@D$0A@@ATL@@AAEXH@Z 1002d9c9 f i nafxcw:afxstate.obj
 0001:0002ca0f       ?Release@CStringData@ATL@@QAEXXZ 1002da0f f i nafxcw:afxstate.obj
 0001:0002ca35       ?ThrowMemoryException@?$CSimpleStringT@_W$0A@@ATL@@KAXXZ 1002da35 f i nafxcw:olemisc.obj
 0001:0002ca35       ?ThrowMemoryException@?$CSimpleStringT@D$0A@@ATL@@KAXXZ 1002da35 f i nafxcw:afxstate.obj
 0001:0002ca40       ?Unlock@CTypeLibCache@@QAEXXZ 1002da40 f   nafxcw:afxstate.obj
 0001:0002ca87       ??B?$CSimpleStringT@D$0A@@ATL@@QBEPBDXZ 1002da87 f i nafxcw:appui1.obj
 0001:0002ca8a       ?AfxGetMainWnd@@YGPAVCWnd@@XZ 1002da8a f i nafxcw:appui1.obj
 0001:0002caaf       ?AfxMessageBox@@YGHIII@Z   1002daaf f   nafxcw:appui1.obj
 0001:0002cb11       ?AfxMessageBox@@YGHPBDII@Z 1002db11 f   nafxcw:appui1.obj
 0001:0002cb5a       ?AtlGetStringResourceImage@ATL@@YAPBUATLSTRINGRESOURCEIMAGE@1@PAUHINSTANCE__@@I@Z 1002db5a f i nafxcw:appui1.obj
 0001:0002cb8a       ?ConvertToBaseType@?$ChTraitsCRT@D@ATL@@SAXPADHPB_WH@Z 1002db8a f i nafxcw:appui1.obj
 0001:0002cba8       ?DoEnableModeless@CWinApp@@SAXH@Z 1002dba8 f   nafxcw:appui1.obj
 0001:0002cbf2       ?EnableModeless@CWinApp@@QAEXH@Z 1002dbf2 f   nafxcw:appui1.obj
 0001:0002cc02       ?GetBaseTypeLength@?$ChTraitsCRT@D@ATL@@SAHPB_WH@Z 1002dc02 f i nafxcw:appui1.obj
 0001:0002cc1c       ?GetSafeOwner_@CWnd@@SGPAUHWND__@@PAU2@PAPAU2@@Z 1002dc1c f   nafxcw:appui1.obj
 0001:0002ccd1       ?LoadStringA@?$CStringT@DV?$StrTraitMFC@DV?$ChTraitsCRT@D@ATL@@@@@ATL@@QAEHI@Z 1002dcd1 f i nafxcw:appui1.obj
 0001:0002ccf3       ?LoadStringA@?$CStringT@DV?$StrTraitMFC@DV?$ChTraitsCRT@D@ATL@@@@@ATL@@QAEHPAUHINSTANCE__@@I@Z 1002dcf3 f i nafxcw:appui1.obj
 0001:0002cd4c       ?SetLength@?$CSimpleStringT@D$0A@@ATL@@AAEXH@Z 1002dd4c f i nafxcw:appui1.obj
 0001:0002cd75       ?ShowAppMessageBox@CWinApp@@SAHPAV1@PBDII@Z 1002dd75 f   nafxcw:appui1.obj
 0001:0002cedc       ?_AtlGetStringResourceImage@ATL@@YAPBUATLSTRINGRESOURCEIMAGE@1@PAUHINSTANCE__@@PAUHRSRC__@@I@Z 1002dedc f i nafxcw:appui1.obj
 0001:0002cf39       ?AfxExtractSubString@@YGHAAV?$CStringT@DV?$StrTraitMFC@DV?$ChTraitsCRT@D@ATL@@@@@ATL@@PBDHD@Z 1002df39 f   nafxcw:winstr.obj
 0001:0002cfb7       ?AfxFindStringResourceHandle@@YGPAUHINSTANCE__@@I@Z 1002dfb7 f   nafxcw:winstr.obj
 0001:0002cfc2       ?AfxLoadString@@YGHIPADI@Z 1002dfc2 f   nafxcw:winstr.obj
 0001:0002d01c       ?Empty@?$CSimpleStringT@D$0A@@ATL@@QAEXXZ 1002e01c f i nafxcw:winstr.obj
 0001:0002d05d       ?GetBufferSetLength@?$CSimpleStringT@D$0A@@ATL@@QAEPADH@Z 1002e05d f i nafxcw:winstr.obj
 0001:0002d080       ?ReleaseBuffer@?$CSimpleStringT@D$0A@@ATL@@QAEXH@Z 1002e080 f i nafxcw:winstr.obj
 0001:0002d0ac       ?memcpy_s@Checked@ATL@@YAXPAXIPBXI@Z 1002e0ac f i nafxcw:winstr.obj
 0001:0002d14a       ?AfxClassInit@@YGXPAUCRuntimeClass@@@Z 1002e14a f   nafxcw:objcore.obj
 0001:0002d173       ?AfxDynamicDownCast@@YAPAVCObject@@PAUCRuntimeClass@@PAV1@@Z 1002e173 f   nafxcw:objcore.obj
 0001:0002d194       ?CreateObject@CRuntimeClass@@QAEPAVCObject@@XZ 1002e194 f   nafxcw:objcore.obj
 0001:0002d1dd       ?GetRuntimeClass@CObject@@UBEPAUCRuntimeClass@@XZ 1002e1dd f   nafxcw:objcore.obj
 0001:0002d1e3       ?IsDerivedFrom@CRuntimeClass@@QBEHPBU1@@Z 1002e1e3 f   nafxcw:objcore.obj
 0001:0002d20d       ?IsKindOf@CObject@@QBEHPBUCRuntimeClass@@@Z 1002e20d f   nafxcw:objcore.obj
 0001:0002d23c       ??$AtlAddThrow@K@ATL@@YAKKK@Z 1002e23c f i nafxcw:olemisc.obj
 0001:0002d262       ??0?$CStringT@DV?$StrTraitMFC@DV?$ChTraitsCRT@D@ATL@@@@@ATL@@QAE@PBD@Z 1002e262 f i nafxcw:olemisc.obj
 0001:0002d2b4       ??0?$CStringT@DV?$StrTraitMFC@DV?$ChTraitsCRT@D@ATL@@@@@ATL@@QAE@PB_W@Z 1002e2b4 f i nafxcw:olemisc.obj
 0001:0002d2f8       ??0?$CStringT@_WV?$StrTraitMFC@_WV?$ChTraitsCRT@_W@ATL@@@@@ATL@@QAE@PBD@Z 1002e2f8 f i nafxcw:olemisc.obj
 0001:0002d33c       ??0COleException@@QAE@XZ   1002e33c f i nafxcw:olemisc.obj
 0001:0002d352       ??2CObject@@SGPAXI@Z       1002e352 f i nafxcw:olemisc.obj
 0001:0002d362       ??4?$CStringT@DV?$StrTraitMFC@DV?$ChTraitsCRT@D@ATL@@@@@ATL@@QAEAAV01@PB_W@Z 1002e362 f i nafxcw:olemisc.obj
 0001:0002d3b3       ??4?$CStringT@_WV?$StrTraitMFC@_WV?$ChTraitsCRT@_W@ATL@@@@@ATL@@QAEAAV01@PBD@Z 1002e3b3 f i nafxcw:olemisc.obj
 0001:0002d401       ??_GCOleException@@UAEPAXI@Z 1002e401 f i nafxcw:olemisc.obj
 0001:0002d401       ??_ECOleException@@UAEPAXI@Z 1002e401 f i nafxcw:olemisc.obj
 0001:0002d432       ?AfxMergeMenus@@YGPAUHMENU__@@PAU1@0PAJHH@Z 1002e432 f   nafxcw:olemisc.obj
 0001:0002d6ab       ?AfxThrowOleException@@YGXJ@Z 1002e6ab f   nafxcw:olemisc.obj
 0001:0002d6ef       ?AfxUnmergeMenus@@YGXPAUHMENU__@@00@Z 1002e6ef f   nafxcw:olemisc.obj
 0001:0002d79d       ?Allocate@?$CAtlSafeAllocBufferManager@VCCRTAllocator@ATL@@@_ATL_SAFE_ALLOCA_IMPL@ATL@@QAEPAXK@Z 1002e79d f i nafxcw:olemisc.obj
 0001:0002d7ca       ?Append@?$CSimpleStringT@D$0A@@ATL@@QAEXPBDH@Z 1002e7ca f i nafxcw:olemisc.obj
 0001:0002d855       ?AppendChar@?$CSimpleStringT@D$0A@@ATL@@QAEXD@Z 1002e855 f i nafxcw:olemisc.obj
 0001:0002d880       ?AtlCoTaskMemCAlloc@ATL@@YAPAXKK@Z 1002e880 f i nafxcw:olemisc.obj
 0001:0002d8ad       ?AtlCrtErrorCheck@ATL@@YAHH@Z 1002e8ad f i nafxcw:olemisc.obj
 0001:0002d8e8       ?CheckImplicitLoad@?$CStringT@DV?$StrTraitMFC@DV?$ChTraitsCRT@D@ATL@@@@@ATL@@AAE_NPBX@Z 1002e8e8 f i nafxcw:olemisc.obj
 0001:0002d90c       ?CheckImplicitLoad@?$CStringT@_WV?$StrTraitMFC@_WV?$ChTraitsCRT@_W@ATL@@@@@ATL@@AAE_NPBX@Z 1002e90c f i nafxcw:olemisc.obj
 0001:0002d930       ?ConvertToBaseType@?$ChTraitsCRT@_W@ATL@@SAXPA_WHPB_WH@Z 1002e930 f i nafxcw:olemisc.obj
 0001:0002d963       ?CopyChars@?$CSimpleStringT@_W$0A@@ATL@@SAXPA_WIPB_WH@Z 1002e963 f i nafxcw:olemisc.obj
 0001:0002d982       ?CopyCharsOverlapped@?$CSimpleStringT@D$0A@@ATL@@SAXPADIPBDH@Z 1002e982 f i nafxcw:olemisc.obj
 0001:0002d9cc       ?Empty@?$CSimpleStringT@_W$0A@@ATL@@QAEXXZ 1002e9cc f i nafxcw:olemisc.obj
 0001:0002da0d       ?Fork@?$CSimpleStringT@_W$0A@@ATL@@AAEXH@Z 1002ea0d f i nafxcw:olemisc.obj
 0001:0002da9b       ?GetBaseTypeLength@?$ChTraitsCRT@D@ATL@@SAHPB_W@Z 1002ea9b f i nafxcw:olemisc.obj
 0001:0002dab5       ?GetBaseTypeLength@?$ChTraitsCRT@_W@ATL@@SAHPBD@Z 1002eab5 f i nafxcw:olemisc.obj
 0001:0002dacd       ?GetErrorMessage@COleException@@UBEHPADIPAI@Z 1002eacd f   nafxcw:olemisc.obj
 0001:0002db2e       ?GetRuntimeClass@COleException@@UBEPAUCRuntimeClass@@XZ 1002eb2e f   nafxcw:olemisc.obj
 0001:0002db34       ?LoadStringA@?$CStringT@_WV?$StrTraitMFC@_WV?$ChTraitsCRT@_W@ATL@@@@@ATL@@QAEHI@Z 1002eb34 f i nafxcw:olemisc.obj
 0001:0002db56       ?LoadStringA@?$CStringT@_WV?$StrTraitMFC@_WV?$ChTraitsCRT@_W@ATL@@@@@ATL@@QAEHPAUHINSTANCE__@@I@Z 1002eb56 f i nafxcw:olemisc.obj
 0001:0002dba0       ?PrepareWrite2@?$CSimpleStringT@_W$0A@@ATL@@AAEXH@Z 1002eba0 f i nafxcw:olemisc.obj
 0001:0002dbf7       ?PrepareWrite@?$CSimpleStringT@_W$0A@@ATL@@AAEPA_WH@Z 1002ebf7 f i nafxcw:olemisc.obj
 0001:0002dc33       ?Process@COleException@@SGJPBVCException@@@Z 1002ec33 f   nafxcw:olemisc.obj
 0001:0002dc85       ?Reallocate@?$CSimpleStringT@_W$0A@@ATL@@AAEXH@Z 1002ec85 f i nafxcw:olemisc.obj
 0001:0002dccb       ?SetLength@?$CSimpleStringT@_W$0A@@ATL@@AAEXH@Z 1002eccb f i nafxcw:olemisc.obj
 0001:0002dcf6       ?SetString@?$CSimpleStringT@D$0A@@ATL@@QAEXPBDH@Z 1002ecf6 f i nafxcw:olemisc.obj
 0001:0002dd69       ?_AfxCopyGlobalMemory@@YGPAXPAX0@Z 1002ed69 f   nafxcw:olemisc.obj
 0001:0002dde8       ?_AfxCopyStgMedium@@YGHGPAUtagSTGMEDIUM@@0@Z 1002ede8 f   nafxcw:olemisc.obj
 0001:0002e0c7       ?_AfxFillFormatEtc@@YGPAUtagFORMATETC@@PAU1@G0@Z 1002f0c7 f   nafxcw:olemisc.obj
 0001:0002e105       ?_AfxOleCopyFormatEtc@@YGXPAUtagFORMATETC@@0@Z 1002f105 f   nafxcw:olemisc.obj
 0001:0002e139       ?_AfxOleCopyTargetDevice@@YGPAUtagDVTARGETDEVICE@@PAU1@@Z 1002f139 f   nafxcw:olemisc.obj
 0001:0002e16d       ?_AtlVerifyStackAvailable@_ATL_SAFE_ALLOCA_IMPL@ATL@@YA_NK@Z 1002f16d f i nafxcw:olemisc.obj
 0001:0002e1eb       ?wmemcpy_s@Checked@ATL@@YAXPA_WIPB_WI@Z 1002f1eb f i nafxcw:olemisc.obj
 0001:0002e20a       ?AfxCriticalInit@@YGHXZ    1002f20a f   nafxcw:afxcrit.obj
 0001:0002e22e       ?AfxLockGlobals@@YGXH@Z    1002f22e f   nafxcw:afxcrit.obj
 0001:0002e2a2       ?AfxUnlockGlobals@@YGXH@Z  1002f2a2 f   nafxcw:afxcrit.obj
 0001:0002e2c6       ??$?5DV?$StrTraitMFC@DV?$ChTraitsCRT@D@ATL@@@@@CArchive@@QAEAAV0@AAV?$CStringT@DV?$StrTraitMFC@DV?$ChTraitsCRT@D@ATL@@@@@ATL@@@Z 1002f2c6 f i nafxcw:strcore.obj
 0001:0002e41c       ??$?6DV?$StrTraitMFC@DV?$ChTraitsCRT@D@ATL@@@@@CArchive@@QAEAAV0@ABV?$CStringT@DV?$StrTraitMFC@DV?$ChTraitsCRT@D@ATL@@@@@ATL@@@Z 1002f41c f i nafxcw:strcore.obj
 0001:0002e448       ??$HashKey@PBD@@YGIPBD@Z   1002f448 f   nafxcw:strcore.obj
 0001:0002e4a3       ??$SerializeElements@V?$CStringT@DV?$StrTraitMFC@DV?$ChTraitsCRT@D@ATL@@@@@ATL@@@@YGXAAVCArchive@@PAV?$CStringT@DV?$StrTraitMFC@DV?$ChTraitsCRT@D@ATL@@@@@ATL@@H@Z 1002f4a3 f   nafxcw:strcore.obj
 0001:0002e4a8       ??$SerializeElementsInsertExtract@V?$CStringT@DV?$StrTraitMFC@DV?$ChTraitsCRT@D@ATL@@@@@ATL@@@@YGXAAVCArchive@@PAV?$CStringT@DV?$StrTraitMFC@DV?$ChTraitsCRT@D@ATL@@@@@ATL@@H@Z 1002f4a8 f i nafxcw:strcore.obj
 0001:0002e4f7       ??0?$CSimpleStringT@D$0A@@ATL@@QAE@PBDHPAUIAtlStringMgr@1@@Z 1002f4f7 f i nafxcw:strcore.obj
 0001:0002e567       ??0?$CStringT@DV?$StrTraitMFC@DV?$ChTraitsCRT@D@ATL@@@@@ATL@@QAE@PB_WH@Z 1002f567 f i nafxcw:strcore.obj
 0001:0002e5d6       ??1?$CTempBuffer@_W$0IA@VCCRTAllocator@ATL@@@ATL@@QAE@XZ 1002f5d6 f i nafxcw:strcore.obj
 0001:0002e5d6       ??1?$CTempBuffer@D$0IA@VCCRTAllocator@ATL@@@ATL@@QAE@XZ 1002f5d6 f i nafxcw:strcore.obj
 0001:0002e5e2       ??4?$CSimpleStringT@D$0A@@ATL@@QAEAAV01@ABV01@@Z 1002f5e2 f i nafxcw:strcore.obj
 0001:0002e632       ??4?$CSimpleStringT@_W$0A@@ATL@@QAEAAV01@ABV01@@Z 1002f632 f i nafxcw:strcore.obj
 0001:0002e682       ?AfxGetStringManager@@YGPAUIAtlStringMgr@ATL@@XZ 1002f682 f   nafxcw:strcore.obj
 0001:0002e688       ?Allocate@?$CTempBuffer@D$0IA@VCCRTAllocator@ATL@@@ATL@@QAEPADI@Z 1002f688 f i nafxcw:strcore.obj
 0001:0002e6b7       ?Allocate@?$CTempBuffer@_W$0IA@VCCRTAllocator@ATL@@@ATL@@QAEPA_WI@Z 1002f6b7 f i nafxcw:strcore.obj
 0001:0002e6e6       ?Allocate@CAfxStringMgr@@UAEPAUCStringData@ATL@@HH@Z 1002f6e6 f   nafxcw:strcore.obj
 0001:0002e723       ?AllocateHeap@?$CTempBuffer@_W$0IA@VCCRTAllocator@ATL@@@ATL@@AAEXI@Z 1002f723 f i nafxcw:strcore.obj
 0001:0002e723       ?AllocateHeap@?$CTempBuffer@D$0IA@VCCRTAllocator@ATL@@@ATL@@AAEXI@Z 1002f723 f i nafxcw:strcore.obj
 0001:0002e748       ?GetActiveFrame@CFrameWnd@@UAEPAV1@XZ 1002f748 f   nafxcw:winfrm.obj
 0001:0002e748       ?GetReBarCtrl@CMFCReBar@@QBEAAVCReBarCtrl@@XZ 1002f748 f   nafxcw:afxrebar.obj
 0001:0002e748       ?Clone@CAfxStringMgr@@UAEPAUIAtlStringMgr@ATL@@XZ 1002f748 f   nafxcw:strcore.obj
 0001:0002e74b       ?CloneData@?$CSimpleStringT@D$0A@@ATL@@CAPAUCStringData@2@PAU32@@Z 1002f74b f i nafxcw:strcore.obj
 0001:0002e7c0       ?CloneData@?$CSimpleStringT@_W$0A@@ATL@@CAPAUCStringData@2@PAU32@@Z 1002f7c0 f i nafxcw:strcore.obj
 0001:0002e835       ?CopyCharsOverlapped@?$CSimpleStringT@_W$0A@@ATL@@SAXPA_WIPB_WH@Z 1002f835 f i nafxcw:strcore.obj
 0001:0002e886       ?Free@CMemFile@@MAEXPAE@Z  1002f886 f   nafxcw:filemem.obj
 0001:0002e886       ?Free@CAfxStringMgr@@UAEXPAUCStringData@ATL@@@Z 1002f886 f   nafxcw:strcore.obj
 0001:0002e896       ?FreeHeap@?$CTempBuffer@D$0IA@VCCRTAllocator@ATL@@@ATL@@AAEXXZ 1002f896 f i nafxcw:strcore.obj
 0001:0002e896       ?FreeHeap@?$CTempBuffer@_W$0IA@VCCRTAllocator@ATL@@@ATL@@AAEXXZ 1002f896 f i nafxcw:strcore.obj
 0001:0002e89f       ?GetNilString@CAfxStringMgr@@UAEPAUCStringData@ATL@@XZ 1002f89f f   nafxcw:strcore.obj
 0001:0002e8a7       ?Reallocate@CAfxStringMgr@@UAEPAUCStringData@ATL@@PAU23@HH@Z 1002f8a7 f   nafxcw:strcore.obj
 0001:0002e8d7       ?SetString@?$CSimpleStringT@_W$0A@@ATL@@QAEXPB_WH@Z 1002f8d7 f i nafxcw:strcore.obj
 0001:0002e94d       ??0CPtrList@@QAE@H@Z       1002f94d f   nafxcw:list_p.obj
 0001:0002e973       ??1CPtrList@@UAE@XZ        1002f973 f   nafxcw:list_p.obj
 0001:0002e9ad       ??_GCPtrList@@UAEPAXI@Z    1002f9ad f i nafxcw:list_p.obj
 0001:0002e9ad       ??_ECPtrList@@UAEPAXI@Z    1002f9ad f i nafxcw:list_p.obj
 0001:0002ea11       ?AddTail@CPtrList@@QAEPAU__POSITION@@PAX@Z 1002fa11 f   nafxcw:list_p.obj
 0001:0002ea11       ?AddTail@CObList@@QAEPAU__POSITION@@PAVCObject@@@Z 1002fa11 f   nafxcw:list_o.obj
 0001:0002ea3d       ?Find@CObList@@QBEPAU__POSITION@@PAVCObject@@PAU2@@Z 1002fa3d f   nafxcw:list_o.obj
 0001:0002ea3d       ?Find@CPtrList@@QBEPAU__POSITION@@PAXPAU2@@Z 1002fa3d f   nafxcw:list_p.obj
 0001:0002ea64       ?FreeNode@CObList@@IAEXPAUCNode@1@@Z 1002fa64 f   nafxcw:list_o.obj
 0001:0002ea64       ?FreeNode@CPtrList@@IAEXPAUCNode@1@@Z 1002fa64 f   nafxcw:list_p.obj
 0001:0002ea8b       ?GetNext@CStringList@@QBEABV?$CStringT@DV?$StrTraitMFC@DV?$ChTraitsCRT@D@ATL@@@@@ATL@@AAPAU__POSITION@@@Z 1002fa8b f i nafxcw:afxtoolbarcomboboxbutton.obj
 0001:0002ea8b       ?GetNext@CPtrList@@QAEAAPAXAAPAU__POSITION@@@Z 1002fa8b f i nafxcw:list_p.obj
 0001:0002ea8b       ?GetNext@CStringList@@QAEAAV?$CStringT@DV?$StrTraitMFC@DV?$ChTraitsCRT@D@ATL@@@@@ATL@@AAPAU__POSITION@@@Z 1002fa8b f i nafxcw:afxpropertygridctrl.obj
 0001:0002ea8b       ?GetNext@CObList@@QAEAAPAVCObject@@AAPAU__POSITION@@@Z 1002fa8b f i nafxcw:afxrendertarget.obj
 0001:0002eaa8       ?GetRuntimeClass@CPtrList@@UBEPAUCRuntimeClass@@XZ 1002faa8 f   nafxcw:list_p.obj
 0001:0002eaae       ?NewNode@CPtrList@@IAEPAUCNode@1@PAU21@0@Z 1002faae f   nafxcw:list_p.obj
 0001:0002eaae       ?NewNode@CObList@@IAEPAUCNode@1@PAU21@0@Z 1002faae f   nafxcw:list_o.obj
 0001:0002eb07       ?RemoveAll@CPtrList@@QAEXXZ 1002fb07 f   nafxcw:list_p.obj
 0001:0002eb07       ?RemoveAll@CObList@@QAEXXZ 1002fb07 f   nafxcw:list_o.obj
 0001:0002eb27       ?RemoveAt@CPtrList@@QAEXPAU__POSITION@@@Z 1002fb27 f   nafxcw:list_p.obj
 0001:0002eb27       ?RemoveAt@CObList@@QAEXPAU__POSITION@@@Z 1002fb27 f   nafxcw:list_o.obj
 0001:0002eb6a       ?RemoveHead@CPtrList@@QAEPAXXZ 1002fb6a f   nafxcw:list_p.obj
 0001:0002eb6a       ?RemoveHead@CObList@@QAEPAVCObject@@XZ 1002fb6a f   nafxcw:list_o.obj
 0001:0002eb9c       ??$HashKey@PAUHWND__@@@@YGIPAUHWND__@@@Z 1002fb9c f i nafxcw:afxvisualmanageroffice2007.obj
 0001:0002eb9c       ??$HashKey@I@@YGII@Z       1002fb9c f i nafxcw:afxtoolbarimages.obj
 0001:0002eb9c       ??$HashKey@PAVCWnd@@@@YGIPAVCWnd@@@Z 1002fb9c f i nafxcw:afxmdiclientareawnd.obj
 0001:0002eb9c       ??$HashKey@PAUHICON__@@@@YGIPAUHICON__@@@Z 1002fb9c f i nafxcw:afxbasetabctrl.obj
 0001:0002eb9c       ??$HashKey@K@@YGIK@Z       1002fb9c f i nafxcw:map_pp.obj
 0001:0002eb9c       ??$HashKey@H@@YGIH@Z       1002fb9c f i nafxcw:afxvslistbox.obj
 0001:0002ebca       ??0CMapPtrToPtr@@QAE@H@Z   1002fbca f   nafxcw:map_pp.obj
 0001:0002ebfb       ??1CMapPtrToPtr@@UAE@XZ    1002fbfb f   nafxcw:map_pp.obj
 0001:0002ec35       ??ACMapPtrToPtr@@QAEAAPAXPAX@Z 1002fc35 f   nafxcw:map_pp.obj
 0001:0002ec8c       ??_ECMapPtrToPtr@@UAEPAXI@Z 1002fc8c f i nafxcw:map_pp.obj
 0001:0002ec8c       ??_GCMapPtrToPtr@@UAEPAXI@Z 1002fc8c f i nafxcw:map_pp.obj
 0001:0002ecf0       ?FreeAssoc@CMapPtrToPtr@@IAEXPAUCAssoc@1@@Z 1002fcf0 f   nafxcw:map_pp.obj
 0001:0002ed0d       ?GetAssocAt@CMapPtrToPtr@@IBEPAUCAssoc@1@PAXAAI1@Z 1002fd0d f   nafxcw:map_pp.obj
 0001:0002ed4b       ?GetNextAssoc@CMapPtrToPtr@@QBEXAAPAU__POSITION@@AAPAX1@Z 1002fd4b f   nafxcw:map_pp.obj
 0001:0002edcc       ?GetRuntimeClass@CMapPtrToPtr@@UBEPAUCRuntimeClass@@XZ 1002fdcc f   nafxcw:map_pp.obj
 0001:0002edd2       ?GetValueAt@CMapPtrToPtr@@QBEPAXPAX@Z 1002fdd2 f   nafxcw:map_pp.obj
 0001:0002ee17       ?InitHashTable@CMapStringToPtr@@QAEXIH@Z 1002fe17 f   nafxcw:map_sp.obj
 0001:0002ee17       ?InitHashTable@CMapPtrToPtr@@QAEXIH@Z 1002fe17 f   nafxcw:map_pp.obj
 0001:0002ee17       ?InitHashTable@CMapWordToOb@@QAEXIH@Z 1002fe17 f   nafxcw:map_wo.obj
 0001:0002ee74       ?Lookup@CMapPtrToPtr@@QBEHPAXAAPAX@Z 1002fe74 f   nafxcw:map_pp.obj
 0001:0002ee9c       ?NewAssoc@CMapPtrToPtr@@IAEPAUCAssoc@1@XZ 1002fe9c f   nafxcw:map_pp.obj
 0001:0002eee8       ?RemoveAll@CMapWordToOb@@QAEXXZ 1002fee8 f   nafxcw:map_wo.obj
 0001:0002eee8       ?RemoveAll@CMapPtrToPtr@@QAEXXZ 1002fee8 f   nafxcw:map_pp.obj
 0001:0002ef13       ?RemoveKey@CMapPtrToPtr@@QAEHPAX@Z 1002ff13 f   nafxcw:map_pp.obj
 0001:0002ef5e       ??$AtlAddThrow@H@ATL@@YAHHH@Z 1002ff5e f i nafxcw:appterm.obj
 0001:0002ef84       ?GetManager@?$CSimpleStringT@D$0A@@ATL@@QBEPAUIAtlStringMgr@2@XZ 1002ff84 f i nafxcw:appterm.obj
 0001:0002efa7       ?GetManager@?$CStringT@DV?$StrTraitMFC@DV?$ChTraitsCRT@D@ATL@@@@@ATL@@QBEPAUIAtlStringMgr@2@XZ 1002ffa7 f i nafxcw:appterm.obj
 0001:0002efcd       ?Mid@?$CStringT@DV?$StrTraitMFC@DV?$ChTraitsCRT@D@ATL@@@@@ATL@@QBE?AV12@HH@Z 1002ffcd f i nafxcw:appterm.obj
 0001:0002f04e       ??8CPoint@@QBEHUtagPOINT@@@Z 1003004e f i nafxcw:thrdcore.obj
 0001:0002f04e       ??8CSize@@QBEHUtagSIZE@@@Z 1003004e f i nafxcw:afxtoolbarimages.obj
 0001:0002f06b       ?AfxGetCurrentMessage@@YGPAUtagMSG@@XZ 1003006b f   nafxcw:thrdcore.obj
 0001:0002f074       ?AfxGetThread@@YGPAVCWinThread@@XZ 10030074 f   nafxcw:thrdcore.obj
 0001:0002f07d       ?AfxInternalIsIdleMessage@@YAHPAUtagMSG@@@Z 1003007d f   nafxcw:thrdcore.obj
 0001:0002f0eb       ?AfxInternalPreTranslateMessage@@YAHPAUtagMSG@@@Z 100300eb f   nafxcw:thrdcore.obj
 0001:0002f162       ?AfxInternalProcessWndProcException@@YGJPAVCException@@PBUtagMSG@@@Z 10030162 f   nafxcw:thrdcore.obj
 0001:0002f189       ?AfxInternalPumpMessage@@YGHXZ 10030189 f   nafxcw:thrdcore.obj
 0001:0002f1cd       ?AfxIsIdleMessage@@YAHPAUtagMSG@@@Z 100301cd f   nafxcw:thrdcore.obj
 0001:0002f1fd       ?AfxPreTranslateMessage@@YAHPAUtagMSG@@@Z 100301fd f   nafxcw:thrdcore.obj
 0001:0002f22d       ?AfxProcessWndProcException@@YGJPAVCException@@PBUtagMSG@@@Z 1003022d f   nafxcw:thrdcore.obj
 0001:0002f262       ?AfxPumpMessage@@YGHXZ     10030262 f   nafxcw:thrdcore.obj
 0001:0002f28a       ?DispatchThreadMessageEx@CWinThread@@IAEHPAUtagMSG@@@Z 1003028a f   nafxcw:thrdcore.obj
 0001:0002f332       ??HATL@@YA?AV?$CStringT@DV?$StrTraitMFC@DV?$ChTraitsCRT@D@ATL@@@@@0@PBDABV10@@Z 10030332 f i nafxcw:ctlreg.obj
 0001:0002f39a       ?AfxInvariantStrICmp@@YAHPBD0@Z 1003039a f i nafxcw:ctlreg.obj
 0001:0002f3b6       ?Close@CRegKey@ATL@@QAEJXZ 100303b6 f i nafxcw:ctlreg.obj
 0001:0002f3d0       ?Concatenate@?$CSimpleStringT@D$0A@@ATL@@KAXAAV12@PBDH1H@Z 100303d0 f i nafxcw:ctlreg.obj
 0001:0002f417       ?Create@CRegKey@ATL@@QAEJPAUHKEY__@@PBDPADKKPAU_SECURITY_ATTRIBUTES@@PAK@Z 10030417 f i nafxcw:ctlreg.obj
 0001:0002f486       ?RegCreateKeyExA@CAtlTransactionManager@ATL@@QAEJPAUHKEY__@@PBDKPADKKQAU_SECURITY_ATTRIBUTES@@PAPAU3@PAK@Z 10030486 f i nafxcw:ctlreg.obj
 0001:0002f4f6       ?RegDeleteKeyA@CAtlTransactionManager@ATL@@QAEJPAUHKEY__@@PBD@Z 100304f6 f i nafxcw:ctlreg.obj
 0001:0002f555       ?RegOpenKeyExA@CAtlTransactionManager@ATL@@QAEJPAUHKEY__@@PBDKKPAPAU3@@Z 10030555 f i nafxcw:ctlreg.obj
 0001:0002f5b9       ?ReleaseBuffer@?$CSimpleStringT@_W$0A@@ATL@@QAEXH@Z 100305b9 f i nafxcw:ctlreg.obj
 0001:0002f5e5       ?tcscpy_s@Checked@ATL@@YAXPADIPBD@Z 100305e5 f i nafxcw:ctlreg.obj
 0001:0002f601       _IsEqualGUID               10030601 f i nafxcw:ctlreg.obj
 0001:0002f61b       __vsprintf_s_l             1003061b f i nafxcw:ctlreg.obj
 0001:0002f648       _sprintf_s                 10030648 f i nafxcw:ctlreg.obj
 0001:0002f664       ?AfxBSTR2ABSTR@@YGPA_WPA_W@Z 10030664 f   nafxcw:olecnvrt.obj
 0001:0002f6c1       ?AfxBSTR2CString@@YGXPAV?$CStringT@DV?$StrTraitMFC@DV?$ChTraitsCRT@D@ATL@@@@@ATL@@PA_W@Z 100306c1 f   nafxcw:olecnvrt.obj
 0001:0002f715       ?ExternalAddRef@CCmdTarget@@QAEKXZ 10030715 f   nafxcw:oleunk.obj
 0001:0002f739       ?ExternalDisconnect@CCmdTarget@@QAEXXZ 10030739 f   nafxcw:oleunk.obj
 0001:0002f75d       ?ExternalQueryInterface@CCmdTarget@@QAEKPBXPAPAX@Z 1003075d f   nafxcw:oleunk.obj
 0001:0002f788       ?ExternalRelease@CCmdTarget@@QAEKXZ 10030788 f   nafxcw:oleunk.obj
 0001:0002f7a7       ?GetInterface@CCmdTarget@@QAEPAUIUnknown@@PBX@Z 100307a7 f   nafxcw:oleunk.obj
 0001:0002f874       ?InternalQueryInterface@CCmdTarget@@QAEKPBXPAPAX@Z 10030874 f   nafxcw:oleunk.obj
 0001:0002f8b5       ?InternalRelease@CCmdTarget@@QAEKXZ 100308b5 f   nafxcw:oleunk.obj
 0001:0002f909       ?QueryAggregates@CCmdTarget@@QAEPAUIUnknown@@PBX@Z 10030909 f   nafxcw:oleunk.obj
 0001:0002f989       ?_AfxQueryInterface@@YGPAUIUnknown@@PAU1@ABU_GUID@@@Z 10030989 f   nafxcw:oleunk.obj
 0001:0002f9b7       ?_AfxRelease@@YGKPAPAUIUnknown@@@Z 100309b7 f   nafxcw:oleunk.obj
 0001:0002f9e2       ??0AUX_DATA@@QAE@XZ        100309e2 f   nafxcw:auxdata.obj
 0001:0002fa29       ??1AUX_DATA@@QAE@XZ        10030a29 f   nafxcw:auxdata.obj
 0001:0002fb38       ?Format@?$CStringT@DV?$StrTraitMFC@DV?$ChTraitsCRT@D@ATL@@@@@ATL@@QAAXPBDZZ 10030b38 f i nafxcw:auxdata.obj
 0001:0002fb4c       ?FormatV@?$CStringT@DV?$StrTraitMFC@DV?$ChTraitsCRT@D@ATL@@@@@ATL@@QAEXPBDPAD@Z 10030b4c f i nafxcw:auxdata.obj
 0001:0002fbac       ?UpdateSysColors@AUX_DATA@@QAEXXZ 10030bac f   nafxcw:auxdata.obj
 0001:0002fbfe       ?UpdateSysMetrics@AUX_DATA@@QAEXXZ 10030bfe f   nafxcw:auxdata.obj
 0001:0002fc62       __vscprintf_l              10030c62 f i nafxcw:auxdata.obj
 0001:0002fc91       ??0CArchiveException@@QAE@HPBD@Z 10030c91 f i nafxcw:arcex.obj
 0001:0002fcec       ??_GCArchiveException@@UAEPAXI@Z 10030cec f i nafxcw:arcex.obj
 0001:0002fcec       ??_ECArchiveException@@UAEPAXI@Z 10030cec f i nafxcw:arcex.obj
 0001:0002fd28       ?AfxThrowArchiveException@@YGXHPBD@Z 10030d28 f   nafxcw:arcex.obj
 0001:0002fd6a       ?GetErrorMessage@CArchiveException@@UBEHPADIPAI@Z 10030d6a f   nafxcw:arcex.obj
 0001:0002fe36       ?GetRuntimeClass@CArchiveException@@UBEPAUCRuntimeClass@@XZ 10030e36 f   nafxcw:arcex.obj
 0001:0002fe3c       ??0CArchive@@QAE@PAVCFile@@IHPAX@Z 10030e3c f   nafxcw:arccore.obj
 0001:0002ff77       ??1CArchive@@QAE@XZ        10030f77 f   nafxcw:arccore.obj
 0001:0002ffd1       ??5CArchive@@QAEAAV0@AAE@Z 10030fd1 f i nafxcw:arccore.obj
 0001:00030019       ??5CArchive@@QAEAAV0@AAG@Z 10031019 f i nafxcw:arccore.obj
 0001:00030066       ??5CArchive@@QAEAAV0@AAK@Z 10031066 f i nafxcw:arccore.obj
 0001:00030066       ??5CArchive@@QAEAAV0@AAJ@Z 10031066 f i nafxcw:olevar.obj
 0001:000300b1       ??5CArchive@@QAEAAV0@AA_K@Z 100310b1 f i nafxcw:arccore.obj
 0001:00030100       ??6CArchive@@QAEAAV0@E@Z   10031100 f i nafxcw:arccore.obj
 0001:00030144       ??6CArchive@@QAEAAV0@G@Z   10031144 f i nafxcw:arccore.obj
 0001:0003018b       ??6CArchive@@QAEAAV0@K@Z   1003118b f i nafxcw:arccore.obj
 0001:0003018b       ??6CArchive@@QAEAAV0@J@Z   1003118b f i nafxcw:olevar.obj
 0001:000301d0       ??6CArchive@@QAEAAV0@_K@Z  100311d0 f i nafxcw:arccore.obj
 0001:0003021b       ?Abort@CArchive@@QAEXXZ    1003121b f   nafxcw:arccore.obj
 0001:000302ae       ?AfxReadStringLength@@YGIAAVCArchive@@AAH@Z 100312ae f   nafxcw:arccore.obj
 0001:00030368       ?AfxWriteStringLength@@YGXAAVCArchive@@IH@Z 10031368 f   nafxcw:arccore.obj
 0001:000303ea       ?Close@CArchive@@QAEXXZ    100313ea f   nafxcw:arccore.obj
 0001:000303f8       ?FillBuffer@CArchive@@QAEXI@Z 100313f8 f   nafxcw:arccore.obj
 0001:00030541       ?Flush@CArchive@@QAEXXZ    10031541 f   nafxcw:arccore.obj
 0001:000305ee       ?FromName@CRuntimeClass@@SGPAU1@PBD@Z 100315ee f   nafxcw:arccore.obj
 0001:0003063f       ?Load@CRuntimeClass@@SGPAU1@AAVCArchive@@PAI@Z 1003163f f   nafxcw:arccore.obj
 0001:000306c4       ?Read@CArchive@@QAEIPAXI@Z 100316c4 f   nafxcw:arccore.obj
 0001:0003086b       ?ReadCount@CArchive@@QAEKXZ 1003186b f   nafxcw:arccore.obj
 0001:0003089f       ?Store@CRuntimeClass@@QBEXAAVCArchive@@@Z 1003189f f   nafxcw:arccore.obj
 0001:000308e0       ?Write@CArchive@@QAEXPBXI@Z 100318e0 f   nafxcw:arccore.obj
 0001:000309f4       ?WriteCount@CArchive@@QAEXK@Z 100319f4 f   nafxcw:arccore.obj
 0001:00030a23       ?memmove_s@Checked@ATL@@YAXPAXIPBXI@Z 10031a23 f i nafxcw:arccore.obj
 0001:00030a74       ?AfxIsValidAddress@@YGHPBXIH@Z 10031a74 f   nafxcw:validadd.obj
 0001:00030a83       ?AfxIsValidString@@YGHPBDH@Z 10031a83 f   nafxcw:validadd.obj
 0001:00030a92       ??4COleVariant@@QAEABV0@J@Z 10031a92 f   nafxcw:olevar.obj
 0001:00030ad3       ?AfxVariantInit@@YGXPAUtagVARIANT@@@Z 10031ad3 f   nafxcw:olevar.obj
 0001:00030ae9       ?AllocSysString@?$CStringT@DV?$StrTraitMFC@DV?$ChTraitsCRT@D@ATL@@@@@ATL@@QBEPA_WXZ 10031ae9 f i nafxcw:olevar.obj
 0001:00030aff       ?AllocSysString@?$ChTraitsCRT@D@ATL@@SAPA_WPBDH@Z 10031aff f i nafxcw:olevar.obj
 0001:00030b40       ?AtlConvertSystemTimeToVariantTime@ATL@@YAHABU_SYSTEMTIME@@PAN@Z 10031b40 f i nafxcw:olevar.obj
 0001:00030bf0       ?EnsureRead@CArchive@@QAEXPAXI@Z 10031bf0 f i nafxcw:olevar.obj
 0001:00030c11       ?Format@COleDateTime@ATL@@QBE?AV?$CStringT@DV?$StrTraitMFC@DV?$ChTraitsCRT@D@ATL@@@@@2@KK@Z 10031c11 f i nafxcw:olevar.obj
 0001:00030d74       ?Create@CPlex@@SGPAU1@AAPAU1@II@Z 10031d74 f   nafxcw:plex.obj
 0001:00030da5       ?FreeDataChain@CPlex@@QAEXXZ 10031da5 f   nafxcw:plex.obj
 0001:00030dbb       ??0CCmdTarget@@QAE@XZ      10031dbb f   nafxcw:cmdtarg.obj
 0001:00030de1       ??0CCmdUI@@QAE@XZ          10031de1 f   nafxcw:cmdtarg.obj
 0001:00030e07       ??1CCmdTarget@@UAE@XZ      10031e07 f   nafxcw:cmdtarg.obj
 0001:00030e58       ?BeginWaitCursor@CCmdTarget@@QAEXXZ 10031e58 f   nafxcw:cmdtarg.obj
 0001:00030e7b       ?DoUpdate@CCmdUI@@QAEHPAVCCmdTarget@@H@Z 10031e7b f   nafxcw:cmdtarg.obj
 0001:00030f0d       ?Enable@CCmdUI@@UAEXH@Z    10031f0d f   nafxcw:cmdtarg.obj
 0001:00030f9d       ?EndWaitCursor@CCmdTarget@@QAEXXZ 10031f9d f   nafxcw:cmdtarg.obj
 0001:00030fc0       ?GetCommandMap@CCmdTarget@@MBEPBUAFX_OLECMDMAP@@XZ 10031fc0 f   nafxcw:cmdtarg.obj
 0001:00030fc6       ?IsSelected@CView@@UBEHPBVCObject@@@Z 10031fc6 f   nafxcw:viewcore.obj
 0001:00030fc6       ?GetInterfaceHook@CCmdTarget@@UAEPAUIUnknown@@PBX@Z 10031fc6 f   nafxcw:cmdtarg.obj
 0001:00030fc6       ?OnKey@CMFCToolBar@@MAEHI@Z 10031fc6 f   nafxcw:afxpropertysheet.obj
 0001:00030fc6       ?NotifyCommand@CMFCToolBarButton@@UAEHH@Z 10031fc6 f   nafxcw:afxcolorbar.obj
 0001:00030fc6       ?OnSetAccData@CMFCBaseAccessibleObject@@UAEHJ@Z 10031fc6 f   nafxcw:afxbaseribbonelement.obj
 0001:00030fc6       ?CompareItem@CListBox@@UAEHPAUtagCOMPAREITEMSTRUCT@@@Z 10031fc6 f   nafxcw:winctrl1.obj
 0001:00030fc6       ?OnContextHelp@CMFCToolBarButton@@UAEHPAVCWnd@@@Z 10031fc6 f   nafxcw:afxcolorbar.obj
 0001:00030fc6       ?CanBeDocked@CBasePane@@UBEHPAV1@@Z 10031fc6 f   nafxcw:afxbasepane.obj
 0001:00030fc6       ?OnMenuKey@CMFCRibbonBaseElement@@UAEHI@Z 10031fc6 f   nafxcw:afxbaseribbonelement.obj
 0001:00030fc6       ?OnEraseBkgnd@CDummyDockablePane@@IAEHPAVCDC@@@Z 10031fc6 f   nafxcw:afxdragframeimpl.obj
 0001:00030fc6       ?IsToolbarRoundShape@CMFCVisualManager@@UAEHPAVCMFCToolBar@@@Z 10031fc6 f   nafxcw:afxvisualmanager.obj
 0001:00030fc6       ?CompareItem@CComboBox@@UAEHPAUtagCOMPAREITEMSTRUCT@@@Z 10031fc6 f   nafxcw:winctrl1.obj
 0001:00030fc6       ?OnShareViolation@CFileDialog@@MAEIPBD@Z 10031fc6 f   nafxcw:dlgfile.obj
 0001:00030fc6       ?GetScrollBarCtrl@CWnd@@UBEPAVCScrollBar@@H@Z 10031fc6 f   nafxcw:wincore.obj
 0001:00030fc6       ?GetDispatchIID@CCmdTarget@@UAEHPAU_GUID@@@Z 10031fc6 f   nafxcw:cmdtarg.obj
 0001:00030fc6       ?GetConnectionHook@CCmdTarget@@MAEPAUIConnectionPoint@@ABU_GUID@@@Z 10031fc6 f   nafxcw:cmdtarg.obj
 0001:00030fc6       ?GetExtraConnectionPoints@CCmdTarget@@MAEHPAVCPtrArray@@@Z 10031fc6 f   nafxcw:cmdtarg.obj
 0001:00030fc6       ?EnsureVisible@CMFCBaseTabCtrl@@UAEHH@Z 10031fc6 f   nafxcw:afxbasetabctrl.obj
 0001:00030fc6       ?OnSendCommand@CMFCToolBar@@MAEHPBVCMFCToolBarButton@@@Z 10031fc6 f   nafxcw:afxtoolbar.obj
 0001:00030fc6       ?OnCustomizeMenu@CMFCToolBarButton@@UAEHPAVCMenu@@@Z 10031fc6 f   nafxcw:afxcolorbar.obj
 0001:00030fc6       ?IsDefaultWinXPPopupButton@CMFCVisualManager@@UBEHPAVCMFCDesktopAlertWndButton@@@Z 10031fc6 f   nafxcw:afxvisualmanager.obj
 0001:00030fc6       ?TranslateChar@CMFCPopupMenuBar@@MAEHI@Z 10031fc6 f   nafxcw:afxcolorbar.obj
 0001:00030fc6       ?GetPreferedMenuLocation@CMFCRibbonPanel@@UAEHAAVCRect@@@Z 10031fc6 f   nafxcw:afxribbonpanel.obj
 0001:00030fc6       ?CanAcceptPane@CBasePane@@UBEHPBV1@@Z 10031fc6 f   nafxcw:afxpropertysheet.obj
 0001:00030fc6       ?OnEraseMDIClientBackground@CMDIFrameWndEx@@UAEHPAVCDC@@@Z 10031fc6 f   nafxcw:afxmdiframewndex.obj
 0001:00030fc6       ?OnGetCustomToolTipText@CMFCToolBarButton@@UAEHAAV?$CStringT@DV?$StrTraitMFC@DV?$ChTraitsCRT@D@ATL@@@@@ATL@@@Z 10031fc6 f   nafxcw:afxcolorbar.obj
 0001:00030fc6       ?IsAutoRepeatMode@CMFCRibbonBaseElement@@UBEHAAH@Z 10031fc6 f   nafxcw:afxbaseribbonelement.obj
 0001:00030fc6       ?ResizeByPaneDivider@CDockingPanesRow@@UAEHH@Z 10031fc6 f   nafxcw:afxdockingpanesrow.obj
 0001:00030fc6       ?IsLeftNavigationPane@CPropertySheet@@MBEHPAUHWND__@@@Z 10031fc6 f   nafxcw:dlgprop.obj
 0001:00030fc6       ?SetOccDialogInfo@CWnd@@MAEHPAU_AFX_OCC_DIALOG_INFO@@@Z 10031fc6 f   nafxcw:wincore.obj
 0001:00030fc6       ?OnProcessKey@CMFCRibbonBaseElement@@MAEHI@Z 10031fc6 f   nafxcw:afxbaseribbonelement.obj
 0001:00030fc6       ?GetTabHorzMargin@CMFCVisualManager@@UAEHPBVCMFCBaseTabCtrl@@@Z 10031fc6 f   nafxcw:afxvisualmanager.obj
 0001:00030fcb       ?GetConnectionMap@CCmdTarget@@MBEPBUAFX_CONNECTIONMAP@@XZ 10031fcb f   nafxcw:cmdtarg.obj
 0001:00030fd1       ?GetDispatchMap@CCmdTarget@@MBEPBUAFX_DISPMAP@@XZ 10031fd1 f   nafxcw:cmdtarg.obj
 0001:00030fd7       ?GetEventSinkMap@CCmdTarget@@MBEPBUAFX_EVENTSINKMAP@@XZ 10031fd7 f   nafxcw:cmdtarg.obj
 0001:00030fdd       ?GetInterfaceMap@CCmdTarget@@MBEPBUAFX_INTERFACEMAP@@XZ 10031fdd f   nafxcw:cmdtarg.obj
 0001:00030fe3       ?GetMessageMap@CCmdTarget@@MBEPBUAFX_MSGMAP@@XZ 10031fe3 f   nafxcw:cmdtarg.obj
 0001:00030fe3       ?GetThisMessageMap@CCmdTarget@@KGPBUAFX_MSGMAP@@XZ 10031fe3 f   nafxcw:cmdtarg.obj
 0001:00030fe9       ?GetRuntimeClass@CCmdTarget@@UBEPAUCRuntimeClass@@XZ 10031fe9 f   nafxcw:cmdtarg.obj
 0001:00030fef       ?GetTypeLib@CCmdTarget@@UAEJKPAPAUITypeLib@@@Z 10031fef f   nafxcw:cmdtarg.obj
 0001:00030ff7       ?OnEraseBkgnd@CMFCButton@@IAEHPAVCDC@@@Z 10031ff7 f   nafxcw:afxbutton.obj
 0001:00030ff7       ?ValidateItemData@CMFCPropertyGridCtrl@@UAEHPAVCMFCPropertyGridProperty@@@Z 10031ff7 f   nafxcw:afxpropertygridctrl.obj
 0001:00030ff7       ?OnEraseBkgnd@CMFCPopupMenu@@IAEHPAVCDC@@@Z 10031ff7 f   nafxcw:afxpopupmenu.obj
 0001:00030ff7       ?OnCloseDockingPane@COleDocIPFrameWndEx@@UAEHPAVCDockablePane@@@Z 10031ff7 f   nafxcw:afxoledocipframewndex.obj
 0001:00030ff7       ?OnEraseBkgnd@CPaneFrameWnd@@IAEHPAVCDC@@@Z 10031ff7 f   nafxcw:afxpaneframewnd.obj
 0001:00030ff7       ?OnSetAccData@CBasePane@@UAEHJ@Z 10031ff7 f   nafxcw:afxbasepane.obj
 0001:00030ff7       ?IsAutoRepeatMode@CRibbonCategoryScroll@@EBEHAAH@Z 10031ff7 f   nafxcw:afxribboncategory.obj
 0001:00030ff7       ?OnEraseBkgnd@CMFCHeaderCtrl@@IAEHPAVCDC@@@Z 10031ff7 f   nafxcw:afxheaderctrl.obj
 0001:00030ff7       ?OnEraseBkgnd@CMFCToolBar@@IAEHPAVCDC@@@Z 10031ff7 f   nafxcw:afxtoolbar.obj
 0001:00030ff7       ?OnCloseMiniFrame@CMDIFrameWndEx@@UAEHPAVCPaneFrameWnd@@@Z 10031ff7 f   nafxcw:afxmdiframewndex.obj
 0001:00030ff7       ?OnEraseBkgnd@CSmartDockingStandaloneGuideWnd@@IAEHPAVCDC@@@Z 10031ff7 f   nafxcw:afxsmartdockingguide.obj
 0001:00030ff7       ?OnEraseBkgnd@CPaneDivider@@IAEHPAVCDC@@@Z 10031ff7 f   nafxcw:afxpanedivider.obj
 0001:00030ff7       ?OnPreparePrinting@CView@@MAEHPAUCPrintInfo@@@Z 10031ff7 f   nafxcw:viewcore.obj
 0001:00030ff7       ?CanBeDropped@CMFCToolBarButton@@UAEHPAVCMFCToolBar@@@Z 10031ff7 f   nafxcw:afxcolorbar.obj
 0001:00030ff7       ?OnBeforeShowPaneMenu@CPane@@MAEHAAVCMenu@@@Z 10031ff7 f   nafxcw:afxpropertysheet.obj
 0001:00030ff7       ?OnEraseBkgnd@CMFCPropertyGridCtrl@@IAEHPAVCDC@@@Z 10031ff7 f   nafxcw:afxpropertygridctrl.obj
 0001:00030ff7       ?OnCloseDockingPane@COleIPFrameWndEx@@UAEHPAVCDockablePane@@@Z 10031ff7 f   nafxcw:afxoleipframewndex.obj
 0001:00030ff7       ?OnCloseMiniFrame@COleIPFrameWndEx@@UAEHPAVCPaneFrameWnd@@@Z 10031ff7 f   nafxcw:afxoleipframewndex.obj
 0001:00030ff7       ?OnBeforeAnimation@CMFCOutlookBar@@UAEHH@Z 10031ff7 f   nafxcw:afxoutlookbar.obj
 0001:00030ff7       ?OnEraseBkgnd@CScreenWnd@@IAEHPAVCDC@@@Z 10031ff7 f   nafxcw:afxcolordialog.obj
 0001:00030ff7       ?OnCloseMiniFrame@COleDocIPFrameWndEx@@UAEHPAVCPaneFrameWnd@@@Z 10031ff7 f   nafxcw:afxoledocipframewndex.obj
 0001:00030ff7       ?OnEraseBkgnd@CSmartDockingHighlighterWnd@@IAEHPAVCDC@@@Z 10031ff7 f   nafxcw:afxsmartdockinghighlighterwnd.obj
 0001:00030ff7       ?OnEraseBkgnd@CMFCTasksPane@@IAEHPAVCDC@@@Z 10031ff7 f   nafxcw:afxtaskspane.obj
 0001:00030ff7       ?OnEraseBkgnd@CBasePane@@IAEHPAVCDC@@@Z 10031ff7 f   nafxcw:afxbasepane.obj
 0001:00030ff7       ?OnRemoveKey@CMFCToolBarsCustomizeDialog@@MAEHPAUtagACCEL@@@Z 10031ff7 f   nafxcw:afxtoolbarscustomizedialog.obj
 0001:00030ff7       ?OnBeforeRemoveItem@CVSListBoxBase@@UAEHH@Z 10031ff7 f   nafxcw:afxvslistbox.obj
 0001:00030ff7       ?OnAfterShowPaneMenu@CPane@@MAEHH@Z 10031ff7 f   nafxcw:afxpropertysheet.obj
 0001:00030ff7       ?OnEraseBkgnd@CMFCOutlookBarTabCtrl@@IAEHPAVCDC@@@Z 10031ff7 f   nafxcw:afxoutlookbartabctrl.obj
 0001:00030ff7       ?OnEraseBkgnd@CMFCRibbonKeyTip@@IAEHPAVCDC@@@Z 10031ff7 f   nafxcw:afxribbonkeytip.obj
 0001:00030ff7       ?OnEraseBkgnd@CMDIChildWndEx@@IAEHPAVCDC@@@Z 10031ff7 f   nafxcw:afxmdichildwndex.obj
 0001:00030ff7       ?OnAssignKey@CMFCToolBarsCustomizeDialog@@MAEHPAUtagACCEL@@@Z 10031ff7 f   nafxcw:afxtoolbarscustomizedialog.obj
 0001:00030ff7       ?OnEraseBkgnd@CMFCPropertyGridToolTipCtrl@@IAEHPAVCDC@@@Z 10031ff7 f   nafxcw:afxpropertygridtooltipctrl.obj
 0001:00030ff7       ?IsInvokeAllowed@CCmdTarget@@UAEHJ@Z 10031ff7 f   nafxcw:cmdtarg.obj
 0001:00030ff7       ?OnCloseMiniFrame@CFrameWndEx@@UAEHPAVCPaneFrameWnd@@@Z 10031ff7 f   nafxcw:afxframewndex.obj
 0001:00030ff7       ?OnEraseBkgnd@CMFCSpinButtonCtrl@@IAEHPAVCDC@@@Z 10031ff7 f   nafxcw:afxspinbuttonctrl.obj
 0001:00030ff7       ?OnEraseBkgnd@CSmartDockingGroupGuidesWnd@@QAEHPAVCDC@@@Z 10031ff7 f   nafxcw:afxsmartdockingguide.obj
 0001:00030ff7       ?CheckToolsValidity@CMFCToolBarsCustomizeDialog@@MAEHABVCObList@@@Z 10031ff7 f   nafxcw:afxtoolbarscustomizedialog.obj
 0001:00030ff7       ?OnCloseDockingPane@CMDIFrameWndEx@@UAEHPAVCDockablePane@@@Z 10031ff7 f   nafxcw:afxmdiframewndex.obj
 0001:00030ff7       ?OnEraseBkgnd@CPaneTrackingWnd@@IAEHPAVCDC@@@Z 10031ff7 f   nafxcw:afxpanedivider.obj
 0001:00030ff7       ?OnEraseBkgnd@CVSListBoxBase@@IAEHPAVCDC@@@Z 10031ff7 f   nafxcw:afxvslistbox.obj
 0001:00030ff7       ?UpdateInternalImage@CMFCToolBarImages@@IAEHH@Z 10031ff7 f   nafxcw:afxtoolbarimages.obj
 0001:00030ff7       ?OnEraseBkgnd@CMFCOutlookBarPane@@IAEHPAVCDC@@@Z 10031ff7 f   nafxcw:afxoutlookbarpane.obj
 0001:00030ff7       ?OnShowPopupMenu@COleDocIPFrameWndEx@@UAEHPAVCMFCPopupMenu@@@Z 10031ff7 f   nafxcw:afxoledocipframewndex.obj
 0001:00030ff7       ?OnBeforeDrop@CMFCToolBarButton@@UAEHPAVCMFCToolBar@@@Z 10031ff7 f   nafxcw:afxcolorbar.obj
 0001:00030ff7       ?OnShowPopupMenu@COleIPFrameWndEx@@UAEHPAVCMFCPopupMenu@@@Z 10031ff7 f   nafxcw:afxoleipframewndex.obj
 0001:00030ff7       ?OnEraseBkgnd@CMFCColorPickerCtrl@@IAEHPAVCDC@@@Z 10031ff7 f   nafxcw:afxcolorpickerctrl.obj
 0001:00030ff7       ?OnEraseBkgnd@CBaseTabbedPane@@IAEHPAVCDC@@@Z 10031ff7 f   nafxcw:afxbasetabbedpane.obj
 0001:00030ff7       ?OnCloseDockingPane@CFrameWndEx@@UAEHPAVCDockablePane@@@Z 10031ff7 f   nafxcw:afxframewndex.obj
 0001:00030ff7       ?OnEraseBkgnd@CMFCCaptionBar@@IAEHPAVCDC@@@Z 10031ff7 f   nafxcw:afxcaptionbar.obj
 0001:00030ff7       ?OnEraseBkgnd@CMFCImagePaintArea@@IAEHPAVCDC@@@Z 10031ff7 f   nafxcw:afximagepaintarea.obj
 0001:00030ff7       ?OnEraseBkgnd@CMFCShadowWnd@@IAEHPAVCDC@@@Z 10031ff7 f   nafxcw:afxpopupmenu.obj
 0001:00030ffd       ?OnCmdMsg@CCmdTarget@@UAEHIHPAXPAUAFX_CMDHANDLERINFO@@@Z 10031ffd f   nafxcw:cmdtarg.obj
 0001:000312ad       ?IsHighlightOneNoteTabs@CMFCVisualManagerOffice2003@@UBEHXZ 100322ad f   nafxcw:afxvisualmanageroffice2007.obj
 0001:000312ad       ?CheckAutoCenter@CWnd@@UAEHXZ 100322ad f   nafxcw:wincore.obj
 0001:000312ad       ?CheckTabbedBarAlignment@CTabbedPane@@MAEHXZ 100322ad f   nafxcw:afxtabbedpane.obj
 0001:000312ad       ?IsDockBar@CDockBar@@UBEHXZ 100322ad f   nafxcw:bardock.obj
 0001:000312ad       ?Is32BitTransparencySupported@CMFCToolBarImages@@SGHXZ 100322ad f   nafxcw:afxtoolbarimages.obj
 0001:000312ad       ?IsPopupDefaultMenuLook@CMFCRibbonButton@@UBEHXZ 100322ad f   nafxcw:afxribbonbutton.obj
 0001:000312ad       ?IsFixedSize@CMFCRibbonMainPanel@@MBEHXZ 100322ad f   nafxcw:afxribbonmainpanel.obj
 0001:000312ad       ?IsEmptyMenuAllowed@CMFCColorMenuButton@@MBEHXZ 100322ad f   nafxcw:afxcolormenubutton.obj
 0001:000312ad       ?OnGetDlgCode@CMFCToolBarButtonsListButton@@IAEIXZ 100322ad f   nafxcw:afxtoolbarbuttonslistbutton.obj
 0001:000312ad       ?IsResizable@CDockablePane@@UBEHXZ 100322ad f   nafxcw:afxoutlookbar.obj
 0001:000312ad       ?CanBeAddedToQuickAccessToolBar@CMFCRibbonGalleryIcon@@MBEHXZ 100322ad f   nafxcw:afxribbonpalettegallery.obj
 0001:000312ad       ?HasCompactMode@CMFCRibbonEdit@@UBEHXZ 100322ad f   nafxcw:afxribbonedit.obj
 0001:000312ad       ?CanShowOnWindowsList@CMDIChildWndEx@@UAEHXZ 100322ad f   nafxcw:afxmdichildwndex.obj
 0001:000312ad       ?HasMenu@CMFCRibbonColorButton@@MBEHXZ 100322ad f   nafxcw:afxribboncolorbutton.obj
 0001:000312ad       ?CanBeAddedToQuickAccessToolBar@CMFCRibbonDefaultPanelButton@@UBEHXZ 100322ad f   nafxcw:afxribbonpanel.obj
 0001:000312ad       ?AllowDestroyEmptyTabbedPane@CBaseTabbedPane@@UBEHXZ 100322ad f   nafxcw:afxbasetabbedpane.obj
 0001:000312ad       ?CanBeStretched@CMFCToolBarEditBoxButton@@UBEHXZ 100322ad f   nafxcw:afxtoolbareditboxbutton.obj
 0001:000312ad       ?IsTabLocationBottom@CDockablePane@@UBEHXZ 100322ad f   nafxcw:afxoutlookbar.obj
 0001:000312ad       ?CanBeStretched@CMFCRibbonBaseElement@@UAEHXZ 100322ad f   nafxcw:afxbaseribbonelement.obj
 0001:000312ad       ?CanAddPageToDynamicLayout@CPropertySheet@@MBEHXZ 100322ad f   nafxcw:dlgprop.obj
 0001:000312ad       ?GetDockingMode@CMFCBaseToolBar@@UBE?AW4AFX_DOCK_TYPE@@XZ 100322ad f   nafxcw:afxpropertysheet.obj
 0001:000312ad       ?HasAutoHideMode@CDockablePane@@UBEHXZ 100322ad f   nafxcw:afxdockablepaneadapter.obj
 0001:000312ad       __get_startup_argv_mode    100322ad f   libcmt:argv_mode.obj
 0001:000312ad       ?IsDockingTabHasBorder@CMFCVisualManager@@UAEHXZ 100322ad f   nafxcw:afxvisualmanager.obj
 0001:000312ad       ?CanBeAttached@CMFCOutlookBarPane@@UBEHXZ 100322ad f   nafxcw:afxpropertysheet.obj
 0001:000312ad       ?IsAccessibilityCompatible@CMFCTasksPane@@UAEHXZ 100322ad f   nafxcw:afxtaskspane.obj
 0001:000312ad       ?AllowDestroyEmptyTabbedPane@CMFCTabCtrl@@UBEHXZ 100322ad f   nafxcw:afxpropertysheet.obj
 0001:000312ad       ?IsButtonExtraSizeAvailable@CMFCToolBar@@UBEHXZ 100322ad f   nafxcw:afxpropertysheet.obj
 0001:000312ad       ?IsCaptionButton@CMFCRibbonCaptionButton@@MBEHXZ 100322ad f   nafxcw:afxribbonbar.obj
 0001:000312ad       ?IsOffsetPressedButton@CMFCVisualManager@@UBEHXZ 100322ad f   nafxcw:afxvisualmanager.obj
 0001:000312ad       ?Create@CDockingPanesRow@@UAEHXZ 100322ad f   nafxcw:afxdockingpanesrow.obj
 0001:000312ad       ?AllowShowOnList@CMFCToolBar@@MBEHXZ 100322ad f   nafxcw:afxtoolbar.obj
 0001:000312ad       ?HasIntermediateMode@CMFCRibbonBaseElement@@UBEHXZ 100322ad f   nafxcw:afxbaseribbonelement.obj
 0001:000312ad       ?IsFrameWnd@CFrameWnd@@UBEHXZ 100322ad f   nafxcw:wincore.obj
 0001:000312ad       ?CanBeRestored@CMFCMenuBar@@UBEHXZ 100322ad f   nafxcw:afxmenubar.obj
 0001:000312ad       ?GetPopupMenuGap@CMFCVisualManager@@UBEHXZ 100322ad f   nafxcw:afxvisualmanager.obj
 0001:000312ad       ?HasMenu@CMFCRibbonQuickAccessCustomizeButton@@UBEHXZ 100322ad f   nafxcw:afxribbonquickaccesstoolbar.obj
 0001:000312ad       ?HasMenu@CMFCRibbonUndoButton@@UBEHXZ 100322ad f   nafxcw:afxribbonundobutton.obj
 0001:000312ad       ?HideInPrintPreviewMode@CBasePane@@UBEHXZ 100322ad f   nafxcw:afxpropertysheet.obj
 0001:000312ad       ?OnGetDlgCode@CMFCColorButton@@IAEIXZ 100322ad f   nafxcw:afxcolorbutton.obj
 0001:000312ad       ?OnQueryCancel@CPropertyPage@@UAEHXZ 100322ad f   nafxcw:dlgprop.obj
 0001:000312ad       ?AllowChangeTextLabels@CMFCToolBar@@UBEHXZ 100322ad f   nafxcw:afxpropertysheet.obj
 0001:000312ad       ?OnGetDlgCode@CMFCColorPickerCtrl@@IAEIXZ 100322ad f   nafxcw:afxcolorpickerctrl.obj
 0001:000312ad       ?IsSeparator@CMFCRibbonSeparator@@MBEHXZ 100322ad f   nafxcw:afxbaseribbonelement.obj
 0001:000312ad       ?HaveHotBorder@CMFCToolBarButton@@UBEHXZ 100322ad f   nafxcw:afxcolorbar.obj
 0001:000312ad       ?IsDrawTooltipImage@CMFCRibbonButton@@UBEHXZ 100322ad f   nafxcw:afxribbonbutton.obj
 0001:000312ad       ?GetSmartDockingTheme@CMFCVisualManager@@UAE?AW4AFX_SMARTDOCK_THEME@@XZ 100322ad f   nafxcw:afxvisualmanager.obj
 0001:000312ad       ?HasAutoHideMode@CTabbedPane@@UBEHXZ 100322ad f   nafxcw:afxtabbedpane.obj
 0001:000312ad       ?IsDefaultPanelButton@CMFCRibbonDefaultPanelButton@@UBEHXZ 100322ad f   nafxcw:afxribbonpanel.obj
 0001:000312ad       ?AllowShowOnList@CMFCColorBar@@MBEHXZ 100322ad f   nafxcw:afxcolorbar.obj
 0001:000312ad       ?CanBeStretched@CMFCToolBarComboBoxButton@@UBEHXZ 100322ad f   nafxcw:afxtoolbarcomboboxbutton.obj
 0001:000312ad       ?IsAlignByColumn@CMFCRibbonBaseElement@@UBEHXZ 100322ad f   nafxcw:afxbaseribbonelement.obj
 0001:000312ad       ?OnBeforeDrag@CMFCToolBarButton@@UBEHXZ 100322ad f   nafxcw:afxcolorbar.obj
 0001:000312ad       ?DefaultMouseClickOnClose@CMFCPopupMenu@@UBEHXZ 100322ad f   nafxcw:afxcolorbutton.obj
 0001:000312ad       ?GetToolBarCustomizeButtonMargin@CMFCVisualManagerOffice2003@@UBEHXZ 100322ad f   nafxcw:afxvisualmanageroffice2007.obj
 0001:000312ad       ?IsRibbonMiniToolBar@CMFCRibbonMiniToolBar@@UBEHXZ 100322ad f   nafxcw:afxribbonminitoolbar.obj
 0001:000312ad       ?IsRibbonPanel@CMFCRibbonPanelMenuBar@@UBEHXZ 100322ad f   nafxcw:afxribbonpanelmenu.obj
 0001:000312ad       ?IsAccessibilityCompatible@CBasePane@@UAEHXZ 100322ad f   nafxcw:afxpropertysheet.obj
 0001:000312ad       ?AllowShowOnPaneMenu@CPane@@UBEHXZ 100322ad f   nafxcw:afxpane.obj
 0001:000312ad       ?IsHighlightWholeMenuItem@CMFCVisualManagerOfficeXP@@MAEHXZ 100322ad f   nafxcw:afxvisualmanageroffice2007.obj
 0001:000312ad       ?IsMainPanel@CMFCRibbonMainPanel@@MBEHXZ 100322ad f   nafxcw:afxribbonmainpanel.obj
 0001:000312ad       ?IsQuickAccessToolBar@CMFCRibbonQuickAccessToolBar@@MBEHXZ 100322ad f   nafxcw:afxribbonquickaccesstoolbar.obj
 0001:000312ad       ?IsTabStop@CMFCRibbonBaseElement@@UBEHXZ 100322ad f   nafxcw:afxbaseribbonelement.obj
 0001:000312ad       ?CanBeStored@CMFCToolBarButton@@UBEHXZ 100322ad f   nafxcw:afxcolorbar.obj
 0001:000312ad       ?OnCreateAggregates@CCmdTarget@@UAEHXZ 100322ad f   nafxcw:cmdtarg.obj
 0001:000312ad       ?CanFocus@CBasePane@@UBEHXZ 100322ad f   nafxcw:afxbasepane.obj
 0001:000312ad       ?IsEmptyMenuAllowed@CMFCCustomizeButton@@UBEHXZ 100322ad f   nafxcw:afxcustomizebutton.obj
 0001:000312ad       ?CanBeAttached@CDockablePane@@UBEHXZ 100322ad f   nafxcw:afxoutlookbar.obj
 0001:000312ad       ?OnGetDlgCode@CMFCMenuButton@@IAEIXZ 100322ad f   nafxcw:afxmenubutton.obj
 0001:000312ad       ?IsBorder@CMFCToolBarMenuButton@@UBEHXZ 100322ad f   nafxcw:afxtoolbarmenubutton.obj
 0001:000312ad       ?CanShowOnTaskBarTabs@CMDIChildWndEx@@UAEHXZ 100322ad f   nafxcw:afxmdichildwndex.obj
 0001:000312ad       ?AllowAltCustomization@CMFCToolBar@@MBEHXZ 100322ad f   nafxcw:afxpropertysheet.obj
 0001:000312ad       ?IsResizable@CBasePane@@UBEHXZ 100322ad f   nafxcw:afxbasepane.obj
 0001:000312b1       ?OnFinalRelease@CCmdTarget@@UAEXXZ 100322b1 f   nafxcw:cmdtarg.obj
 0001:000312f5       ?SetCheck@CCmdUI@@UAEXH@Z  100322f5 f   nafxcw:cmdtarg.obj
 0001:0003136d       ?SetRadio@CCmdUI@@UAEXH@Z  1003236d f   nafxcw:cmdtarg.obj
 0001:000313db       ?SetText@CCmdUI@@UAEXPBD@Z 100323db f   nafxcw:cmdtarg.obj
 0001:0003143c       ?_AfxLoadDotBitmap@@YGXXZ  1003243c f   nafxcw:cmdtarg.obj
 0001:0003157f       ??$AccessibilityCreateInstance@VCAccessibleProxy@ATL@@@@YGJPAPAV?$CComObjectNoLock@VCAccessibleProxy@ATL@@@ATL@@@Z 1003257f f i nafxcw:wincore.obj
 0001:00031603       ??0CTestCmdUI@@QAE@XZ      10032603 f   nafxcw:wincore.obj
 0001:0003161c       ??0CWnd@@AAE@PAUHWND__@@@Z 1003261c f   nafxcw:wincore.obj
 0001:00031692       ??0CWnd@@QAE@XZ            10032692 f   nafxcw:wincore.obj
 0001:000316ae       ??1?$CComObjectNoLock@VCAccessibleProxy@ATL@@@ATL@@UAE@XZ 100326ae f i nafxcw:wincore.obj
 0001:000316fd       ??1?$CComQIPtr@UITaskbarList4@@$1?_GUID_c43dc798_95d1_4bea_9030_bb99e2983a1a@@3U__s_GUID@@B@ATL@@QAE@XZ 100326fd f i nafxcw:afxmdichildwndex.obj
 0001:000316fd       ??1?$CComPtr@UIAccessibleProxy@@@ATL@@QAE@XZ 100326fd f i nafxcw:wincore.obj
 0001:00031702       ??1?$CComPtrBase@UIAccessibleProxy@@@ATL@@QAE@XZ 10032702 f i nafxcw:wincore.obj
 0001:00031702       ??1?$CComPtrBase@UITaskbarList4@@@ATL@@QAE@XZ 10032702 f i nafxcw:afxmdichildwndex.obj
 0001:0003171b       ??1CInternalGlobalLock@@QAE@XZ 1003271b f i nafxcw:wincore.obj
 0001:0003174f       ??1CWaitCursor@@QAE@XZ     1003274f f i nafxcw:wincore.obj
 0001:00031868       ??1CWnd@@UAE@XZ            10032868 f   nafxcw:wincore.obj
 0001:0003194b       ??1_AFX_HTMLHELP_STATE@@UAE@XZ 1003294b f   nafxcw:wincore.obj
 0001:00031961       ??3CObject@@SGXPAX0@Z      10032961 f i nafxcw:wincore.obj
 0001:00031971       ??_G?$CComObjectNoLock@VCAccessibleProxy@ATL@@@ATL@@UAEPAXI@Z 10032971 f i nafxcw:wincore.obj
 0001:00031971       ??_E?$CComObjectNoLock@VCAccessibleProxy@ATL@@@ATL@@UAEPAXI@Z 10032971 f i nafxcw:wincore.obj
 0001:00031993       ??_ECPaneTrackingWnd@@UAEPAXI@Z 10032993 f i nafxcw:afxpanedivider.obj
 0001:00031993       ??_GCWnd@@UAEPAXI@Z        10032993 f i nafxcw:wincore.obj
 0001:00031993       ??_GCPaneTrackingWnd@@UAEPAXI@Z 10032993 f i nafxcw:afxpanedivider.obj
 0001:00031993       ??_ECWnd@@UAEPAXI@Z        10032993 f i nafxcw:wincore.obj
 0001:000319c6       ??_E_AFX_HTMLHELP_STATE@@UAEPAXI@Z 100329c6 f i nafxcw:wincore.obj
 0001:000319c6       ??_G_AFX_HTMLHELP_STATE@@UAEPAXI@Z 100329c6 f i nafxcw:wincore.obj
 0001:000319f6       ?ActivateTopParent@CWnd@@QAEXXZ 100329f6 f   nafxcw:wincore.obj
 0001:00031a3d       ?AddRef@?$CComObjectNoLock@VCAccessibleProxy@ATL@@@ATL@@UAGKXZ 10032a3d f i nafxcw:wincore.obj
 0001:00031a4e       ?AddRef@?$CComObjectNoLock@VCAccessibleProxy@ATL@@@ATL@@W3AGKXZ 10032a4e f i nafxcw:wincore.obj
 0001:00031a58       ?AddRef@?$CComObjectNoLock@VCAccessibleProxy@ATL@@@ATL@@WBA@AGKXZ 10032a58 f i nafxcw:wincore.obj
 0001:00031a62       ?AddRef@XAccessible@CWnd@@UAGKXZ 10032a62 f   nafxcw:wincore.obj
 0001:00031a9c       ?AddRef@XAccessibleServer@CWnd@@UAGKXZ 10032a9c f   nafxcw:wincore.obj
 0001:00031ad6       ?AfxCallWndProc@@YGJPAVCWnd@@PAUHWND__@@IIJ@Z 10032ad6 f   nafxcw:wincore.obj
 0001:00031bfa       ?AfxEndDeferRegisterClass@@YGHJ@Z 10032bfa f   nafxcw:wincore.obj
 0001:00031ee7       ?AfxFindMessageEntry@@YGPBUAFX_MSGMAP_ENTRY@@PBU1@III@Z 10032ee7 f   nafxcw:wincore.obj
 0001:00031f27       ?AfxGetParentOwner@@YGPAUHWND__@@PAU1@@Z 10032f27 f   nafxcw:wincore.obj
 0001:00031f6e       ?AfxHookWindowCreate@@YGXPAVCWnd@@@Z 10032f6e f   nafxcw:wincore.obj
 0001:00031fc7       ?AfxHtmlHelp@@YGPAUHWND__@@PAU1@PBDIK@Z 10032fc7 f   nafxcw:wincore.obj
 0001:00032050       ?AfxRegisterClass@@YGHPAUtagWNDCLASSA@@@Z 10033050 f   nafxcw:wincore.obj
 0001:000320ea       ?AfxRegisterWndClass@@YGPBDIPAUHICON__@@PAUHBRUSH__@@0@Z 100330ea f   nafxcw:wincore.obj
 0001:000321ee       ?AfxRepositionWindow@@YGXPAUAFX_SIZEPARENTPARAMS@@PAUHWND__@@PBUtagRECT@@@Z 100331ee f   nafxcw:wincore.obj
 0001:0003229c       ?AfxUnhookWindowCreate@@YGHXZ 1003329c f   nafxcw:wincore.obj
 0001:000322e9       ?AfxWndProc@@YGJPAUHWND__@@IIJ@Z 100332e9 f   nafxcw:wincore.obj
 0001:00032334       ?AtlIAccessibleGetIDsOfNamesHelper@ATL@@YGJABU_GUID@@PAPA_WIKPAJ@Z 10033334 f i nafxcw:wincore.obj
 0001:000323a5       ?AtlIAccessibleInvokeHelper@ATL@@YGJPAUIAccessible@@JABU_GUID@@KGPAUtagDISPPARAMS@@PAUtagVARIANT@@PAUtagEXCEPINFO@@PAI@Z 100333a5 f i nafxcw:wincore.obj
 0001:00032ad1       ?AtlInternalQueryInterface@ATL@@YGJPAXPBU_ATL_INTMAP_ENTRY@1@ABU_GUID@@PAPAX@Z 10033ad1 f i nafxcw:wincore.obj
 0001:00032b93       ?AtlLoadSystemLibraryUsingFullPath@ATL@@YAPAUHINSTANCE__@@PB_W@Z 10033b93 f i nafxcw:wincore.obj
 0001:00032c6d       ?Attach@CWnd@@QAEHPAUHWND__@@@Z 10033c6d f   nafxcw:wincore.obj
 0001:00032ca9       ?BeginModalState@CWnd@@UAEXXZ 10033ca9 f i nafxcw:wincore.obj
 0001:00032cb5       ?CalcWindowRect@CWnd@@UAEXPAUtagRECT@@I@Z 10033cb5 f   nafxcw:wincore.obj
 0001:00032ce4       ?CancelToolTips@CWnd@@SGXH@Z 10033ce4 f   nafxcw:wincore.obj
 0001:00032d45       ?CenterWindow@CWnd@@QAEXPAV1@@Z 10033d45 f   nafxcw:wincore.obj
 0001:00032f3f       ?Construct@?$ConstructDestruct@VCWnd@@@@SGXPAVCObject@@@Z 10033f3f f i nafxcw:wincore.obj
 0001:00032f66       ?ContextSensitiveHelp@CAccessibleProxy@ATL@@UAGJH@Z 10033f66 f i nafxcw:wincore.obj
 0001:00032f6e       ?ContinueModal@CWnd@@UAEHXZ 10033f6e f   nafxcw:wincore.obj
 0001:00032f75       ?Create@CWnd@@UAEHPBD0KABUtagRECT@@PAV1@IPAUCCreateContext@@@Z 10033f75 f   nafxcw:wincore.obj
 0001:00032fc9       ?CreateAccessibleProxy@CWnd@@UAEJIJPAJ@Z 10033fc9 f   nafxcw:wincore.obj
 0001:000330b6       ?CreateControlContainer@CWnd@@MAEHPAPAVCOleControlContainer@@@Z 100340b6 f   nafxcw:wincore.obj
 0001:000330d0       ?CreateControlSite@CWnd@@MAEHPAVCOleControlContainer@@PAPAVCOleControlSite@@IABU_GUID@@@Z 100340d0 f   nafxcw:wincore.obj
 0001:000330ea       ?CreateEx@CWnd@@UAEHKPBD0KABUtagRECT@@PAV1@IPAX@Z 100340ea f   nafxcw:wincore.obj
 0001:00033139       ?CreateEx@CWnd@@UAEHKPBD0KHHHHPAUHWND__@@PAUHMENU__@@PAX@Z 10034139 f   nafxcw:wincore.obj
 0001:00033238       ?CreateObject@?$CProcessLocal@V_AFX_HTMLHELP_STATE@@@@SGPAVCNoTrackObject@@XZ 10034238 f i nafxcw:wincore.obj
 0001:0003324d       ?CreateObject@CWnd@@SGPAVCObject@@XZ 1003424d f   nafxcw:wincore.obj
 0001:0003327d       ?DefWindowProcA@CWnd@@MAEJIIJ@Z 1003427d f   nafxcw:wincore.obj
 0001:000332d6       ?Default@CWnd@@IAEJXZ      100342d6 f   nafxcw:wincore.obj
 0001:00033315       ?DestroyWindow@CWnd@@UAEHXZ 10034315 f   nafxcw:wincore.obj
 0001:0003337a       ?Destruct@?$ConstructDestruct@VCImageList@@@@SGXPAVCObject@@@Z 1003437a f i nafxcw:winctrl2.obj
 0001:0003337a       ?Destruct@?$ConstructDestruct@VCDC@@@@SGXPAVCObject@@@Z 1003437a f i nafxcw:wingdi.obj
 0001:0003337a       ?Destruct@?$ConstructDestruct@VCGdiObject@@@@SGXPAVCObject@@@Z 1003437a f i nafxcw:wingdi.obj
 0001:0003337a       ?Destruct@?$ConstructDestruct@VCMenu@@@@SGXPAVCObject@@@Z 1003437a f i nafxcw:winmenu.obj
 0001:0003337a       ?Destruct@?$ConstructDestruct@VCWnd@@@@SGXPAVCObject@@@Z 1003437a f i nafxcw:wincore.obj
 0001:0003339b       ?Detach@CWnd@@QAEPAUHWND__@@XZ 1003439b f   nafxcw:wincore.obj
 0001:000333c9       ?DoD2DPaint@CWnd@@IAEHXZ   100343c9 f   nafxcw:wincore.obj
 0001:0003356b       ?Enable@CTestCmdUI@@UAEXH@Z 1003456b f   nafxcw:wincore.obj
 0001:0003356b       ?Enable@CMFCColorBarCmdUI@@UAEXH@Z 1003456b f   nafxcw:afxcolorbar.obj
 0001:0003357f       ?EnableDynamicLayout@CWnd@@QAEXH@Z 1003457f f   nafxcw:wincore.obj
 0001:000335db       ?EnableScrollBarCtrl@CWnd@@QAEXHH@Z 100345db f   nafxcw:wincore.obj
 0001:0003362b       ?EndModalLoop@CWnd@@UAEXH@Z 1003462b f   nafxcw:wincore.obj
 0001:00033653       ?EndModalState@CWnd@@UAEXXZ 10034653 f i nafxcw:wincore.obj
 0001:0003365f       ?EnsureStdObj@CWnd@@UAEJXZ 1003465f f   nafxcw:wincore.obj
 0001:0003367e       ?ExecuteDlgInit@CWnd@@QAEHPBD@Z 1003467e f   nafxcw:wincore.obj
 0001:000336cc       ?FinalRelease@CAccessibleProxy@ATL@@QAEJXZ 100346cc f i nafxcw:wincore.obj
 0001:000336eb       ?FromHandle@CWnd@@SGPAV1@PAUHWND__@@@Z 100346eb f   nafxcw:wincore.obj
 0001:00033715       ?FromHandlePermanent@CWnd@@SGPAV1@PAUHWND__@@@Z 10034715 f   nafxcw:wincore.obj
 0001:00033739       ?GetControlContainer@CWnd@@QAEPAVCOleControlContainer@@XZ 10034739 f   nafxcw:wincore.obj
 0001:00033739       ?IsOfficeXPStyleMenus@CMFCVisualManager@@UBEHXZ 10034739 f   nafxcw:afxvisualmanager.obj
 0001:0003373d       ?GetCurrentMessage@CWnd@@KGPBUtagMSG@@XZ 1003473d f   nafxcw:wincore.obj
 0001:0003377a       ?GetDCRenderTarget@CWnd@@QAEPAVCDCRenderTarget@@XZ 1003477a f   nafxcw:wincore.obj
 0001:0003378a       ?GetDescendantWindow@CWnd@@SGPAV1@PAUHWND__@@HH@Z 1003478a f   nafxcw:wincore.obj
 0001:00033801       ?GetDlgItemTextA@CWnd@@QBEHHAAV?$CStringT@DV?$StrTraitMFC@DV?$ChTraitsCRT@D@ATL@@@@@ATL@@@Z 10034801 f   nafxcw:wincore.obj
 0001:0003387c       ?GetEnumVariant@XAccessibleServer@CWnd@@UAGJPAPAUIEnumVARIANT@@@Z 1003487c f   nafxcw:wincore.obj
 0001:00033899       ?PreClickPaletteIcon@CMFCRibbonGallery@@MAEHPAVCMFCRibbonGalleryIcon@@ABVCPoint@@@Z 10034899 f   nafxcw:afxribboncolorbutton.obj
 0001:00033899       ?OnBeforeRemoveButton@CMFCToolBar@@UAEHPAVCMFCToolBarButton@@K@Z 10034899 f   nafxcw:afxpropertysheet.obj
 0001:00033899       ?OnRenameTab@CMFCBaseTabCtrl@@UAEHHAAV?$CStringT@DV?$StrTraitMFC@DV?$ChTraitsCRT@D@ATL@@@@@ATL@@@Z 10034899 f   nafxcw:afxpropertysheet.obj
 0001:00033899       ?OnCreateControlBars@COleIPFrameWnd@@UAEHPAVCWnd@@0@Z 10034899 f   nafxcw:oleipfrm.obj
 0001:00033899       ?OnToolbarContextMenu@COleIPFrameWndEx@@IAEJIJ@Z 10034899 f   nafxcw:afxoleipframewndex.obj
 0001:00033899       ?GetGestureStatus@CWnd@@MAEKVCPoint@@@Z 10034899 f   nafxcw:wincore.obj
 0001:00033899       ?OnTearOffMenu@COleIPFrameWndEx@@UAEHPAVCMFCPopupMenu@@PAVCPane@@@Z 10034899 f   nafxcw:afxoleipframewndex.obj
 0001:00033899       ?OnTearOffMenu@CFrameWndEx@@UAEHPAVCMFCPopupMenu@@PAVCPane@@@Z 10034899 f   nafxcw:afxframewndex.obj
 0001:00033899       ?OnToolbarContextMenu@COleDocIPFrameWndEx@@IAEJIJ@Z 10034899 f   nafxcw:afxoledocipframewndex.obj
 0001:00033899       ?OnToolbarContextMenu@CFrameWndEx@@QAEJIJ@Z 10034899 f   nafxcw:afxframewndex.obj
 0001:00033899       ?OnNcHitTest@CMFCToolBar@@IAEJVCPoint@@@Z 10034899 f   nafxcw:afxtoolbar.obj
 0001:00033899       ?OnBeforeFloat@CPane@@UAEHAAVCRect@@W4AFX_DOCK_METHOD@@@Z 10034899 f   nafxcw:afxpane.obj
 0001:00033899       ?Unlock@CSyncObject@@UAEHJPAJ@Z 10034899 f   nafxcw:afxtoolbarimages.obj
 0001:00033899       ?OnTearOffMenu@COleDocIPFrameWndEx@@UAEHPAVCMFCPopupMenu@@PAVCPane@@@Z 10034899 f   nafxcw:afxoledocipframewndex.obj
 0001:00033899       ?OnToolbarContextMenu@CMDIFrameWndEx@@IAEJIJ@Z 10034899 f   nafxcw:afxmdiframewndex.obj
 0001:00033899       ?OnTearOffMenu@CMDIFrameWndEx@@UAEHPAVCMFCPopupMenu@@PAVCPane@@@Z 10034899 f   nafxcw:afxmdiframewndex.obj
 0001:0003389f       ?GetHWND@XAccessibleServer@CWnd@@UAGJPAPAUHWND__@@@Z 1003489f f   nafxcw:wincore.obj
 0001:000338d6       ?GetIDsOfNames@?$IAccessibleProxyImpl@VCAccessibleProxy@ATL@@@ATL@@UAGJABU_GUID@@PAPA_WIKPAJ@Z 100348d6 f i nafxcw:wincore.obj
 0001:0003390e       ?GetIDsOfNames@XAccessible@CWnd@@UAGJABU_GUID@@PAPA_WIKPAJ@Z 1003490e f   nafxcw:wincore.obj
 0001:00033929       ?GetInterfaceMap@CWnd@@MBEPBUAFX_INTERFACEMAP@@XZ 10034929 f   nafxcw:wincore.obj
 0001:0003392f       ?GetMenu@CWnd@@UBEPAVCMenu@@XZ 1003492f f   nafxcw:wincore.obj
 0001:0003393f       ?GetThisMessageMap@CWnd@@KGPBUAFX_MSGMAP@@XZ 1003493f f   nafxcw:wincore.obj
 0001:0003393f       ?GetMessageMap@CWnd@@MBEPBUAFX_MSGMAP@@XZ 1003493f f   nafxcw:wincore.obj
 0001:00033945       ?GetOwner@CWnd@@QBEPAV1@XZ 10034945 f i nafxcw:wincore.obj
 0001:0003395c       ?GetParentFrame@CWnd@@QBEPAVCFrameWnd@@XZ 1003495c f   nafxcw:wincore.obj
 0001:000339a3       ?GetParentOwner@CWnd@@QBEPAV1@XZ 100349a3 f   nafxcw:wincore.obj
 0001:000339de       ?GetRenderTarget@CWnd@@QAEPAVCHwndRenderTarget@@XZ 100349de f   nafxcw:wincore.obj
 0001:000339ee       ?GetRuntimeClass@CWnd@@UBEPAUCRuntimeClass@@XZ 100349ee f   nafxcw:wincore.obj
 0001:000339f4       ?GetSafeOwner@CWnd@@SGPAV1@PAV1@PAPAUHWND__@@@Z 100349f4 f   nafxcw:wincore.obj
 0001:00033a14       ?GetScrollInfo@CWnd@@QAEHHPAUtagSCROLLINFO@@I@Z 10034a14 f   nafxcw:wincore.obj
 0001:00033a67       ?GetScrollLimit@CWnd@@QAEHH@Z 10034a67 f   nafxcw:wincore.obj
 0001:00033ac2       ?GetScrollPos@CWnd@@QBEHH@Z 10034ac2 f   nafxcw:wincore.obj
 0001:00033afa       ?GetScrollRange@CWnd@@QBEXHPAH0@Z 10034afa f   nafxcw:wincore.obj
 0001:00033b38       ?GetSuperWndProcAddr@CWnd@@MAEPAP6GJPAUHWND__@@IIJ@ZXZ 10034b38 f   nafxcw:wincore.obj
 0001:00033b3c       ?GetTopLevelFrame@CWnd@@QBEPAVCFrameWnd@@XZ 10034b3c f   nafxcw:wincore.obj
 0001:00033b89       ?GetTopLevelParent@CWnd@@QBEPAV1@XZ 10034b89 f   nafxcw:wincore.obj
 0001:00033bb0       ?GetTypeInfo@?$IAccessibleProxyImpl@VCAccessibleProxy@ATL@@@ATL@@UAGJIKPAPAUITypeInfo@@@Z 10034bb0 f i nafxcw:wincore.obj
 0001:00033be2       ?GetTypeInfo@XAccessible@CWnd@@UAGJIKPAPAUITypeInfo@@@Z 10034be2 f   nafxcw:wincore.obj
 0001:00033bea       ?GetTypeInfoCount@?$IAccessibleProxyImpl@VCAccessibleProxy@ATL@@@ATL@@UAGJPAI@Z 10034bea f i nafxcw:wincore.obj
 0001:00033c17       ?GetTypeInfoCount@XAccessible@CWnd@@UAGJPAI@Z 10034c17 f   nafxcw:wincore.obj
 0001:00033c34       ?GetToolbarButtonToolTipText@CMDIFrameWndEx@@UAEHPAVCMFCToolBarButton@@AAV?$CStringT@DV?$StrTraitMFC@DV?$ChTraitsCRT@D@ATL@@@@@ATL@@@Z 10034c34 f i nafxcw:afxmdiframewndex.obj
 0001:00033c34       ?GetToolbarButtonToolTipText@CMDIChildWndEx@@UAEHPAVCMFCToolBarButton@@AAV?$CStringT@DV?$StrTraitMFC@DV?$ChTraitsCRT@D@ATL@@@@@ATL@@@Z 10034c34 f i nafxcw:afxmdichildwndex.obj
 0001:00033c34       ?SetACCData@CMFCBaseAccessibleObject@@UAEHPAVCWnd@@AAVCAccessibilityData@@@Z 10034c34 f i nafxcw:afxbaseribbonelement.obj
 0001:00033c34       ?OnClick@CMFCToolBarButton@@UAEHPAVCWnd@@H@Z 10034c34 f i nafxcw:afxcolorbar.obj
 0001:00033c34       ?OnShowControlBarMenu@CMFCBaseToolBar@@MAEHVCPoint@@@Z 10034c34 f i nafxcw:afxpropertysheet.obj
 0001:00033c34       ?ReplaceByID@CMFCRibbonBaseElement@@MAEHIPAV1@@Z 10034c34 f i nafxcw:afxbaseribbonelement.obj
 0001:00033c34       ?OnGestureTwoFingerTap@CWnd@@MAEHVCPoint@@@Z 10034c34 f i nafxcw:wincore.obj
 0001:00033c34       ?OnMenuButtonToolHitTest@CMDIFrameWndEx@@UAEHPAVCMFCToolBarButton@@PAUtagTOOLINFOA@@@Z 10034c34 f i nafxcw:afxmdiframewndex.obj
 0001:00033c34       ?OnPostPreviewFrame@CFrameWndEx@@QAEJIJ@Z 10034c34 f i nafxcw:afxframewndex.obj
 0001:00033c34       ?OnRenderGlobalData@COleDataSource@@UAEHPAUtagFORMATETC@@PAPAX@Z 10034c34 f i nafxcw:oledobj2.obj
 0001:00033c34       ?OnGetIconicThumbnail@CMDIChildWndEx@@UAEPAUHBITMAP__@@HH@Z 10034c34 f i nafxcw:afxmdichildwndex.obj
 0001:00033c34       ?OnNcActivate@CMFCVisualManager@@UAEHPAVCWnd@@H@Z 10034c34 f i nafxcw:afxvisualmanager.obj
 0001:00033c34       ?OnMenuButtonToolHitTest@COleDocIPFrameWndEx@@UAEHPAVCMFCToolBarButton@@PAUtagTOOLINFOA@@@Z 10034c34 f i nafxcw:afxoledocipframewndex.obj
 0001:00033c34       ?CreateDocumentWindow@CMDIFrameWndEx@@UAEPAVCMDIChildWndEx@@PBDPAVCObject@@@Z 10034c34 f i nafxcw:afxmdiframewndex.obj
 0001:00033c34       ?OnUserToolTip@CMFCPopupMenuBar@@MBEHPAVCMFCToolBarButton@@AAV?$CStringT@DV?$StrTraitMFC@DV?$ChTraitsCRT@D@ATL@@@@@ATL@@@Z 10034c34 f i nafxcw:afxcolorbar.obj
 0001:00033c34       ?OnCtlColor@CMFCToolBarButton@@UAEPAUHBRUSH__@@PAVCDC@@I@Z 10034c34 f i nafxcw:afxcolorbar.obj
 0001:00033c34       ?OnClickPaletteSubItem@CMFCRibbonGallery@@MAEHPAVCMFCRibbonButton@@PAVCMFCRibbonPanelMenuBar@@@Z 10034c34 f i nafxcw:afxribboncolorbutton.obj
 0001:00033c34       ?OnMenuButtonToolHitTest@CFrameWndEx@@UAEHPAVCMFCToolBarButton@@PAUtagTOOLINFOA@@@Z 10034c34 f i nafxcw:afxframewndex.obj
 0001:00033c34       ?OnShowControlBarMenu@CMFCCaptionBar@@MAEHVCPoint@@@Z 10034c34 f i nafxcw:afxcaptionbar.obj
 0001:00033c34       ?OnRenderFileData@COleDataSource@@UAEHPAUtagFORMATETC@@PAVCFile@@@Z 10034c34 f i nafxcw:oledobj2.obj
 0001:00033c34       ?OnGetIconicLivePreviewBitmap@CMDIChildWndEx@@UAEPAUHBITMAP__@@HAAVCPoint@@@Z 10034c34 f i nafxcw:afxmdichildwndex.obj
 0001:00033c34       ?GetToolbarButtonToolTipText@CFrameWndEx@@UAEHPAVCMFCToolBarButton@@AAV?$CStringT@DV?$StrTraitMFC@DV?$ChTraitsCRT@D@ATL@@@@@ATL@@@Z 10034c34 f i nafxcw:afxframewndex.obj
 0001:00033c34       ?OnPostPreviewFrame@CMDIFrameWndEx@@IAEJIJ@Z 10034c34 f i nafxcw:afxmdiframewndex.obj
 0001:00033c34       ?GetToolbarButtonToolTipText@COleDocIPFrameWndEx@@UAEHPAVCMFCToolBarButton@@AAV?$CStringT@DV?$StrTraitMFC@DV?$ChTraitsCRT@D@ATL@@@@@ATL@@@Z 10034c34 f i nafxcw:afxoledocipframewndex.obj
 0001:00033c34       ?Create@CMFCShadowRenderer@@MAEHABVCMFCControlRendererInfo@@H@Z 10034c34 f i nafxcw:afxcontrolrenderer.obj
 0001:00033c34       ?GetToolbarButtonToolTipText@COleIPFrameWndEx@@UAEHPAVCMFCToolBarButton@@AAV?$CStringT@DV?$StrTraitMFC@DV?$ChTraitsCRT@D@ATL@@@@@ATL@@@Z 10034c34 f i nafxcw:afxoleipframewndex.obj
 0001:00033c34       ?OnShowControlBarMenu@CMFCAutoHideBar@@UAEHVCPoint@@@Z 10034c34 f i nafxcw:afxautohidebar.obj
 0001:00033c34       ?GetWindow@CAccessibleProxy@ATL@@UAGJPAPAUHWND__@@@Z 10034c34 f i nafxcw:wincore.obj
 0001:00033c34       ?OnMenuButtonToolHitTest@COleIPFrameWndEx@@UAEHPAVCMFCToolBarButton@@PAUtagTOOLINFOA@@@Z 10034c34 f i nafxcw:afxoleipframewndex.obj
 0001:00033c39       ?GetWindowPlacement@CWnd@@QBEHPAUtagWINDOWPLACEMENT@@@Z 10034c39 f   nafxcw:wincore.obj
 0001:00033c53       ?GetWindowTextA@CWnd@@QBEXAAV?$CStringT@DV?$StrTraitMFC@DV?$ChTraitsCRT@D@ATL@@@@@ATL@@@Z 10034c53 f   nafxcw:wincore.obj
 0001:00033caa       ?GrayCtlColor@CWnd@@SGHPAUHDC__@@PAUHWND__@@IPAUHBRUSH__@@K@Z 10034caa f   nafxcw:wincore.obj
 0001:00033d34       ?HandleFloatingSysCommand@CWnd@@QAEHIJ@Z 10034d34 f   nafxcw:wincore.obj
 0001:00033dec       ?HtmlHelpA@CWnd@@UAEXKI@Z  10034dec f   nafxcw:wincore.obj
 0001:00033e5d       ?InitDynamicLayout@CWnd@@IAEXXZ 10034e5d f   nafxcw:wincore.obj
 0001:00033f93       ?InlineIsEqualUnknown@ATL@@YGHABU_GUID@@@Z 10034f93 f i nafxcw:wincore.obj
 0001:00033fbb       ?Invoke@?$IAccessibleProxyImpl@VCAccessibleProxy@ATL@@@ATL@@UAGJJABU_GUID@@KGPAUtagDISPPARAMS@@PAUtagVARIANT@@PAUtagEXCEPINFO@@PAI@Z 10034fbb f i nafxcw:wincore.obj
 0001:00033ffd       ?Invoke@XAccessible@CWnd@@UAGJJABU_GUID@@KGPAUtagDISPPARAMS@@PAUtagVARIANT@@PAUtagEXCEPINFO@@PAI@Z 10034ffd f   nafxcw:wincore.obj
 0001:0003404d       ?IsTopParentActive@CWnd@@QBEHXZ 1003504d f   nafxcw:wincore.obj
 0001:00034089       ?IsTracking@CFrameWnd@@QAEHXZ 10035089 f   nafxcw:wincore.obj
 0001:000340bc       ?LoadDynamicLayoutResource@CWnd@@IAEHPBD@Z 100350bc f   nafxcw:wincore.obj
 0001:00034151       ?MessageBoxA@CWnd@@QAEHPBD0I@Z 10035151 f   nafxcw:wincore.obj
 0001:00034184       ?ModifyStyle@CWnd@@SGHPAUHWND__@@KKI@Z 10035184 f   nafxcw:wincore.obj
 0001:0003419e       ?ModifyStyleEx@CWnd@@SGHPAUHWND__@@KKI@Z 1003519e f   nafxcw:wincore.obj
 0001:000341b8       ?OnActivateTopLevel@CWnd@@IAEJIJ@Z 100351b8 f   nafxcw:wincore.obj
 0001:000341e4       ?OnVKeyToItem@CWnd@@IAEHIPAVCListBox@@I@Z 100351e4 f   nafxcw:wincore.obj
 0001:000341e4       ?OnCharToItem@CWnd@@IAEHIPAVCListBox@@I@Z 100351e4 f   nafxcw:wincore.obj
 0001:00034210       ?OnChildNotify@CWnd@@MAEHIIJPAJ@Z 10035210 f   nafxcw:wincore.obj
 0001:0003425d       ?OnCommand@CWnd@@MAEHIJ@Z  1003525d f   nafxcw:wincore.obj
 0001:00034304       ?OnCompareItem@CWnd@@IAEHHPAUtagCOMPAREITEMSTRUCT@@@Z 10035304 f   nafxcw:wincore.obj
 0001:0003432f       ?OnCtlColor@CWnd@@IAEPAUHBRUSH__@@PAVCDC@@PAV1@I@Z 1003532f f   nafxcw:wincore.obj
 0001:00034357       ?OnDeleteItem@CWnd@@IAEXHPAUtagDELETEITEMSTRUCT@@@Z 10035357 f   nafxcw:wincore.obj
 0001:0003437a       ?OnDestroy@CWnd@@IAEXXZ    1003537a f   nafxcw:wincore.obj
 0001:00034407       ?OnDevModeChange@CWnd@@IAEXPAD@Z 10035407 f   nafxcw:wincore.obj
 0001:00034453       ?OnDisplayChange@CWnd@@IAEXIHH@Z 10035453 f   nafxcw:wincore.obj
 0001:0003449c       ?OnDragList@CWnd@@IAEJIJ@Z 1003549c f   nafxcw:wincore.obj
 0001:000344c7       ?OnDrawIconicThumbnailOrLivePreview@CWnd@@UAEXAAVCDC@@VCRect@@VCSize@@HAAH@Z 100354c7 f   nafxcw:wincore.obj
 0001:000344e9       ?OnDrawItem@CWnd@@IAEXHPAUtagDRAWITEMSTRUCT@@@Z 100354e9 f   nafxcw:wincore.obj
 0001:00034537       ?OnEnterIdle@CWnd@@IAEXIPAV1@@Z 10035537 f   nafxcw:wincore.obj
 0001:00034573       ?OnFinalRelease@CWnd@@UAEXXZ 10035573 f   nafxcw:wincore.obj
 0001:000345a4       ?OnGesture@CWnd@@IAEJIJ@Z  100355a4 f   nafxcw:wincore.obj
 0001:00034856       ?GetBufferPtr@CFile@@UAEIIIPAPAX0@Z 10035856 f   nafxcw:filecore.obj
 0001:00034856       ?OnGesturePan@CWnd@@MAEHVCPoint@@0@Z 10035856 f   nafxcw:wincore.obj
 0001:00034856       ?OnDragOver@CMFCBaseTabCtrl@@UAEKPAVCOleDataObject@@KVCPoint@@@Z 10035856 f   nafxcw:afxbasetabctrl.obj
 0001:00034856       ?OnDragEnter@CMFCBaseTabCtrl@@UAEKPAVCOleDataObject@@KVCPoint@@@Z 10035856 f   nafxcw:afxbasetabctrl.obj
 0001:00034856       ?OnDrop@CView@@UAEHPAVCOleDataObject@@KVCPoint@@@Z 10035856 f   nafxcw:viewcore.obj
 0001:00034856       ?OnDragOver@CView@@UAEKPAVCOleDataObject@@KVCPoint@@@Z 10035856 f   nafxcw:viewcore.obj
 0001:00034856       ?OnGestureRotate@CWnd@@MAEHVCPoint@@N@Z 10035856 f   nafxcw:wincore.obj
 0001:00034856       ?CreateDefaultMiniframe@CBasePane@@UAEPAVCPaneFrameWnd@@VCRect@@@Z 10035856 f   nafxcw:afxbasepane.obj
 0001:00034856       ?OnDragEnter@CView@@UAEKPAVCOleDataObject@@KVCPoint@@@Z 10035856 f   nafxcw:viewcore.obj
 0001:00034856       ?OnUpdateToolTip@CMFCToolBarButton@@UAEHPAVCWnd@@HAAVCToolTipCtrl@@AAV?$CStringT@DV?$StrTraitMFC@DV?$ChTraitsCRT@D@ATL@@@@@ATL@@@Z 10035856 f   nafxcw:afxcolorbar.obj
 0001:00034856       ?NotifyControlCommand@CMFCRibbonBaseElement@@MAEHHHIJ@Z 10035856 f   nafxcw:afxbaseribbonelement.obj
 0001:00034856       ?OnDrop@CMFCBaseTabCtrl@@UAEHPAVCOleDataObject@@KVCPoint@@@Z 10035856 f   nafxcw:afxpropertysheet.obj
 0001:00034856       ?OnDragOver@CMFCTabCtrl@@UAEKPAVCOleDataObject@@KVCPoint@@@Z 10035856 f   nafxcw:afxtabctrl.obj
 0001:0003485b       ?OnSetData@COleDataSource@@UAEHPAUtagFORMATETC@@PAUtagSTGMEDIUM@@H@Z 1003585b f   nafxcw:oledobj2.obj
 0001:0003485b       ?OnGestureZoom@CWnd@@MAEHVCPoint@@J@Z 1003585b f   nafxcw:wincore.obj
 0001:0003485b       ?OnGesturePressAndTap@CWnd@@MAEHVCPoint@@J@Z 1003585b f   nafxcw:wincore.obj
 0001:0003485b       ?OnCompareItems@CMFCListCtrl@@UAEHJJH@Z 1003585b f   nafxcw:afxlistctrl.obj
 0001:0003485b       ?OnGetCellFont@CMFCListCtrl@@UAEPAUHFONT__@@HHK@Z 1003585b f   nafxcw:afxshelllistctrl.obj
 0001:0003485b       ?DockPane@CBasePane@@UAEHPAV1@PBUtagRECT@@W4AFX_DOCK_METHOD@@@Z 1003585b f   nafxcw:afxbasepane.obj
 0001:0003485b       ?OnDrawMenuImage@COleDocIPFrameWndEx@@UAEHPAVCDC@@PBVCMFCToolBarMenuButton@@ABVCRect@@@Z 1003585b f   nafxcw:afxoledocipframewndex.obj
 0001:0003485b       ?OnDrawMenuImage@COleIPFrameWndEx@@UAEHPAVCDC@@PBVCMFCToolBarMenuButton@@ABVCRect@@@Z 1003585b f   nafxcw:afxoleipframewndex.obj
 0001:00034860       ?OnGetObject@CWnd@@IAEJIJ@Z 10035860 f   nafxcw:wincore.obj
 0001:000348a8       ?OnHScroll@CWnd@@IAEXIIPAVCScrollBar@@@Z 100358a8 f   nafxcw:wincore.obj
 0001:000348a8       ?OnVScroll@CWnd@@IAEXIIPAVCScrollBar@@@Z 100358a8 f   nafxcw:wincore.obj
 0001:000348cc       ?OnHelpInfo@CWnd@@IAEHPAUtagHELPINFO@@@Z 100358cc f   nafxcw:wincore.obj
 0001:0003493a       ?OnMeasureItem@CWnd@@IAEXHPAUtagMEASUREITEMSTRUCT@@@Z 1003593a f   nafxcw:wincore.obj
 0001:000349dc       ?OnNTCtlColor@CWnd@@IAEJIJ@Z 100359dc f   nafxcw:wincore.obj
 0001:00034a38       ?OnNcDestroy@CWnd@@IAEXXZ  10035a38 f   nafxcw:wincore.obj
 0001:00034b8a       ?OnNotify@CWnd@@MAEHIJPAJ@Z 10035b8a f   nafxcw:wincore.obj
 0001:00034c15       ?OnPaint@CWnd@@IAEXXZ      10035c15 f   nafxcw:wincore.obj
 0001:00034c6a       ?OnParentNotify@CWnd@@IAEXIJ@Z 10035c6a f   nafxcw:wincore.obj
 0001:00034c98       ?OnSetFocus@CWnd@@IAEXPAV1@@Z 10035c98 f   nafxcw:wincore.obj
 0001:00034cc9       ?OnSettingChange@CWnd@@IAEXIPBD@Z 10035cc9 f   nafxcw:wincore.obj
 0001:00034d05       ?OnSysColorChange@CWnd@@IAEXXZ 10035d05 f   nafxcw:wincore.obj
 0001:00034d4b       ?OnTabletQuerySystemGestureStatus@CWnd@@IAEJIJ@Z 10035d4b f   nafxcw:wincore.obj
 0001:00034d93       ?OnToolHitTest@CWnd@@UBEHVCPoint@@PAUtagTOOLINFOA@@@Z 10035d93 f   nafxcw:wincore.obj
 0001:00034e04       ?OnEraseMDIClientArea@CMFCVisualManager@@UAEHPAVCDC@@VCRect@@@Z 10035e04 f   nafxcw:afxvisualmanager.obj
 0001:00034e04       ?OnTouchInput@CWnd@@MAEHVCPoint@@HHPAUtagTOUCHINPUT@@@Z 10035e04 f   nafxcw:wincore.obj
 0001:00034e09       ?OnTouchInputs@CWnd@@MAEHIPAUtagTOUCHINPUT@@@Z 10035e09 f   nafxcw:wincore.obj
 0001:00034e83       ?OnTouchMessage@CWnd@@IAEJIJ@Z 10035e83 f   nafxcw:wincore.obj
 0001:00034fb4       ?OnWndMsg@CWnd@@MAEHIIJPAJ@Z 10035fb4 f   nafxcw:wincore.obj
 0001:000358e4       ?PreCreateWindow@CWnd@@UAEHAAUtagCREATESTRUCTA@@@Z 100368e4 f   nafxcw:wincore.obj
 0001:0003591d       ?PreTranslateInput@CWnd@@QAEHPAUtagMSG@@@Z 1003691d f   nafxcw:wincore.obj
 0001:0003594c       ?PreTranslateMessage@CWnd@@UAEHPAUtagMSG@@@Z 1003694c f   nafxcw:wincore.obj
 0001:00035975       ?PrepareForHelp@CWnd@@QAEXXZ 10036975 f   nafxcw:wincore.obj
 0001:00035a0e       ?QueryInterface@?$CComObjectNoLock@VCAccessibleProxy@ATL@@@ATL@@UAGJABU_GUID@@PAPAX@Z 10036a0e f i nafxcw:wincore.obj
 0001:00035a28       ?QueryInterface@?$CComObjectNoLock@VCAccessibleProxy@ATL@@@ATL@@W3AGJABU_GUID@@PAPAX@Z 10036a28 f i nafxcw:wincore.obj
 0001:00035a32       ?QueryInterface@?$CComObjectNoLock@VCAccessibleProxy@ATL@@@ATL@@WBA@AGJABU_GUID@@PAPAX@Z 10036a32 f i nafxcw:wincore.obj
 0001:00035a3c       ?QueryInterface@XAccessible@CWnd@@UAGJABU_GUID@@PAPAX@Z 10036a3c f   nafxcw:wincore.obj
 0001:00035a7c       ?QueryInterface@XAccessibleServer@CWnd@@UAGJABU_GUID@@PAPAX@Z 10036a7c f   nafxcw:wincore.obj
 0001:00035abc       ?ReflectChildNotify@CWnd@@IAEHIIJPAJ@Z 10036abc f   nafxcw:wincore.obj
 0001:00035baf       ?ReflectLastMsg@CWnd@@KGHPAUHWND__@@PAJ@Z 10036baf f   nafxcw:wincore.obj
 0001:00035c59       ?RegisterTouchWindow@CWnd@@QAEHHK@Z 10036c59 f   nafxcw:wincore.obj
 0001:00035cd3       ?Release@?$CComObjectNoLock@VCAccessibleProxy@ATL@@@ATL@@UAGKXZ 10036cd3 f i nafxcw:wincore.obj
 0001:00035d05       ?Release@?$CComObjectNoLock@VCAccessibleProxy@ATL@@@ATL@@W3AGKXZ 10036d05 f i nafxcw:wincore.obj
 0001:00035d0f       ?Release@?$CComObjectNoLock@VCAccessibleProxy@ATL@@@ATL@@WBA@AGKXZ 10036d0f f i nafxcw:wincore.obj
 0001:00035d19       ?Release@XAccessible@CWnd@@UAGKXZ 10036d19 f   nafxcw:wincore.obj
 0001:00035d53       ?Release@XAccessibleServer@CWnd@@UAGKXZ 10036d53 f   nafxcw:wincore.obj
 0001:00035d8d       ?RepositionBars@CWnd@@QAEXIIIIPAUtagRECT@@PBU2@H@Z 10036d8d f   nafxcw:wincore.obj
 0001:00035f02       ?ResizeDynamicLayout@CWnd@@MAEXXZ 10036f02 f   nafxcw:wincore.obj
 0001:00035f23       ?RunModalLoop@CWnd@@QAEHK@Z 10036f23 f   nafxcw:wincore.obj
 0001:0003608a       ?ScrollWindow@CWnd@@QAEXHHPBUtagRECT@@0@Z 1003708a f   nafxcw:wincore.obj
 0001:0003616a       ?SendChildNotifyLastMsg@CWnd@@QAEHPAJ@Z 1003716a f   nafxcw:wincore.obj
 0001:000361b2       ?SendMessageToDescendants@CWnd@@SGXPAUHWND__@@IIJHH@Z 100371b2 f   nafxcw:wincore.obj
 0001:0003622f       ?SetMenu@CWnd@@UAEHPAVCMenu@@@Z 1003722f f   nafxcw:wincore.obj
 0001:0003624a       ?SetProxy@CWnd@@UAEJPAUIAccessibleProxy@@@Z 1003724a f   nafxcw:wincore.obj
 0001:00036259       ?SetProxy@XAccessibleServer@CWnd@@UAGJPAUIAccessibleProxy@@@Z 10037259 f   nafxcw:wincore.obj
 0001:000362a4       ?SetScrollInfo@CWnd@@QAEHHPAUtagSCROLLINFO@@H@Z 100372a4 f   nafxcw:wincore.obj
 0001:000362f7       ?SetScrollPos@CWnd@@QAEHHHH@Z 100372f7 f   nafxcw:wincore.obj
 0001:00036335       ?SetScrollRange@CWnd@@QAEXHHHH@Z 10037335 f   nafxcw:wincore.obj
 0001:00036376       ?SetServer@?$IAccessibleProxyImpl@VCAccessibleProxy@ATL@@@ATL@@UAGJPAUIAccessible@@PAUIAccessibleServer@@@Z 10037376 f i nafxcw:wincore.obj
 0001:0003638e       ?SetWindowPlacement@CWnd@@QAEHPBUtagWINDOWPLACEMENT@@@Z 1003738e f   nafxcw:wincore.obj
 0001:000363a8       ?SubclassDlgItem@CWnd@@QAEHIPAV1@@Z 100373a8 f   nafxcw:wincore.obj
 0001:00036423       ?SubclassWindow@CWnd@@QAEHPAUHWND__@@@Z 10037423 f   nafxcw:wincore.obj
 0001:0003647d       ?TrackPopupMenu@CMenu@@QAEHIHHPAVCWnd@@PBUtagRECT@@@Z 1003747d f   nafxcw:wincore.obj
 0001:000364d1       ?Unlock@CInternalGlobalLock@@QAEXXZ 100374d1 f i nafxcw:wincore.obj
 0001:000364ea       ?UnsubclassWindow@CWnd@@QAEPAUHWND__@@XZ 100374ea f   nafxcw:wincore.obj
 0001:0003651d       ?UpdateData@CWnd@@QAEHH@Z  1003751d f   nafxcw:wincore.obj
 0001:000365c2       ?UpdateDialogControls@CWnd@@QAEXPAVCCmdTarget@@H@Z 100375c2 f   nafxcw:wincore.obj
 0001:000366d1       ?WalkPreTranslateTree@CWnd@@SGHPAUHWND__@@PAUtagMSG@@@Z 100376d1 f   nafxcw:wincore.obj
 0001:00036726       ?WinHelpA@CWnd@@UAEXKI@Z   10037726 f   nafxcw:wincore.obj
 0001:00036798       ?WinHelpInternal@CWnd@@UAEXKI@Z 10037798 f   nafxcw:wincore.obj
 0001:000367f1       ?WindowProc@CWnd@@MAEJIIJ@Z 100377f1 f   nafxcw:wincore.obj
 0001:0003684a       ?_AfxActivationWndProc@@YGJPAUHWND__@@IIJ@Z 1003784a f   nafxcw:wincore.obj
 0001:000369b0       ?_AfxCbtFilterHook@@YGJHIJ@Z 100379b0 f   nafxcw:wincore.obj
 0001:00036c35       ?_AfxFindPopupMenuFromID@@YGPAVCMenu@@PAV1@I@Z 10037c35 f   nafxcw:wincore.obj
 0001:00036cab       ?_AfxHandleActivate@@YGXPAVCWnd@@I0@Z 10037cab f   nafxcw:wincore.obj
 0001:00036d20       ?_AfxHandleSetCursor@@YGHPAVCWnd@@II@Z 10037d20 f   nafxcw:wincore.obj
 0001:00036d96       ?_AfxInitCommonControls@@YGJPAUtagINITCOMMONCONTROLSEX@@J@Z 10037d96 f   nafxcw:wincore.obj
 0001:00036db2       ?_AfxModifyStyle@@YGHPAUHWND__@@HKKI@Z 10037db2 f   nafxcw:wincore.obj
 0001:00036e02       ?_AfxPostInitDialog@@YGXPAVCWnd@@ABUtagRECT@@K@Z 10037e02 f   nafxcw:wincore.obj
 0001:00036ead       ?_AfxPreInitDialog@@YGXPAVCWnd@@PAUtagRECT@@PAK@Z 10037ead f   nafxcw:wincore.obj
 0001:00036ed1       ?_AfxRegisterWithIcon@@YGHPAUtagWNDCLASSA@@PBDI@Z 10037ed1 f   nafxcw:wincore.obj
 0001:00036f13       ?accDoDefaultAction@?$IAccessibleProxyImpl@VCAccessibleProxy@ATL@@@ATL@@UAGJUtagVARIANT@@@Z 10037f13 f i nafxcw:wincore.obj
 0001:00036f4c       ?accDoDefaultAction@CWnd@@UAEJUtagVARIANT@@@Z 10037f4c f   nafxcw:wincore.obj
 0001:00036f77       ?accDoDefaultAction@XAccessible@CWnd@@UAGJUtagVARIANT@@@Z 10037f77 f   nafxcw:wincore.obj
 0001:00036fcd       ?accHitTest@?$IAccessibleProxyImpl@VCAccessibleProxy@ATL@@@ATL@@UAGJJJPAUtagVARIANT@@@Z 10037fcd f i nafxcw:wincore.obj
 0001:0003700c       ?accHitTest@CWnd@@UAEJJJPAUtagVARIANT@@@Z 1003800c f   nafxcw:wincore.obj
 0001:00037030       ?accHitTest@XAccessible@CWnd@@UAGJJJPAUtagVARIANT@@@Z 10038030 f   nafxcw:wincore.obj
 0001:00037081       ?accLocation@?$IAccessibleProxyImpl@VCAccessibleProxy@ATL@@@ATL@@UAGJPAJ000UtagVARIANT@@@Z 10038081 f i nafxcw:wincore.obj
 0001:000370e5       ?accLocation@CWnd@@UAEJPAJ000UtagVARIANT@@@Z 100380e5 f   nafxcw:wincore.obj
 0001:0003711c       ?accLocation@XAccessible@CWnd@@UAGJPAJ000UtagVARIANT@@@Z 1003811c f   nafxcw:wincore.obj
 0001:0003717c       ?accNavigate@?$IAccessibleProxyImpl@VCAccessibleProxy@ATL@@@ATL@@UAGJJUtagVARIANT@@PAU3@@Z 1003817c f i nafxcw:wincore.obj
 0001:000371c8       ?accNavigate@CWnd@@UAEJJUtagVARIANT@@PAU2@@Z 100381c8 f   nafxcw:wincore.obj
 0001:000371f9       ?accNavigate@XAccessible@CWnd@@UAGJJUtagVARIANT@@PAU3@@Z 100381f9 f   nafxcw:wincore.obj
 0001:00037253       ?accSelect@?$IAccessibleProxyImpl@VCAccessibleProxy@ATL@@@ATL@@UAGJJUtagVARIANT@@@Z 10038253 f i nafxcw:wincore.obj
 0001:0003728f       ?accSelect@CWnd@@UAEJJUtagVARIANT@@@Z 1003828f f   nafxcw:wincore.obj
 0001:000372bd       ?accSelect@XAccessible@CWnd@@UAGJJUtagVARIANT@@@Z 100382bd f   nafxcw:wincore.obj
 0001:00037314       ?afxMapHWND@@YGPAVCHandleMap@@H@Z 10038314 f   nafxcw:wincore.obj
 0001:00037387       ?get_accChild@?$IAccessibleProxyImpl@VCAccessibleProxy@ATL@@@ATL@@UAGJUtagVARIANT@@PAPAUIDispatch@@@Z 10038387 f i nafxcw:wincore.obj
 0001:000373d0       ?get_accChild@CWnd@@UAEJUtagVARIANT@@PAPAUIDispatch@@@Z 100383d0 f   nafxcw:wincore.obj
 0001:000373fe       ?get_accChild@XAccessible@CWnd@@UAGJUtagVARIANT@@PAPAUIDispatch@@@Z 100383fe f   nafxcw:wincore.obj
 0001:00037455       ?get_accChildCount@?$IAccessibleProxyImpl@VCAccessibleProxy@ATL@@@ATL@@UAGJPAJ@Z 10038455 f i nafxcw:wincore.obj
 0001:0003748f       ?get_accChildCount@CWnd@@UAEJPAJ@Z 1003848f f   nafxcw:wincore.obj
 0001:000374ae       ?get_accChildCount@XAccessible@CWnd@@UAGJPAJ@Z 100384ae f   nafxcw:wincore.obj
 0001:000374f9       ?get_accDefaultAction@?$IAccessibleProxyImpl@VCAccessibleProxy@ATL@@@ATL@@UAGJUtagVARIANT@@PAPA_W@Z 100384f9 f i nafxcw:wincore.obj
 0001:00037542       ?get_accDefaultAction@CWnd@@UAEJUtagVARIANT@@PAPA_W@Z 10038542 f   nafxcw:wincore.obj
 0001:00037570       ?get_accDefaultAction@XAccessible@CWnd@@UAGJUtagVARIANT@@PAPA_W@Z 10038570 f   nafxcw:wincore.obj
 0001:000375c7       ?get_accDescription@?$IAccessibleProxyImpl@VCAccessibleProxy@ATL@@@ATL@@UAGJUtagVARIANT@@PAPA_W@Z 100385c7 f i nafxcw:wincore.obj
 0001:00037610       ?get_accDescription@CWnd@@UAEJUtagVARIANT@@PAPA_W@Z 10038610 f   nafxcw:wincore.obj
 0001:0003763e       ?get_accDescription@XAccessible@CWnd@@UAGJUtagVARIANT@@PAPA_W@Z 1003863e f   nafxcw:wincore.obj
 0001:00037695       ?get_accFocus@?$IAccessibleProxyImpl@VCAccessibleProxy@ATL@@@ATL@@UAGJPAUtagVARIANT@@@Z 10038695 f i nafxcw:wincore.obj
 0001:000376cf       ?get_accFocus@CWnd@@UAEJPAUtagVARIANT@@@Z 100386cf f   nafxcw:wincore.obj
 0001:000376ee       ?get_accFocus@XAccessible@CWnd@@UAGJPAUtagVARIANT@@@Z 100386ee f   nafxcw:wincore.obj
 0001:00037739       ?get_accHelp@?$IAccessibleProxyImpl@VCAccessibleProxy@ATL@@@ATL@@UAGJUtagVARIANT@@PAPA_W@Z 10038739 f i nafxcw:wincore.obj
 0001:00037782       ?get_accHelp@CWnd@@UAEJUtagVARIANT@@PAPA_W@Z 10038782 f   nafxcw:wincore.obj
 0001:000377b0       ?get_accHelp@XAccessible@CWnd@@UAGJUtagVARIANT@@PAPA_W@Z 100387b0 f   nafxcw:wincore.obj
 0001:00037807       ?get_accHelpTopic@?$IAccessibleProxyImpl@VCAccessibleProxy@ATL@@@ATL@@UAGJPAPA_WUtagVARIANT@@PAJ@Z 10038807 f i nafxcw:wincore.obj
 0001:00037859       ?get_accHelpTopic@CWnd@@UAEJPAPA_WUtagVARIANT@@PAJ@Z 10038859 f   nafxcw:wincore.obj
 0001:0003788a       ?get_accHelpTopic@XAccessible@CWnd@@UAGJPAPA_WUtagVARIANT@@PAJ@Z 1003888a f   nafxcw:wincore.obj
 0001:000378e4       ?get_accKeyboardShortcut@?$IAccessibleProxyImpl@VCAccessibleProxy@ATL@@@ATL@@UAGJUtagVARIANT@@PAPA_W@Z 100388e4 f i nafxcw:wincore.obj
 0001:0003792d       ?get_accKeyboardShortcut@CWnd@@UAEJUtagVARIANT@@PAPA_W@Z 1003892d f   nafxcw:wincore.obj
 0001:0003795b       ?get_accKeyboardShortcut@XAccessible@CWnd@@UAGJUtagVARIANT@@PAPA_W@Z 1003895b f   nafxcw:wincore.obj
 0001:000379b2       ?get_accName@?$IAccessibleProxyImpl@VCAccessibleProxy@ATL@@@ATL@@UAGJUtagVARIANT@@PAPA_W@Z 100389b2 f i nafxcw:wincore.obj
 0001:000379fb       ?get_accName@CWnd@@UAEJUtagVARIANT@@PAPA_W@Z 100389fb f   nafxcw:wincore.obj
 0001:00037a29       ?get_accName@XAccessible@CWnd@@UAGJUtagVARIANT@@PAPA_W@Z 10038a29 f   nafxcw:wincore.obj
 0001:00037a80       ?get_accParent@?$IAccessibleProxyImpl@VCAccessibleProxy@ATL@@@ATL@@UAGJPAPAUIDispatch@@@Z 10038a80 f i nafxcw:wincore.obj
 0001:00037aba       ?get_accParent@CWnd@@UAEJPAPAUIDispatch@@@Z 10038aba f   nafxcw:wincore.obj
 0001:00037ad9       ?get_accParent@XAccessible@CWnd@@UAGJPAPAUIDispatch@@@Z 10038ad9 f   nafxcw:wincore.obj
 0001:00037b24       ?get_accRole@?$IAccessibleProxyImpl@VCAccessibleProxy@ATL@@@ATL@@UAGJUtagVARIANT@@PAU3@@Z 10038b24 f i nafxcw:wincore.obj
 0001:00037b6d       ?get_accRole@CWnd@@UAEJUtagVARIANT@@PAU2@@Z 10038b6d f   nafxcw:wincore.obj
 0001:00037b9b       ?get_accRole@XAccessible@CWnd@@UAGJUtagVARIANT@@PAU3@@Z 10038b9b f   nafxcw:wincore.obj
 0001:00037bf2       ?get_accSelection@?$IAccessibleProxyImpl@VCAccessibleProxy@ATL@@@ATL@@UAGJPAUtagVARIANT@@@Z 10038bf2 f i nafxcw:wincore.obj
 0001:00037c2c       ?get_accSelection@CWnd@@UAEJPAUtagVARIANT@@@Z 10038c2c f   nafxcw:wincore.obj
 0001:00037c4b       ?get_accSelection@XAccessible@CWnd@@UAGJPAUtagVARIANT@@@Z 10038c4b f   nafxcw:wincore.obj
 0001:00037c96       ?get_accState@?$IAccessibleProxyImpl@VCAccessibleProxy@ATL@@@ATL@@UAGJUtagVARIANT@@PAU3@@Z 10038c96 f i nafxcw:wincore.obj
 0001:00037cdf       ?get_accState@CWnd@@UAEJUtagVARIANT@@PAU2@@Z 10038cdf f   nafxcw:wincore.obj
 0001:00037d0d       ?get_accState@XAccessible@CWnd@@UAGJUtagVARIANT@@PAU3@@Z 10038d0d f   nafxcw:wincore.obj
 0001:00037d64       ?get_accValue@?$IAccessibleProxyImpl@VCAccessibleProxy@ATL@@@ATL@@UAGJUtagVARIANT@@PAPA_W@Z 10038d64 f i nafxcw:wincore.obj
 0001:00037dad       ?get_accValue@CWnd@@UAEJUtagVARIANT@@PAPA_W@Z 10038dad f   nafxcw:wincore.obj
 0001:00037ddb       ?get_accValue@XAccessible@CWnd@@UAGJUtagVARIANT@@PAPA_W@Z 10038ddb f   nafxcw:wincore.obj
 0001:00037e32       ?put_accName@?$IAccessibleProxyImpl@VCAccessibleProxy@ATL@@@ATL@@UAGJUtagVARIANT@@PA_W@Z 10038e32 f i nafxcw:wincore.obj
 0001:00037e32       ?put_accValue@?$IAccessibleProxyImpl@VCAccessibleProxy@ATL@@@ATL@@UAGJUtagVARIANT@@PA_W@Z 10038e32 f i nafxcw:wincore.obj
 0001:00037e4d       ?put_accName@CWnd@@UAEJUtagVARIANT@@PA_W@Z 10038e4d f   nafxcw:wincore.obj
 0001:00037e4d       ?put_accValue@CWnd@@UAEJUtagVARIANT@@PA_W@Z 10038e4d f   nafxcw:wincore.obj
 0001:00037e7b       ?put_accName@XAccessible@CWnd@@UAGJUtagVARIANT@@PA_W@Z 10038e7b f   nafxcw:wincore.obj
 0001:00037ed2       ?put_accValue@XAccessible@CWnd@@UAGJUtagVARIANT@@PA_W@Z 10038ed2 f   nafxcw:wincore.obj
 0001:00037f29       _CommctrlIsolationAwarePrivatetRgCebPnQQeRff_pbZPgYQP_QYY@4 10038f29 f i nafxcw:wincore.obj
 0001:00037fcf       _InlineIsEqualGUID         10038fcf f i nafxcw:wincore.obj
 0001:00037fff       _IsolationAwareCreateWindowExA@48 10038fff f i nafxcw:wincore.obj
 0001:000380c7       _IsolationAwareGetClassInfoExA@12 100390c7 f i nafxcw:wincore.obj
 0001:00038174       _IsolationAwareInitCommonControlsEx@4 10039174 f i nafxcw:wincore.obj
 0001:0003823c       _IsolationAwareLoadLibraryExW@12 1003923c f i nafxcw:wincore.obj
 0001:000382e9       _IsolationAwareLoadLibraryW@4 100392e9 f i nafxcw:wincore.obj
 0001:00038390       _IsolationAwarePrivatezlybNQyVOeNelJ@4 10039390 f i nafxcw:wincore.obj
 0001:0003839a       _IsolationAwarePrivatezlybNQyVOeNeln@4 1003939a f i nafxcw:wincore.obj
 0001:000383a4       _IsolationAwareRegisterClassA@4 100393a4 f i nafxcw:wincore.obj
 0001:0003844f       __snprintf_s               1003944f f i nafxcw:wincore.obj
 0001:0003846e       __vsnprintf_s_l            1003946e f i nafxcw:wincore.obj
 0001:0003849e       ?AttachControlSite@CWnd@@IAEXPAVCHandleMap@@@Z 1003949e f   nafxcw:winocc.obj
 0001:000384ec       ?AttachControlSite@CWnd@@QAEXPAV1@I@Z 100394ec f   nafxcw:winocc.obj
 0001:0003851f       ?CheckDlgButton@CWnd@@QAEXHI@Z 1003951f f   nafxcw:winocc.obj
 0001:00038559       ?EnableWindow@CWnd@@QAEHH@Z 10039559 f   nafxcw:winocc.obj
 0001:00038590       ?GetControlUnknown@CWnd@@QAEPAUIUnknown@@XZ 10039590 f   nafxcw:winocc.obj
 0001:0003859c       ?GetDlgCtrlID@CWnd@@QBEHXZ 1003959c f   nafxcw:winocc.obj
 0001:000385c7       ?GetDlgItem@CWnd@@QBEPAV1@H@Z 100395c7 f   nafxcw:winocc.obj
 0001:00038601       ?GetDlgItem@CWnd@@QBEXHPAPAUHWND__@@@Z 10039601 f   nafxcw:winocc.obj
 0001:0003863d       ?GetExStyle@CWnd@@QBEKXZ   1003963d f   nafxcw:winocc.obj
 0001:00038667       ?GetOleControlSite@CWnd@@QBEPAVCOleControlSite@@I@Z 10039667 f   nafxcw:winocc.obj
 0001:00038691       ?GetStyle@CWnd@@QBEKXZ     10039691 f   nafxcw:winocc.obj
 0001:000386bb       ?GetWindowTextA@CWnd@@QBEHPADH@Z 100396bb f   nafxcw:winocc.obj
 0001:00038749       ?IsDialogMessageA@CWnd@@QAEHPAUtagMSG@@@Z 10039749 f   nafxcw:winocc.obj
 0001:0003878a       ?IsWindowEnabled@CWnd@@QBEHXZ 1003978a f   nafxcw:winocc.obj
 0001:000387b5       ?ModifyStyle@CWnd@@QAEHKKI@Z 100397b5 f   nafxcw:winocc.obj
 0001:000387f7       ?ModifyStyleEx@CWnd@@QAEHKKI@Z 100397f7 f   nafxcw:winocc.obj
 0001:00038839       ?MoveWindow@CWnd@@QAEXHHHHH@Z 10039839 f   nafxcw:winocc.obj
 0001:00038885       ?OnAmbientProperty@CWnd@@UAEHPAVCOleControlSite@@JPAUtagVARIANT@@@Z 10039885 f   nafxcw:winocc.obj
 0001:000388ad       ?PaintWindowlessControls@CWnd@@QAEHPAVCDC@@@Z 100398ad f   nafxcw:winocc.obj
 0001:000388da       ?SetDlgCtrlID@CWnd@@QAEHH@Z 100398da f   nafxcw:winocc.obj
 0001:00038913       ?SetFocus@CWnd@@QAEPAV1@XZ 10039913 f   nafxcw:winocc.obj
 0001:0003898c       ?SetWindowPos@CWnd@@QAEHPBV1@HHHHI@Z 1003998c f   nafxcw:winocc.obj
 0001:000389e9       ?SetWindowTextA@CWnd@@QAEXPBD@Z 100399e9 f   nafxcw:winocc.obj
 0001:00038a3b       ?ShowWindow@CWnd@@QAEHH@Z  10039a3b f   nafxcw:winocc.obj
 0001:00038a72       ??0CHandleMap@@QAE@PAUCRuntimeClass@@P6GXPAVCObject@@@Z2IH@Z 10039a72 f   nafxcw:winhand.obj
 0001:00038afa       ??1CHandleMap@@UAE@XZ      10039afa f i nafxcw:winhand.obj
 0001:00038b50       ??_GCHandleMap@@UAEPAXI@Z  10039b50 f i nafxcw:winhand.obj
 0001:00038b50       ??_ECHandleMap@@UAEPAXI@Z  10039b50 f i nafxcw:winhand.obj
 0001:00038b72       ?DeleteTemp@CHandleMap@@QAEXXZ 10039b72 f   nafxcw:winhand.obj
 0001:00038be3       ?FromHandle@CHandleMap@@QAEPAVCObject@@PAX@Z 10039be3 f   nafxcw:winhand.obj
 0001:00038ca4       ??HATL@@YA?AV?$CStringT@DV?$StrTraitMFC@DV?$ChTraitsCRT@D@ATL@@@@@0@ABV10@PBD@Z 10039ca4 f i nafxcw:appui2.obj
 0001:00038d03       ?GetBuffer@?$CSimpleStringT@D$0A@@ATL@@QAEPADXZ 10039d03 f i nafxcw:appui2.obj
 0001:00038d1a       ?DeleteSubKey@CRegKey@ATL@@QAEJPBD@Z 10039d1a f i nafxcw:olereg.obj
 0001:00038da2       ?Find@?$CStringT@DV?$StrTraitMFC@DV?$ChTraitsCRT@D@ATL@@@@@ATL@@QBEHDH@Z 10039da2 f i nafxcw:olereg.obj
 0001:00038dd6       ?Left@?$CStringT@DV?$StrTraitMFC@DV?$ChTraitsCRT@D@ATL@@@@@ATL@@QBE?AV12@H@Z 10039dd6 f i nafxcw:olereg.obj
 0001:00038e1b       ?Open@CRegKey@ATL@@QAEJPAUHKEY__@@PBDK@Z 10039e1b f i nafxcw:olereg.obj
 0001:00038e70       ?RecurseDeleteKey@CRegKey@ATL@@QAEJPBD@Z 10039e70 f i nafxcw:olereg.obj
 0001:00038f55       ?SetStringValue@CRegKey@ATL@@QAEJPBD0K@Z 10039f55 f i nafxcw:olereg.obj
 0001:00038f89       ??0CFile@@QAE@PAX@Z        10039f89 f   nafxcw:filecore.obj
 0001:00038fbc       ??0CFile@@QAE@XZ           10039fbc f   nafxcw:filecore.obj
 0001:00038feb       ??0CFileException@@QAE@HJPBD@Z 10039feb f i nafxcw:filecore.obj
 0001:0003904c       ??1CFile@@UAE@XZ           1003a04c f   nafxcw:filecore.obj
 0001:0003919f       ??1CFileException@@UAE@XZ  1003a19f f i nafxcw:filecore.obj
 0001:000391b0       ??_ECFile@@UAEPAXI@Z       1003a1b0 f i nafxcw:filecore.obj
 0001:000391b0       ??_GCFile@@UAEPAXI@Z       1003a1b0 f i nafxcw:filecore.obj
 0001:000391e0       ??_GCFileException@@UAEPAXI@Z 1003a1e0 f i nafxcw:filecore.obj
 0001:000391e0       ??_ECFileException@@UAEPAXI@Z 1003a1e0 f i nafxcw:filecore.obj
 0001:0003921c       ?Abort@CFile@@UAEXXZ       1003a21c f   nafxcw:filecore.obj
 0001:0003923b       ?AfxFullPath@@YGHPADPBD@Z  1003a23b f   nafxcw:filecore.obj
 0001:0003924f       ?AfxGetFileTitle@@YGIPBDPADI@Z 1003a24f f   nafxcw:filecore.obj
 0001:000392c4       ?AfxGetRoot@@YGXPBDAAV?$CStringT@DV?$StrTraitMFC@DV?$ChTraitsCRT@D@ATL@@@@@ATL@@@Z 1003a2c4 f   nafxcw:filecore.obj
 0001:0003930e       ?AtlHresultFromLastError@ATL@@YAJXZ 1003a30e f i nafxcw:filecore.obj
 0001:00039321       ?Close@CFile@@UAEXXZ       1003a321 f   nafxcw:filecore.obj
 0001:00039363       ?CreateFileA@CAtlTransactionManager@ATL@@QAEPAXPBDKKPAU_SECURITY_ATTRIBUTES@@KKPAX@Z 1003a363 f i nafxcw:filecore.obj
 0001:000393e1       ?Duplicate@CFile@@UBEPAV1@XZ 1003a3e1 f   nafxcw:filecore.obj
 0001:00039477       ?Flush@CFile@@UAEXXZ       1003a477 f   nafxcw:filecore.obj
 0001:0003949e       ?GetLength@CFile@@UBE_KXZ  1003a49e f   nafxcw:filecore.obj
 0001:000394dd       ?GetPosition@CFile@@UBE_KXZ 1003a4dd f   nafxcw:filecore.obj
 0001:00039527       ?GetRuntimeClass@CFile@@UBEPAUCRuntimeClass@@XZ 1003a527 f   nafxcw:filecore.obj
 0001:0003952d       ?LockRange@CFile@@UAEX_K0@Z 1003a52d f   nafxcw:filecore.obj
 0001:00039560       ?Open@CFile@@UAEHPBDIPAVCAtlTransactionManager@ATL@@PAVCFileException@@@Z 1003a560 f   nafxcw:filecore.obj
 0001:0003958d       ?Open@CFile@@UAEHPBDIPAVCFileException@@@Z 1003a58d f   nafxcw:filecore.obj
 0001:0003978e       ?Read@CFile@@UAEIPAXI@Z    1003a78e f   nafxcw:filecore.obj
 0001:000397cf       ?Seek@CFile@@UAE_K_JI@Z    1003a7cf f   nafxcw:filecore.obj
 0001:00039820       ?SetFilePath@CFile@@UAEXPBD@Z 1003a820 f i nafxcw:filecore.obj
 0001:0003984c       ?SetLength@CFile@@UAEX_K@Z 1003a84c f   nafxcw:filecore.obj
 0001:0003988e       ?StringCchLengthA@@YGJPBDIPAI@Z 1003a88e f i nafxcw:filecore.obj
 0001:0003990d       ?UnlockRange@CFile@@UAEX_K0@Z 1003a90d f   nafxcw:filecore.obj
 0001:00039940       ?Write@CFile@@UAEXPBXI@Z   1003a940 f   nafxcw:filecore.obj
 0001:00039992       ?_AfxFillExceptionInfo@@YGXPAVCFileException@@PBD@Z 1003a992 f   nafxcw:filecore.obj
 0001:000399d4       ?_AfxFullPath2@@YGHPADPBDPAVCFileException@@@Z 1003a9d4 f   nafxcw:filecore.obj
 0001:00039b9f       _CommdlgIsolationAwarePrivatetRgCebPnQQeRff_pbZQYTQP_QYY@4 1003ab9f f i nafxcw:filecore.obj
 0001:00039c45       _IsolationAwareGetFileTitleA@12 1003ac45 f i nafxcw:filecore.obj
 0001:00039d2c       ?AfxCancelModes@@YGXPAUHWND__@@@Z 1003ad2c f   nafxcw:winutil.obj
 0001:00039da6       ?AfxCriticalNewHandler@@YAHI@Z 1003ada6 f   nafxcw:winutil.obj
 0001:00039df8       ?AfxDeleteObject@@YGXPAPAX@Z 1003adf8 f   nafxcw:winutil.obj
 0001:00039e1e       ?AfxGlobalFree@@YGXPAX@Z   1003ae1e f   nafxcw:winutil.obj
 0001:00039e51       ?AfxSetWindowText@@YGXPAUHWND__@@PBD@Z 1003ae51 f   nafxcw:winutil.obj
 0001:00039ee2       ?GetCommCtrlVersion@@YAJPAK0@Z 1003aee2 f   nafxcw:winutil.obj
 0001:00039f84       ?_AfxChildWindowFromPoint@@YGPAUHWND__@@PAU1@UtagPOINT@@@Z 1003af84 f   nafxcw:winutil.obj
 0001:0003a023       ?_AfxCompareClassName@@YGHPAUHWND__@@PBD@Z 1003b023 f   nafxcw:winutil.obj
 0001:0003a071       ?_AfxIsComboBoxControl@@YGHPAUHWND__@@I@Z 1003b071 f   nafxcw:winutil.obj
 0001:0003a0d9       ?_AfxTopChildWindowFromPoint@@YGPAUHWND__@@PAU1@UtagPOINT@@@Z 1003b0d9 f   nafxcw:winutil.obj
 0001:0003a19d       ?AfxFormatString1@@YGXAAV?$CStringT@DV?$StrTraitMFC@DV?$ChTraitsCRT@D@ATL@@@@@ATL@@IPBD@Z 1003b19d f   nafxcw:apphelp.obj
 0001:0003a1b5       ?AfxFormatStrings@@YGXAAV?$CStringT@DV?$StrTraitMFC@DV?$ChTraitsCRT@D@ATL@@@@@ATL@@IPBQBDH@Z 1003b1b5 f   nafxcw:apphelp.obj
 0001:0003a216       ?AfxFormatStrings@@YGXAAV?$CStringT@DV?$StrTraitMFC@DV?$ChTraitsCRT@D@ATL@@@@@ATL@@PBDPBQBDH@Z 1003b216 f   nafxcw:apphelp.obj
 0001:0003a365       ?CreateObject@CByteArray@@SGPAVCObject@@XZ 1003b365 f   nafxcw:array_b.obj
 0001:0003a385       ??0CByteArray@@QAE@XZ      1003b385 f   nafxcw:array_b.obj
 0001:0003a39c       ??_ECByteArray@@UAEPAXI@Z  1003b39c f i nafxcw:array_b.obj
 0001:0003a39c       ??_GCByteArray@@UAEPAXI@Z  1003b39c f i nafxcw:array_b.obj
 0001:0003a3d6       ?GetRuntimeClass@CByteArray@@UBEPAUCRuntimeClass@@XZ 1003b3d6 f   nafxcw:array_b.obj
 0001:0003a3dc       ?Serialize@CByteArray@@UAEXAAVCArchive@@@Z 1003b3dc f   nafxcw:array_b.obj
 0001:0003a471       ?SetSize@CByteArray@@QAEXHH@Z 1003b471 f   nafxcw:array_b.obj
 0001:0003a5f1       ?DDX_CBIndex@@YGXPAVCDataExchange@@HAAH@Z 1003b5f1 f   nafxcw:dlgdata.obj
 0001:0003a647       ?DDX_CBString@@YGXPAVCDataExchange@@HAAV?$CStringT@DV?$StrTraitMFC@DV?$ChTraitsCRT@D@ATL@@@@@ATL@@@Z 1003b647 f   nafxcw:dlgdata.obj
 0001:0003a6fa       ?DDX_Check@@YGXPAVCDataExchange@@HAAH@Z 1003b6fa f   nafxcw:dlgdata.obj
 0001:0003a75f       ?DDX_Text@@YGXPAVCDataExchange@@HAAH@Z 1003b75f f   nafxcw:dlgdata.obj
 0001:0003a78a       ?DDX_Text@@YGXPAVCDataExchange@@HAAI@Z 1003b78a f   nafxcw:dlgdata.obj
 0001:0003a7b9       ?DDX_Text@@YGXPAVCDataExchange@@HAAV?$CStringT@DV?$StrTraitMFC@DV?$ChTraitsCRT@D@ATL@@@@@ATL@@@Z 1003b7b9 f   nafxcw:dlgdata.obj
 0001:0003a812       ?Fail@CDataExchange@@QAEXXZ 1003b812 f   nafxcw:dlgdata.obj
 0001:0003a862       ?PrepareCtrl@CDataExchange@@QAEPAUHWND__@@H@Z 1003b862 f   nafxcw:dlgdata.obj
 0001:0003a8a4       ?_Afx_DDX_TextWithFormat@@YAXPAVCDataExchange@@HPBDIZZ 1003b8a4 f   nafxcw:dlgdata.obj
 0001:0003a974       ___local_stdio_scanf_options 1003b974 f i nafxcw:dlgdata.obj
 0001:0003a97a       __snscanf_s                1003b97a f i nafxcw:dlgdata.obj
 0001:0003a9a4       ??0CBrush@@QAE@K@Z         1003b9a4 f   nafxcw:wingdi.obj
 0001:0003a9e8       ??0CClientDC@@QAE@PAVCWnd@@@Z 1003b9e8 f   nafxcw:wingdi.obj
 0001:0003aa3d       ??0CDC@@QAE@XZ             1003ba3d f   nafxcw:wingdi.obj
 0001:0003aa51       ??0CPaintDC@@QAE@PAVCWnd@@@Z 1003ba51 f   nafxcw:wingdi.obj
 0001:0003aaa6       ??0CPen@@QAE@HHK@Z         1003baa6 f   nafxcw:wingdi.obj
 0001:0003aaf0       ??0CWindowDC@@QAE@PAVCWnd@@@Z 1003baf0 f   nafxcw:wingdi.obj
 0001:0003ab45       ??1CBitmap@@UAE@XZ         1003bb45 f i nafxcw:wingdi.obj
 0001:0003ab45       ??1CPngImage@@UAE@XZ       1003bb45 f i nafxcw:afxtoolbarimages.obj
 0001:0003ab50       ??1CBrush@@UAE@XZ          1003bb50 f i nafxcw:wingdi.obj
 0001:0003ab5b       ??1CClientDC@@UAE@XZ       1003bb5b f   nafxcw:wingdi.obj
 0001:0003abaa       ??1CDC@@UAE@XZ             1003bbaa f   nafxcw:wingdi.obj
 0001:0003abf1       ??1CGdiObject@@UAE@XZ      1003bbf1 f i nafxcw:wingdi.obj
 0001:0003ad02       ??1CPaintDC@@UAE@XZ        1003bd02 f   nafxcw:wingdi.obj
 0001:0003ad56       ??1CPen@@UAE@XZ            1003bd56 f i nafxcw:wingdi.obj
 0001:0003ad61       ??1CWindowDC@@UAE@XZ       1003bd61 f   nafxcw:wingdi.obj
 0001:0003adb0       ??_GCBitmap@@UAEPAXI@Z     1003bdb0 f i nafxcw:wingdi.obj
 0001:0003adb0       ??_GCPngImage@@UAEPAXI@Z   1003bdb0 f i nafxcw:afxtoolbarimages.obj
 0001:0003adb0       ??_ECPngImage@@UAEPAXI@Z   1003bdb0 f i nafxcw:afxtoolbarimages.obj
 0001:0003adb0       ??_ECBitmap@@UAEPAXI@Z     1003bdb0 f i nafxcw:wingdi.obj
 0001:0003ade6       ??_GCBrush@@UAEPAXI@Z      1003bde6 f i nafxcw:wingdi.obj
 0001:0003ade6       ??_ECBrush@@UAEPAXI@Z      1003bde6 f i nafxcw:wingdi.obj
 0001:0003ae1c       ??_ECClientDC@@UAEPAXI@Z   1003be1c f i nafxcw:wingdi.obj
 0001:0003ae1c       ??_GCClientDC@@UAEPAXI@Z   1003be1c f i nafxcw:wingdi.obj
 0001:0003ae4c       ??_ECDC@@UAEPAXI@Z         1003be4c f i nafxcw:wingdi.obj
 0001:0003ae4c       ??_GCDC@@UAEPAXI@Z         1003be4c f i nafxcw:wingdi.obj
 0001:0003ae7c       ??_GCGdiObject@@UAEPAXI@Z  1003be7c f i nafxcw:wingdi.obj
 0001:0003ae7c       ??_ECGdiObject@@UAEPAXI@Z  1003be7c f i nafxcw:wingdi.obj
 0001:0003aeac       ??_GCPaintDC@@UAEPAXI@Z    1003beac f i nafxcw:wingdi.obj
 0001:0003aeac       ??_ECPaintDC@@UAEPAXI@Z    1003beac f i nafxcw:wingdi.obj
 0001:0003aedc       ??_GCPen@@UAEPAXI@Z        1003bedc f i nafxcw:wingdi.obj
 0001:0003aedc       ??_ECPen@@UAEPAXI@Z        1003bedc f i nafxcw:wingdi.obj
 0001:0003af12       ??_GCWindowDC@@UAEPAXI@Z   1003bf12 f i nafxcw:wingdi.obj
 0001:0003af12       ??_ECWindowDC@@UAEPAXI@Z   1003bf12 f i nafxcw:wingdi.obj
 0001:0003af42       ?AfxGetDitheredBitmap@@YGXABVCBitmap@@PAV1@KK@Z 1003bf42 f   nafxcw:wingdi.obj
 0001:0003b297       ?AfxGetGrayBitmap@@YGXABVCBitmap@@PAV1@K@Z 1003c297 f   nafxcw:wingdi.obj
 0001:0003b54c       ?AfxThrowResourceException@@YGXXZ 1003c54c f   nafxcw:wingdi.obj
 0001:0003b566       ?AfxThrowUserException@@YGXXZ 1003c566 f   nafxcw:wingdi.obj
 0001:0003b580       ?Attach@CDC@@QAEHPAUHDC__@@@Z 1003c580 f   nafxcw:wingdi.obj
 0001:0003b5c2       ?Attach@CGdiObject@@QAEHPAX@Z 1003c5c2 f   nafxcw:wingdi.obj
 0001:0003b5ee       ?ClientToScreen@CWnd@@QBEXPAUtagRECT@@@Z 1003c5ee f   nafxcw:wingdi.obj
 0001:0003b62d       ?Construct@?$ConstructDestruct@VCDC@@@@SGXPAVCObject@@@Z 1003c62d f i nafxcw:wingdi.obj
 0001:0003b64d       ?Construct@?$ConstructDestruct@VCGdiObject@@@@SGXPAVCObject@@@Z 1003c64d f i nafxcw:wingdi.obj
 0001:0003b666       ?CreateObject@CDC@@SGPAVCObject@@XZ 1003c666 f   nafxcw:wingdi.obj
 0001:0003b690       ?CreateObject@CGdiObject@@SGPAVCObject@@XZ 1003c690 f   nafxcw:wingdi.obj
 0001:0003b6b3       ?DeleteDC@CDC@@QAEHXZ      1003c6b3 f   nafxcw:wingdi.obj
 0001:0003b6c9       ?DeleteObject@CGdiObject@@QAEHXZ 1003c6c9 f   nafxcw:wingdi.obj
 0001:0003b6df       ?Detach@CDC@@QAEPAUHDC__@@XZ 1003c6df f   nafxcw:wingdi.obj
 0001:0003b71c       ?Detach@CGdiObject@@QAEPAXXZ 1003c71c f   nafxcw:wingdi.obj
 0001:0003b746       ?DrawTextA@CDC@@UAEHPBDHPAUtagRECT@@I@Z 1003c746 f i nafxcw:wingdi.obj
 0001:0003b762       ?DrawTextExA@CDC@@UAEHPADHPAUtagRECT@@IPAUtagDRAWTEXTPARAMS@@@Z 1003c762 f i nafxcw:wingdi.obj
 0001:0003b781       ?Escape@CDC@@UAEHHHPBDPAX@Z 1003c781 f i nafxcw:wingdi.obj
 0001:0003b79d       ?ExcludeClipRect@CDC@@QAEHPBUtagRECT@@@Z 1003c79d f   nafxcw:wingdi.obj
 0001:0003b7ea       ?ExtTextOutA@CDC@@UAEHHHIPBUtagRECT@@PBDIPAH@Z 1003c7ea f i nafxcw:wingdi.obj
 0001:0003b80f       ?FromHandle@CDC@@SGPAV1@PAUHDC__@@@Z 1003c80f f   nafxcw:wingdi.obj
 0001:0003b821       ?FromHandle@CGdiObject@@SGPAV1@PAX@Z 1003c821 f   nafxcw:wingdi.obj
 0001:0003b833       ?GetClipBox@CDC@@UBEHPAUtagRECT@@@Z 1003c833 f   nafxcw:wingdi.obj
 0001:0003b846       ?GetLayout@CDC@@QBEKXZ     1003c846 f   nafxcw:wingdi.obj
 0001:0003b850       ?GetRuntimeClass@CBitmap@@UBEPAUCRuntimeClass@@XZ 1003c850 f   nafxcw:wingdi.obj
 0001:0003b856       ?GetRuntimeClass@CBrush@@UBEPAUCRuntimeClass@@XZ 1003c856 f   nafxcw:wingdi.obj
 0001:0003b85c       ?GetRuntimeClass@CClientDC@@UBEPAUCRuntimeClass@@XZ 1003c85c f   nafxcw:wingdi.obj
 0001:0003b862       ?GetRuntimeClass@CDC@@UBEPAUCRuntimeClass@@XZ 1003c862 f   nafxcw:wingdi.obj
 0001:0003b868       ?GetRuntimeClass@CFont@@UBEPAUCRuntimeClass@@XZ 1003c868 f   nafxcw:wingdi.obj
 0001:0003b86e       ?GetRuntimeClass@CGdiObject@@UBEPAUCRuntimeClass@@XZ 1003c86e f   nafxcw:wingdi.obj
 0001:0003b874       ?GetRuntimeClass@CPaintDC@@UBEPAUCRuntimeClass@@XZ 1003c874 f   nafxcw:wingdi.obj
 0001:0003b87a       ?GetRuntimeClass@CPalette@@UBEPAUCRuntimeClass@@XZ 1003c87a f   nafxcw:wingdi.obj
 0001:0003b880       ?GetRuntimeClass@CPen@@UBEPAUCRuntimeClass@@XZ 1003c880 f   nafxcw:wingdi.obj
 0001:0003b886       ?GetRuntimeClass@CResourceException@@UBEPAUCRuntimeClass@@XZ 1003c886 f   nafxcw:wingdi.obj
 0001:0003b88c       ?GetRuntimeClass@CRgn@@UBEPAUCRuntimeClass@@XZ 1003c88c f   nafxcw:wingdi.obj
 0001:0003b892       ?GetRuntimeClass@CUserException@@UBEPAUCRuntimeClass@@XZ 1003c892 f   nafxcw:wingdi.obj
 0001:0003b898       ?GetRuntimeClass@CWindowDC@@UBEPAUCRuntimeClass@@XZ 1003c898 f   nafxcw:wingdi.obj
 0001:0003b89e       ?GrayStringA@CDC@@UAEHPAVCBrush@@P6GHPAUHDC__@@JH@ZJHHHHH@Z 1003c89e f i nafxcw:wingdi.obj
 0001:0003b8ce       ?IntersectClipRect@CDC@@QAEHPBUtagRECT@@@Z 1003c8ce f   nafxcw:wingdi.obj
 0001:0003b91b       ?LineTo@CDC@@QAEHHH@Z      1003c91b f   nafxcw:wingdi.obj
 0001:0003b950       ?MoveTo@CDC@@QAE?AVCPoint@@HH@Z 1003c950 f   nafxcw:wingdi.obj
 0001:0003b996       ?OffsetViewportOrg@CDC@@UAE?AVCPoint@@HH@Z 1003c996 f   nafxcw:wingdi.obj
 0001:0003b9dc       ?OffsetWindowOrg@CDC@@QAE?AVCPoint@@HH@Z 1003c9dc f   nafxcw:wingdi.obj
 0001:0003ba22       ?PtVisible@CDC@@UBEHHH@Z   1003ca22 f i nafxcw:wingdi.obj
 0001:0003ba38       ?RectVisible@CDC@@UBEHPBUtagRECT@@@Z 1003ca38 f i nafxcw:wingdi.obj
 0001:0003ba4b       ?ReleaseAttribDC@CDC@@UAEXXZ 1003ca4b f   nafxcw:wingdi.obj
 0001:0003ba50       ?ReleaseOutputDC@CDC@@UAEXXZ 1003ca50 f   nafxcw:wingdi.obj
 0001:0003ba55       ?RestoreDC@CDC@@UAEHH@Z    1003ca55 f   nafxcw:wingdi.obj
 0001:0003ba97       ?SaveDC@CDC@@UAEHXZ        1003ca97 f   nafxcw:wingdi.obj
 0001:0003baca       ?ScaleViewportExt@CDC@@UAE?AVCSize@@HHHH@Z 1003caca f   nafxcw:wingdi.obj
 0001:0003bb1c       ?ScaleWindowExt@CDC@@UAE?AVCSize@@HHHH@Z 1003cb1c f   nafxcw:wingdi.obj
 0001:0003bb6e       ?ScreenToClient@CWnd@@QBEXPAUtagRECT@@@Z 1003cb6e f   nafxcw:wingdi.obj
 0001:0003bbad       ?SelectClipRgn@CDC@@QAEHPAVCRgn@@@Z 1003cbad f   nafxcw:wingdi.obj
 0001:0003bbfa       ?SelectClipRgn@CDC@@QAEHPAVCRgn@@H@Z 1003cbfa f   nafxcw:wingdi.obj
 0001:0003bc4d       ?SelectGdiObject@CDC@@KGPAVCGdiObject@@PAUHDC__@@PAX@Z 1003cc4d f   nafxcw:wingdi.obj
 0001:0003bc66       ?SelectObject@CDC@@QAEHPAVCRgn@@@Z 1003cc66 f   nafxcw:wingdi.obj
 0001:0003bcb4       ?SelectObject@CDC@@QAEPAVCPen@@PAV2@@Z 1003ccb4 f   nafxcw:wingdi.obj
 0001:0003bcb4       ?SelectObject@CDC@@UAEPAVCFont@@PAV2@@Z 1003ccb4 f   nafxcw:wingdi.obj
 0001:0003bcb4       ?SelectObject@CDC@@QAEPAVCBrush@@PAV2@@Z 1003ccb4 f   nafxcw:wingdi.obj
 0001:0003bd05       ?SelectPalette@CDC@@QAEPAVCPalette@@PAV2@H@Z 1003cd05 f   nafxcw:wingdi.obj
 0001:0003bd29       ?SelectStockObject@CDC@@UAEPAVCGdiObject@@H@Z 1003cd29 f   nafxcw:wingdi.obj
 0001:0003bd6a       ?ShowButton@CMFCAutoHideButton@@UAEXH@Z 1003cd6a f   nafxcw:afxautohidebutton.obj
 0001:0003bd6a       ?SetAttribDC@CDC@@UAEXPAUHDC__@@@Z 1003cd6a f   nafxcw:wingdi.obj
 0001:0003bd77       ?SetBkColor@CDC@@UAEKK@Z   1003cd77 f   nafxcw:wingdi.obj
 0001:0003bdb0       ?SetBkMode@CDC@@QAEHH@Z    1003cdb0 f   nafxcw:wingdi.obj
 0001:0003bde8       ?SetLayout@CDC@@QAEKK@Z    1003cde8 f   nafxcw:wingdi.obj
 0001:0003bdfb       ?SetMapMode@CDC@@UAEHH@Z   1003cdfb f   nafxcw:wingdi.obj
 0001:0003be33       ?SetOutputDC@CDC@@UAEXPAUHDC__@@@Z 1003ce33 f   nafxcw:wingdi.obj
 0001:0003be40       ?SetPolyFillMode@CDC@@QAEHH@Z 1003ce40 f   nafxcw:wingdi.obj
 0001:0003be78       ?SetROP2@CDC@@QAEHH@Z      1003ce78 f   nafxcw:wingdi.obj
 0001:0003beb0       ?SetTextAlign@CDC@@QAEII@Z 1003ceb0 f   nafxcw:wingdi.obj
 0001:0003bee9       ?SetTextColor@CDC@@UAEKK@Z 1003cee9 f   nafxcw:wingdi.obj
 0001:0003bf22       ?SetViewportExt@CDC@@UAE?AVCSize@@HH@Z 1003cf22 f   nafxcw:wingdi.obj
 0001:0003bf68       ?SetViewportOrg@CDC@@UAE?AVCPoint@@HH@Z 1003cf68 f   nafxcw:wingdi.obj
 0001:0003bfae       ?SetWindowExt@CDC@@UAE?AVCSize@@HH@Z 1003cfae f   nafxcw:wingdi.obj
 0001:0003bff4       ?SetWindowOrg@CDC@@QAE?AVCPoint@@HH@Z 1003cff4 f   nafxcw:wingdi.obj
 0001:0003c03a       ?TabbedTextOutA@CDC@@UAE?AVCSize@@HHPBDHHPAHH@Z 1003d03a f i nafxcw:wingdi.obj
 0001:0003c072       ?TextOutA@CDC@@UAEHHHPBDH@Z 1003d072 f i nafxcw:wingdi.obj
 0001:0003c08e       ?afxMapHDC@@YGPAVCHandleMap@@H@Z 1003d08e f   nafxcw:wingdi.obj
 0001:0003c101       ?afxMapHGDIOBJ@@YGPAVCHandleMap@@H@Z 1003d101 f   nafxcw:wingdi.obj
 0001:0003c174       ??0CChevronOwnerDrawMenu@@QAE@XZ 1003d174 f   nafxcw:winmenu.obj
 0001:0003c1fd       ??1CChevronOwnerDrawMenu@@UAE@XZ 1003d1fd f i nafxcw:winmenu.obj
 0001:0003c24f       ??1CFont@@UAE@XZ           1003d24f f i nafxcw:winmenu.obj
 0001:0003c25a       ??1CMenu@@UAE@XZ           1003d25a f i nafxcw:winmenu.obj
 0001:0003c294       ??_ECChevronOwnerDrawMenu@@UAEPAXI@Z 1003d294 f i nafxcw:winmenu.obj
 0001:0003c294       ??_GCChevronOwnerDrawMenu@@UAEPAXI@Z 1003d294 f i nafxcw:winmenu.obj
 0001:0003c2c4       ??_GCFont@@UAEPAXI@Z       1003d2c4 f i nafxcw:winmenu.obj
 0001:0003c2c4       ??_ECFont@@UAEPAXI@Z       1003d2c4 f i nafxcw:winmenu.obj
 0001:0003c2fa       ??_GCMenu@@UAEPAXI@Z       1003d2fa f i nafxcw:winmenu.obj
 0001:0003c2fa       ??_ECMenu@@UAEPAXI@Z       1003d2fa f i nafxcw:winmenu.obj
 0001:0003c35e       ?Attach@CMenu@@QAEHPAUHMENU__@@@Z 1003d35e f   nafxcw:winmenu.obj
 0001:0003c38a       ?Construct@?$ConstructDestruct@VCMenu@@@@SGXPAVCObject@@@Z 1003d38a f i nafxcw:winmenu.obj
 0001:0003c3a3       ?CreateObject@CMenu@@SGPAVCObject@@XZ 1003d3a3 f   nafxcw:winmenu.obj
 0001:0003c3c6       ?DestroyMenu@CMenu@@QAEHXZ 1003d3c6 f   nafxcw:winmenu.obj
 0001:0003c3dc       ?Detach@CMenu@@QAEPAUHMENU__@@XZ 1003d3dc f   nafxcw:winmenu.obj
 0001:0003c406       ?DrawItem@CChevronOwnerDrawMenu@@UAEXPAUtagDRAWITEMSTRUCT@@@Z 1003d406 f   nafxcw:winmenu.obj
 0001:0003c945       ?FromHandle@CMenu@@SGPAV1@PAUHMENU__@@@Z 1003d945 f   nafxcw:winmenu.obj
 0001:0003c957       ?FromHandlePermanent@CMenu@@SGPAV1@PAUHMENU__@@@Z 1003d957 f   nafxcw:winmenu.obj
 0001:0003c97b       ?GetMenuStringA@CMenu@@QBEHIAAV?$CStringT@DV?$StrTraitMFC@DV?$ChTraitsCRT@D@ATL@@@@@ATL@@I@Z 1003d97b f   nafxcw:winmenu.obj
 0001:0003c9d3       ?GetRuntimeClass@CMenu@@UBEPAUCRuntimeClass@@XZ 1003d9d3 f   nafxcw:winmenu.obj
 0001:0003c9d9       ?GetTextExtent@CDC@@QBE?AVCSize@@ABV?$CStringT@DV?$StrTraitMFC@DV?$ChTraitsCRT@D@ATL@@@@@ATL@@@Z 1003d9d9 f i nafxcw:winmenu.obj
 0001:0003ca06       ?MeasureItem@CChevronOwnerDrawMenu@@UAEXPAUtagMEASUREITEMSTRUCT@@@Z 1003da06 f   nafxcw:winmenu.obj
 0001:0003cb59       ?afxMapHMENU@@YGPAVCHandleMap@@H@Z 1003db59 f   nafxcw:winmenu.obj
 0001:0003cbcc       ??$SafeRelease@UID2D1HwndRenderTarget@@@@YAXPAPAUID2D1HwndRenderTarget@@@Z 1003dbcc f i nafxcw:afxrendertarget.obj
 0001:0003cbf1       ??0CD2DSizeU@@QAE@II@Z     1003dbf1 f   nafxcw:afxrendertarget.obj
 0001:0003cc05       ??0_AFX_D2D_STATE@@QAE@XZ  1003dc05 f   nafxcw:afxrendertarget.obj
 0001:0003cc22       ??_G_AFX_D2D_STATE@@UAEPAXI@Z 1003dc22 f i nafxcw:afxrendertarget.obj
 0001:0003cc22       ??_E_AFX_D2D_STATE@@UAEPAXI@Z 1003dc22 f i nafxcw:afxrendertarget.obj
 0001:0003cc86       ?BeginDraw@CRenderTarget@@QAEXXZ 1003dc86 f   nafxcw:afxrendertarget.obj
 0001:0003ccde       ?BindDC@CDCRenderTarget@@QAEHABVCDC@@ABVCRect@@@Z 1003dcde f   nafxcw:afxrendertarget.obj
 0001:0003cd1a       ?Create@CDCRenderTarget@@QAEHABUD2D1_RENDER_TARGET_PROPERTIES@@@Z 1003dd1a f   nafxcw:afxrendertarget.obj
 0001:0003cda1       ?Create@CHwndRenderTarget@@QAEHPAUHWND__@@@Z 1003dda1 f   nafxcw:afxrendertarget.obj
 0001:0003cebc       ?CreateObject@?$CProcessLocal@V_AFX_D2D_STATE@@@@SGPAVCNoTrackObject@@XZ 1003debc f i nafxcw:afxrendertarget.obj
 0001:0003cedb       ?EndDraw@CRenderTarget@@QAEJXZ 1003dedb f   nafxcw:afxrendertarget.obj
 0001:0003cf02       ?InitD2D@_AFX_D2D_STATE@@QAEHW4D2D1_FACTORY_TYPE@@W4DWRITE_FACTORY_TYPE@@@Z 1003df02 f   nafxcw:afxrendertarget.obj
 0001:0003cfef       ?ReCreate@CHwndRenderTarget@@QAEHPAUHWND__@@@Z 1003dfef f   nafxcw:afxrendertarget.obj
 0001:0003d06a       ?ReleaseD2DRefs@_AFX_D2D_STATE@@QAEXXZ 1003e06a f   nafxcw:afxrendertarget.obj
 0001:0003d0fb       ?Resize@CHwndRenderTarget@@QAEHABVCD2DSizeU@@@Z 1003e0fb f   nafxcw:afxrendertarget.obj
 0001:0003d11e       ?Resize@ID2D1HwndRenderTarget@@QAEJABUD2D_SIZE_U@@@Z 1003e11e f i nafxcw:afxrendertarget.obj
 0001:0003d13d       ?VerifyResource@CRenderTarget@@IAEHPAVCD2DResource@@@Z 1003e13d f   nafxcw:afxrendertarget.obj
 0001:0003d185       ?DDX_Control@@YGXPAVCDataExchange@@HAAVCWnd@@@Z 1003e185 f   nafxcw:wincore2.obj
 0001:0003d243       ?ExecuteDlgInit@CWnd@@QAEHPAX@Z 1003e243 f   nafxcw:wincore2.obj
 0001:0003d381       ?GetHostWndRect@CMFCDynamicLayout@@QBEXAAVCRect@@@Z 1003e381 f   nafxcw:wincore2.obj
 0001:0003d487       ??0CComBSTR@ATL@@QAE@PBD@Z 1003e487 f i nafxcw:appcore.obj
 0001:0003d4bc       ?A2WBSTR@@YAPA_WPBDH@Z     1003e4bc f i nafxcw:appcore.obj
 0001:0003d528       ?AfxPostQuitMessage@@YGXH@Z 1003e528 f   nafxcw:appcore.obj
 0001:0003d552       ?DevModeChange@CWinApp@@QAEXPAD@Z 1003e552 f   nafxcw:appcore.obj
 0001:0003d5f1       ?Find@?$CStringT@DV?$StrTraitMFC@DV?$ChTraitsCRT@D@ATL@@@@@ATL@@QBEHPBDH@Z 1003e5f1 f i nafxcw:appcore.obj
 0001:0003d628       ?Right@?$CStringT@DV?$StrTraitMFC@DV?$ChTraitsCRT@D@ATL@@@@@ATL@@QBE?AV12@H@Z 1003e628 f i nafxcw:appcore.obj
 0001:0003d676       ?AfxOleCanExitApp@@YGHXZ   1003e676 f   nafxcw:olelock.obj
 0001:0003d686       ?AfxOleSetUserCtrl@@YGXH@Z 1003e686 f   nafxcw:olelock.obj
 0001:0003d698       ??$SerializeElements@PAVCPropertyPage@@@@YGXAAVCArchive@@PAPAVCPropertyPage@@H@Z 1003e698 f i nafxcw:afxtoolbarscustomizedialog.obj
 0001:0003d698       ??$SerializeElements@PAVCMFCVisualManagerBitmapCacheItem@CMFCVisualManagerBitmapCache@@@@YGXAAVCArchive@@PAPAVCMFCVisualManagerBitmapCacheItem@CMFCVisualManagerBitmapCache@@H@Z 1003e698 f i nafxcw:afxvisualmanageroffice2007.obj
 0001:0003d698       ??$SerializeElements@PAVCImageList@@@@YGXAAVCArchive@@PAPAVCImageList@@H@Z 1003e698 f i nafxcw:afxmdiclientareawnd.obj
 0001:0003d698       ??$SerializeElements@PAVCMFCRibbonStatusBarPane@@@@YGXAAVCArchive@@PAPAVCMFCRibbonStatusBarPane@@H@Z 1003e698 f i nafxcw:afxribbonstatusbarpane.obj
 0001:0003d698       ??$SerializeElements@PAX@@YGXAAVCArchive@@PAPAXH@Z 1003e698 f i nafxcw:afxmenuhash.obj
 0001:0003d698       ??$SerializeElements@PAVCMFCRibbonPanel@@@@YGXAAVCArchive@@PAPAVCMFCRibbonPanel@@H@Z 1003e698 f i nafxcw:afxribboncategory.obj
 0001:0003d698       ??$SerializeElements@W4LoadArrayObjType@CArchive@@@@YGXAAVCArchive@@PAW4LoadArrayObjType@0@H@Z 1003e698 f i nafxcw:arcobj.obj
 0001:0003d698       ??$SerializeElements@PAVCWnd@@@@YGXAAVCArchive@@PAPAVCWnd@@H@Z 1003e698 f i nafxcw:afxmdiclientareawnd.obj
 0001:0003d698       ??$SerializeElements@I@@YGXAAVCArchive@@PAIH@Z 1003e698 f i nafxcw:afxvslistbox.obj
 0001:0003d698       ??$SerializeElements@PAVCPane@@@@YGXAAVCArchive@@PAPAVCPane@@H@Z 1003e698 f i nafxcw:afxdockingmanager.obj
 0001:0003d698       ??$SerializeElements@H@@YGXAAVCArchive@@PAHH@Z 1003e698 f i nafxcw:afxvslistbox.obj
 0001:0003d698       ??$SerializeElements@PAVCMFCRibbonKeyTip@@@@YGXAAVCArchive@@PAPAVCMFCRibbonKeyTip@@H@Z 1003e698 f i nafxcw:afxribbonbar.obj
 0001:0003d698       ??$SerializeElements@PAUAFX_DYNAMIC_LAYOUT_ITEM@@@@YGXAAVCArchive@@PAPAUAFX_DYNAMIC_LAYOUT_ITEM@@H@Z 1003e698 f i nafxcw:afxlayout.obj
 0001:0003d698       ??$SerializeElements@PAVCObList@@@@YGXAAVCArchive@@PAPAVCObList@@H@Z 1003e698 f i nafxcw:afxcontextmenumanager.obj
 0001:0003d698       ??$SerializeElements@PAVCMDIChildWndEx@@@@YGXAAVCArchive@@PAPAVCMDIChildWndEx@@H@Z 1003e698 f i nafxcw:afxmdiclientareawnd.obj
 0001:0003d698       ??$SerializeElements@PAVCMFCToolBarButton@@@@YGXAAVCArchive@@PAPAVCMFCToolBarButton@@H@Z 1003e698 f i nafxcw:afxtoolbar.obj
 0001:0003d698       ??$SerializeElements@PAUHINSTANCE__@@@@YGXAAVCArchive@@PAPAUHINSTANCE__@@H@Z 1003e698 f i nafxcw:afxtoolbarimages.obj
 0001:0003d698       ??$SerializeElements@PAVCMFCRibbonContextCaption@@@@YGXAAVCArchive@@PAPAVCMFCRibbonContextCaption@@H@Z 1003e698 f i nafxcw:afxribbonquickaccesstoolbar.obj
 0001:0003d698       ??$SerializeElements@PAVCFrameWnd@@@@YGXAAVCArchive@@PAPAVCFrameWnd@@H@Z 1003e698 f i nafxcw:afxframeimpl.obj
 0001:0003d698       ??$SerializeElements@PAVCMFCPropertyGridProperty@@@@YGXAAVCArchive@@PAPAVCMFCPropertyGridProperty@@H@Z 1003e698 f i nafxcw:afxpropertygridctrl.obj
 0001:0003d698       ??$SerializeElements@K@@YGXAAVCArchive@@PAKH@Z 1003e698 f i nafxcw:afxcolorbutton.obj
 0001:0003d698       ??$SerializeElements@PAUHICON__@@@@YGXAAVCArchive@@PAPAUHICON__@@H@Z 1003e698 f i nafxcw:afxbasetabctrl.obj
 0001:0003d698       ??$SerializeElements@PAVCMFCButton@@@@YGXAAVCArchive@@PAPAVCMFCButton@@H@Z 1003e698 f i nafxcw:afxvslistbox.obj
 0001:0003d698       ??$SerializeElements@PAVCMFCRibbonBaseElement@@@@YGXAAVCArchive@@PAPAVCMFCRibbonBaseElement@@H@Z 1003e698 f i nafxcw:afxribbonbutton.obj
 0001:0003d698       ??$SerializeElements@J@@YGXAAVCArchive@@PAJH@Z 1003e698 f i nafxcw:afxribboncolorbutton.obj
 0001:0003d698       ??$SerializeElements@PAU_ITEMIDLIST@@@@YGXAAVCArchive@@PAPAU_ITEMIDLIST@@H@Z 1003e698 f i nafxcw:afxshelltreectrl.obj
 0001:0003d698       ??$SerializeElements@PAUHMENU__@@@@YGXAAVCArchive@@PAPAUHMENU__@@H@Z 1003e698 f i nafxcw:afxcontextmenumanager.obj
 0001:0003d698       ??$SerializeElements@PAUHWND__@@@@YGXAAVCArchive@@PAPAUHWND__@@H@Z 1003e698 f i nafxcw:afxtabctrl.obj
 0001:0003d73a       ??$SerializeElements@UItem@CMFCDynamicLayoutData@@@@YGXAAVCArchive@@PAUItem@CMFCDynamicLayoutData@@H@Z 1003e73a f i nafxcw:afxlayout.obj
 0001:0003d7dc       ??0?$CList@PAUAFX_DYNAMIC_LAYOUT_ITEM@@PAU1@@@QAE@H@Z 1003e7dc f i nafxcw:afxlayout.obj
 0001:0003d802       ??0?$CList@UItem@CMFCDynamicLayoutData@@AAU12@@@QAE@H@Z 1003e802 f i nafxcw:afxlayout.obj
 0001:0003d828       ??0AFX_DYNAMIC_LAYOUT_ITEM@@QAE@PAUHWND__@@ABUMoveSettings@CMFCDynamicLayout@@ABUSizeSettings@3@@Z 1003e828 f i nafxcw:afxlayout.obj
 0001:0003d862       ??0CMFCDynamicLayout@@QAE@XZ 1003e862 f   nafxcw:afxlayout.obj
 0001:0003d88c       ??1CMFCDynamicLayout@@UAE@XZ 1003e88c f   nafxcw:afxlayout.obj
 0001:0003d8f0       ??1CMFCDynamicLayoutData@@QAE@XZ 1003e8f0 f i nafxcw:afxlayout.obj
 0001:0003d92e       ??_G?$CList@PAUAFX_DYNAMIC_LAYOUT_ITEM@@PAU1@@@UAEPAXI@Z 1003e92e f i nafxcw:afxlayout.obj
 0001:0003d92e       ??_E?$CList@PAUAFX_DYNAMIC_LAYOUT_ITEM@@PAU1@@@UAEPAXI@Z 1003e92e f i nafxcw:afxlayout.obj
 0001:0003d992       ??_G?$CList@UItem@CMFCDynamicLayoutData@@AAU12@@@UAEPAXI@Z 1003e992 f i nafxcw:afxlayout.obj
 0001:0003d992       ??_E?$CList@UItem@CMFCDynamicLayoutData@@AAU12@@@UAEPAXI@Z 1003e992 f i nafxcw:afxlayout.obj
 0001:0003d9f6       ??_GCMFCDynamicLayout@@UAEPAXI@Z 1003e9f6 f i nafxcw:afxlayout.obj
 0001:0003d9f6       ??_ECMFCDynamicLayout@@UAEPAXI@Z 1003e9f6 f i nafxcw:afxlayout.obj
 0001:0003da26       ?AddItem@CMFCDynamicLayout@@QAEHPAUHWND__@@UMoveSettings@1@USizeSettings@1@@Z 1003ea26 f   nafxcw:afxlayout.obj
 0001:0003dac8       ?AddTail@?$CList@PAVCMFCButton@@PAV1@@@QAEPAU__POSITION@@PAVCMFCButton@@@Z 1003eac8 f i nafxcw:afxvslistbox.obj
 0001:0003dac8       ?AddTail@?$CList@PAVCFrameWnd@@PAV1@@@QAEPAU__POSITION@@PAVCFrameWnd@@@Z 1003eac8 f i nafxcw:afxframeimpl.obj
 0001:0003dac8       ?AddTail@?$CList@II@@QAEPAU__POSITION@@I@Z 1003eac8 f i nafxcw:afxtoolbarimages.obj
 0001:0003dac8       ?AddTail@?$CList@PAUHINSTANCE__@@PAU1@@@QAEPAU__POSITION@@PAUHINSTANCE__@@@Z 1003eac8 f i nafxcw:afxtoolbarimages.obj
 0001:0003dac8       ?AddTail@?$CList@PAU_ITEMIDLIST@@PAU1@@@QAEPAU__POSITION@@PAU_ITEMIDLIST@@@Z 1003eac8 f i nafxcw:afxshelltreectrl.obj
 0001:0003dac8       ?AddTail@?$CList@PAVCMDIChildWndEx@@PAV1@@@QAEPAU__POSITION@@PAVCMDIChildWndEx@@@Z 1003eac8 f i nafxcw:afxmdiclientareawnd.obj
 0001:0003dac8       ?AddTail@?$CList@PAVCPropertyPage@@PAV1@@@QAEPAU__POSITION@@PAVCPropertyPage@@@Z 1003eac8 f i nafxcw:afxtoolbarscustomizedialog.obj
 0001:0003dac8       ?AddTail@?$CList@PAUHWND__@@PAU1@@@QAEPAU__POSITION@@PAUHWND__@@@Z 1003eac8 f i nafxcw:afxtabctrl.obj
 0001:0003dac8       ?AddTail@?$CList@KK@@QAEPAU__POSITION@@K@Z 1003eac8 f i nafxcw:afxcolorbutton.obj
 0001:0003dac8       ?AddTail@?$CList@PAVCMFCPropertyGridProperty@@PAV1@@@QAEPAU__POSITION@@PAVCMFCPropertyGridProperty@@@Z 1003eac8 f i nafxcw:afxpropertygridctrl.obj
 0001:0003dac8       ?AddTail@?$CList@PAUAFX_DYNAMIC_LAYOUT_ITEM@@PAU1@@@QAEPAU__POSITION@@PAUAFX_DYNAMIC_LAYOUT_ITEM@@@Z 1003eac8 f i nafxcw:afxlayout.obj
 0001:0003daf4       ?AddTail@?$CList@UItem@CMFCDynamicLayoutData@@AAU12@@@QAEPAU__POSITION@@AAUItem@CMFCDynamicLayoutData@@@Z 1003eaf4 f i nafxcw:afxlayout.obj
 0001:0003db28       ?Adjust@CMFCDynamicLayout@@QAEXXZ 1003eb28 f   nafxcw:afxlayout.obj
 0001:0003dbd5       ?AdjustItemRect@CMFCDynamicLayout@@IBEIAAUAFX_DYNAMIC_LAYOUT_ITEM@@AAVCRect@@@Z 1003ebd5 f   nafxcw:afxlayout.obj
 0001:0003ddb9       ?ApplyLayoutDataTo@CMFCDynamicLayoutData@@QAEHPAVCWnd@@H@Z 1003edb9 f   nafxcw:afxlayout.obj
 0001:0003de8a       ?CorrectItem@CMFCDynamicLayout@@IBEXAAUAFX_DYNAMIC_LAYOUT_ITEM@@@Z 1003ee8a f   nafxcw:afxlayout.obj
 0001:0003df25       ?Create@CMFCDynamicLayout@@QAEHPAVCWnd@@@Z 1003ef25 f   nafxcw:afxlayout.obj
 0001:0003df43       ?FindItem@CMFCDynamicLayout@@IAEPAUAFX_DYNAMIC_LAYOUT_ITEM@@PAUHWND__@@@Z 1003ef43 f   nafxcw:afxlayout.obj
 0001:0003df63       ?FreeNode@?$CList@IAAI@@IAEXPAUCNode@1@@Z 1003ef63 f i nafxcw:afxdockingmanager.obj
 0001:0003df63       ?FreeNode@?$CList@PAUAFX_DYNAMIC_LAYOUT_ITEM@@PAU1@@@IAEXPAUCNode@1@@Z 1003ef63 f i nafxcw:afxlayout.obj
 0001:0003df63       ?FreeNode@?$CList@PAUHWND__@@PAU1@@@IAEXPAUCNode@1@@Z 1003ef63 f i nafxcw:afxtooltipmanager.obj
 0001:0003df63       ?FreeNode@?$CList@PAVCMFCPropertyGridProperty@@PAV1@@@IAEXPAUCNode@1@@Z 1003ef63 f i nafxcw:afxpropertygridctrl.obj
 0001:0003df63       ?FreeNode@?$CList@PAVCPropertyPage@@PAV1@@@IAEXPAUCNode@1@@Z 1003ef63 f i nafxcw:afxtoolbarscustomizedialog.obj
 0001:0003df63       ?FreeNode@?$CList@PAVCFrameWnd@@PAV1@@@IAEXPAUCNode@1@@Z 1003ef63 f i nafxcw:afxframeimpl.obj
 0001:0003df63       ?FreeNode@?$CList@PAVCMFCButton@@PAV1@@@IAEXPAUCNode@1@@Z 1003ef63 f i nafxcw:afxvslistbox.obj
 0001:0003df63       ?FreeNode@?$CList@PAUHWND__@@AAPAU1@@@IAEXPAUCNode@1@@Z 1003ef63 f i nafxcw:afxdockingmanager.obj
 0001:0003df63       ?FreeNode@?$CList@II@@IAEXPAUCNode@1@@Z 1003ef63 f i nafxcw:afxcommandmanager.obj
 0001:0003df80       ?GetItemRect@CMFCDynamicLayout@@IBE?AVCRect@@AAUAFX_DYNAMIC_LAYOUT_ITEM@@@Z 1003ef80 f   nafxcw:afxlayout.obj
 0001:0003dfec       ?GetRuntimeClass@CMFCDynamicLayout@@UBEPAUCRuntimeClass@@XZ 1003efec f   nafxcw:afxlayout.obj
 0001:0003dff2       ?IsRectNull@CRect@@QBEHXZ  1003eff2 f i nafxcw:afxlayout.obj
 0001:0003e009       ?LoadResource@CMFCDynamicLayout@@SAHPAVCWnd@@PAXK@Z 1003f009 f   nafxcw:afxlayout.obj
 0001:0003e080       ?SizeHorizontalAndVertical@CMFCDynamicLayout@@SA?AUSizeSettings@1@HH@Z 1003f080 f   nafxcw:afxlayout.obj
 0001:0003e080       ?MoveHorizontalAndVertical@CMFCDynamicLayout@@SA?AUMoveSettings@1@HH@Z 1003f080 f   nafxcw:afxlayout.obj
 0001:0003e093       ?SizeNone@CMFCDynamicLayout@@SA?AUSizeSettings@1@XZ 1003f093 f   nafxcw:afxlayout.obj
 0001:0003e093       ?MoveNone@CMFCDynamicLayout@@SA?AUMoveSettings@1@XZ 1003f093 f   nafxcw:afxlayout.obj
 0001:0003e0a2       ?NewNode@?$CList@PAUAFX_DYNAMIC_LAYOUT_ITEM@@PAU1@@@IAEPAUCNode@1@PAU21@0@Z 1003f0a2 f i nafxcw:afxlayout.obj
 0001:0003e0a2       ?NewNode@?$CList@PAUHWND__@@PAU1@@@IAEPAUCNode@1@PAU21@0@Z 1003f0a2 f i nafxcw:afxtabctrl.obj
 0001:0003e0a2       ?NewNode@?$CList@PAVCFrameWnd@@PAV1@@@IAEPAUCNode@1@PAU21@0@Z 1003f0a2 f i nafxcw:afxframeimpl.obj
 0001:0003e0a2       ?NewNode@?$CList@KK@@IAEPAUCNode@1@PAU21@0@Z 1003f0a2 f i nafxcw:afxcolorbutton.obj
 0001:0003e0a2       ?NewNode@?$CList@PAVCMFCButton@@PAV1@@@IAEPAUCNode@1@PAU21@0@Z 1003f0a2 f i nafxcw:afxvslistbox.obj
 0001:0003e0a2       ?NewNode@?$CList@PAU_ITEMIDLIST@@PAU1@@@IAEPAUCNode@1@PAU21@0@Z 1003f0a2 f i nafxcw:afxshelltreectrl.obj
 0001:0003e0a2       ?NewNode@?$CList@IAAI@@IAEPAUCNode@1@PAU21@0@Z 1003f0a2 f i nafxcw:afxdockingmanager.obj
 0001:0003e0a2       ?NewNode@?$CList@PAVCMFCPropertyGridProperty@@PAV1@@@IAEPAUCNode@1@PAU21@0@Z 1003f0a2 f i nafxcw:afxpropertygridctrl.obj
 0001:0003e0a2       ?NewNode@?$CList@II@@IAEPAUCNode@1@PAU21@0@Z 1003f0a2 f i nafxcw:afxtoolbarimages.obj
 0001:0003e0a2       ?NewNode@?$CList@PAVCPropertyPage@@PAV1@@@IAEPAUCNode@1@PAU21@0@Z 1003f0a2 f i nafxcw:afxtoolbarscustomizedialog.obj
 0001:0003e0a2       ?NewNode@?$CList@PAVCMDIChildWndEx@@PAV1@@@IAEPAUCNode@1@PAU21@0@Z 1003f0a2 f i nafxcw:afxmdiclientareawnd.obj
 0001:0003e0a2       ?NewNode@?$CList@PAUHWND__@@AAPAU1@@@IAEPAUCNode@1@PAU21@0@Z 1003f0a2 f i nafxcw:afxdockingmanager.obj
 0001:0003e0a2       ?NewNode@?$CList@PAUHINSTANCE__@@PAU1@@@IAEPAUCNode@1@PAU21@0@Z 1003f0a2 f i nafxcw:afxtoolbarimages.obj
 0001:0003e101       ?NewNode@?$CList@UItem@CMFCDynamicLayoutData@@AAU12@@@IAEPAUCNode@1@PAU21@0@Z 1003f101 f i nafxcw:afxlayout.obj
 0001:0003e171       ?PrepareItem@CMFCDynamicLayout@@IBEHAAUAFX_DYNAMIC_LAYOUT_ITEM@@@Z 1003f171 f   nafxcw:afxlayout.obj
 0001:0003e2cb       ?ReadResource@CMFCDynamicLayoutData@@QAEHPAXI@Z 1003f2cb f   nafxcw:afxlayout.obj
 0001:0003e39e       ?RemoveAll@?$CList@PAUHINSTANCE__@@PAU1@@@QAEXXZ 1003f39e f i nafxcw:afxtoolbarimages.obj
 0001:0003e39e       ?RemoveAll@?$CList@IAAI@@QAEXXZ 1003f39e f i nafxcw:afxdockingmanager.obj
 0001:0003e39e       ?RemoveAll@?$CList@II@@QAEXXZ 1003f39e f i nafxcw:afxtoolbarimages.obj
 0001:0003e39e       ?RemoveAll@?$CList@PAVCFrameWnd@@PAV1@@@QAEXXZ 1003f39e f i nafxcw:afxframeimpl.obj
 0001:0003e39e       ?RemoveAll@?$CList@PAVCMFCButton@@PAV1@@@QAEXXZ 1003f39e f i nafxcw:afxvslistbox.obj
 0001:0003e39e       ?RemoveAll@?$CList@UtagPOINT@@U1@@@QAEXXZ 1003f39e f i nafxcw:afxvisualmanager.obj
 0001:0003e39e       ?RemoveAll@?$CList@PAUHWND__@@PAU1@@@QAEXXZ 1003f39e f i nafxcw:afxtabctrl.obj
 0001:0003e39e       ?RemoveAll@?$CList@PAUAFX_DYNAMIC_LAYOUT_ITEM@@PAU1@@@QAEXXZ 1003f39e f i nafxcw:afxlayout.obj
 0001:0003e39e       ?RemoveAll@?$CList@PAVCPropertyPage@@PAV1@@@QAEXXZ 1003f39e f i nafxcw:afxtoolbarscustomizedialog.obj
 0001:0003e39e       ?RemoveAll@?$CList@PAVCMDIChildWndEx@@PAV1@@@QAEXXZ 1003f39e f i nafxcw:afxmdiclientareawnd.obj
 0001:0003e39e       ?RemoveAll@?$CList@UItem@CMFCDynamicLayoutData@@AAU12@@@QAEXXZ 1003f39e f i nafxcw:afxlayout.obj
 0001:0003e39e       ?RemoveAll@?$CList@PAVCMFCPropertyGridProperty@@PAV1@@@QAEXXZ 1003f39e f i nafxcw:afxpropertygridctrl.obj
 0001:0003e39e       ?RemoveAll@?$CList@KK@@QAEXXZ 1003f39e f i nafxcw:afxcolorbutton.obj
 0001:0003e39e       ?RemoveAll@?$CList@PAU_ITEMIDLIST@@PAU1@@@QAEXXZ 1003f39e f i nafxcw:afxshelltreectrl.obj
 0001:0003e39e       ?RemoveAll@?$CList@PAUHWND__@@AAPAU1@@@QAEXXZ 1003f39e f i nafxcw:afxdockingmanager.obj
 0001:0003e3c3       ?RemoveHead@?$CList@PAUAFX_DYNAMIC_LAYOUT_ITEM@@PAU1@@@QAEPAUAFX_DYNAMIC_LAYOUT_ITEM@@XZ 1003f3c3 f i nafxcw:afxlayout.obj
 0001:0003e3c3       ?RemoveHead@?$CList@PAVCMFCButton@@PAV1@@@QAEPAVCMFCButton@@XZ 1003f3c3 f i nafxcw:afxvslistbox.obj
 0001:0003e3c3       ?RemoveHead@?$CList@PAVCMFCPropertyGridProperty@@PAV1@@@QAEPAVCMFCPropertyGridProperty@@XZ 1003f3c3 f i nafxcw:afxpropertygridctrl.obj
 0001:0003e3c3       ?RemoveHead@?$CList@PAVCPropertyPage@@PAV1@@@QAEPAVCPropertyPage@@XZ 1003f3c3 f i nafxcw:afxtoolbarscustomizedialog.obj
 0001:0003e3f1       ?Serialize@?$CList@PAUHINSTANCE__@@PAU1@@@UAEXAAVCArchive@@@Z 1003f3f1 f i nafxcw:afxtoolbarimages.obj
 0001:0003e3f1       ?Serialize@?$CList@KK@@UAEXAAVCArchive@@@Z 1003f3f1 f i nafxcw:afxcolorbutton.obj
 0001:0003e3f1       ?Serialize@?$CList@PAVCMFCPropertyGridProperty@@PAV1@@@UAEXAAVCArchive@@@Z 1003f3f1 f i nafxcw:afxpropertygridctrl.obj
 0001:0003e3f1       ?Serialize@?$CList@PAVCMFCButton@@PAV1@@@UAEXAAVCArchive@@@Z 1003f3f1 f i nafxcw:afxvslistbox.obj
 0001:0003e3f1       ?Serialize@?$CList@II@@UAEXAAVCArchive@@@Z 1003f3f1 f i nafxcw:afxtoolbarimages.obj
 0001:0003e3f1       ?Serialize@?$CList@PAVCMDIChildWndEx@@PAV1@@@UAEXAAVCArchive@@@Z 1003f3f1 f i nafxcw:afxmdiclientareawnd.obj
 0001:0003e3f1       ?Serialize@?$CList@PAUHWND__@@PAU1@@@UAEXAAVCArchive@@@Z 1003f3f1 f i nafxcw:afxtabctrl.obj
 0001:0003e3f1       ?Serialize@?$CList@PAVCPropertyPage@@PAV1@@@UAEXAAVCArchive@@@Z 1003f3f1 f i nafxcw:afxtoolbarscustomizedialog.obj
 0001:0003e3f1       ?Serialize@?$CList@PAUAFX_DYNAMIC_LAYOUT_ITEM@@PAU1@@@UAEXAAVCArchive@@@Z 1003f3f1 f i nafxcw:afxlayout.obj
 0001:0003e3f1       ?Serialize@?$CList@PAU_ITEMIDLIST@@PAU1@@@UAEXAAVCArchive@@@Z 1003f3f1 f i nafxcw:afxshelltreectrl.obj
 0001:0003e3f1       ?Serialize@?$CList@PAVCFrameWnd@@PAV1@@@UAEXAAVCArchive@@@Z 1003f3f1 f i nafxcw:afxframeimpl.obj
 0001:0003e456       ?Serialize@?$CList@UItem@CMFCDynamicLayoutData@@AAU12@@@UAEXAAVCArchive@@@Z 1003f456 f i nafxcw:afxlayout.obj
 0001:0003e4ce       ?SizeVertical@CMFCDynamicLayout@@SA?AUSizeSettings@1@H@Z 1003f4ce f   nafxcw:afxlayout.obj
 0001:0003e4df       ?_AfxBeginBufferedPaint@@YAPAXPAUHDC__@@PBUtagRECT@@W4_BP_BUFFERFORMAT@@PAU_BP_PAINTPARAMS@@PAPAU1@@Z 1003f4df f   nafxcw:afxwinverapi.obj
 0001:0003e544       ?_AfxBufferedPaintInit@@YAJXZ 1003f544 f   nafxcw:afxwinverapi.obj
 0001:0003e599       ?_AfxBufferedPaintUnInit@@YAJXZ 1003f599 f   nafxcw:afxwinverapi.obj
 0001:0003e5ee       ?_AfxChangeWindowMessageFilter@@YAHIK@Z 1003f5ee f   nafxcw:afxwinverapi.obj
 0001:0003e64a       ?_AfxDrawThemeTextEx@@YAJPAXPAUHDC__@@HHPB_WHKPAUtagRECT@@PBU_DTTOPTS@@@Z 1003f64a f   nafxcw:afxwinverapi.obj
 0001:0003e6d9       ?_AfxDwmDefWindowProc@@YAHPAUHWND__@@IIJPAJ@Z 1003f6d9 f   nafxcw:afxwinverapi.obj
 0001:0003e73e       ?_AfxDwmInvalidateIconicBitmaps@@YAJPAUHWND__@@@Z 1003f73e f   nafxcw:afxwinverapi.obj
 0001:0003e79a       ?_AfxDwmIsCompositionEnabled@@YAJPAH@Z 1003f79a f   nafxcw:afxwinverapi.obj
 0001:0003e7f9       ?_AfxDwmSetIconicLivePreviewBitmap@@YAJPAUHWND__@@PAUHBITMAP__@@PAUtagPOINT@@K@Z 1003f7f9 f   nafxcw:afxwinverapi.obj
 0001:0003e85e       ?_AfxDwmSetIconicThumbnail@@YAJPAUHWND__@@PAUHBITMAP__@@K@Z 1003f85e f   nafxcw:afxwinverapi.obj
 0001:0003e8c0       ?_AfxDwmSetWindowAttribute@@YAJPAUHWND__@@KPBXK@Z 1003f8c0 f   nafxcw:afxwinverapi.obj
 0001:0003e925       ?_AfxEndBufferedPaint@@YAJPAXH@Z 1003f925 f   nafxcw:afxwinverapi.obj
 0001:0003e984       ?_AfxSHCreateItemFromParsingName@@YAJPB_WPAUIBindCtx@@ABU_GUID@@PAPAX@Z 1003f984 f   nafxcw:afxwinverapi.obj
 0001:0003e9e9       ??0CDialog@@QAE@IPAVCWnd@@@Z 1003f9e9 f   nafxcw:dlgcore.obj
 0001:0003ea27       ??0CDialog@@QAE@XZ         1003fa27 f   nafxcw:dlgcore.obj
 0001:0003ea48       ??1CDialog@@UAE@XZ         1003fa48 f   nafxcw:dlgcore.obj
 0001:0003ea93       ??_9CDialog@@$BBIA@AE      1003fa93 f i nafxcw:dlgcore.obj
 0001:0003eaa2       ??_9CDialog@@$BBIE@AE      1003faa2 f i nafxcw:dlgcore.obj
 0001:0003eab1       ??_ECDialog@@UAEPAXI@Z     1003fab1 f i nafxcw:dlgcore.obj
 0001:0003eab1       ??_GCDialog@@UAEPAXI@Z     1003fab1 f i nafxcw:dlgcore.obj
 0001:0003eae4       ?AfxDlgProc@@YGHPAUHWND__@@IIJ@Z 1003fae4 f   nafxcw:dlgcore.obj
 0001:0003eb30       ?AfxHelpEnabled@@YGHXZ     1003fb30 f   nafxcw:dlgcore.obj
 0001:0003eb9f       ?CheckAutoCenter@CDialog@@UAEHXZ 1003fb9f f   nafxcw:dlgcore.obj
 0001:0003ec25       ?Create@CDialog@@UAEHIPAVCWnd@@@Z 1003fc25 f i nafxcw:dlgcore.obj
 0001:0003ec39       ?Create@CDialog@@UAEHPBDPAVCWnd@@@Z 1003fc39 f   nafxcw:dlgcore.obj
 0001:0003ec91       ?CreateDlg@CWnd@@IAEHPBDPAV1@@Z 1003fc91 f   nafxcw:dlgcore.obj
 0001:0003ecd7       ?CreateDlgIndirect@CWnd@@IAEHPBUDLGTEMPLATE@@PAV1@PAUHINSTANCE__@@@Z 1003fcd7 f   nafxcw:dlgcore.obj
 0001:0003eed8       ?CreateIndirect@CDialog@@IAEHPAXPAVCWnd@@PAUHINSTANCE__@@@Z 1003fed8 f   nafxcw:dlgcore.obj
 0001:0003ef0f       ?CreateIndirect@CDialog@@UAEHPAXPAVCWnd@@@Z 1003ff0f f   nafxcw:dlgcore.obj
 0001:0003ef23       ?CreateIndirect@CDialog@@UAEHPBUDLGTEMPLATE@@PAVCWnd@@PAX@Z 1003ff23 f   nafxcw:dlgcore.obj
 0001:0003ef50       ?CreateRunDlgIndirect@CWnd@@IAEHPBUDLGTEMPLATE@@PAV1@PAUHINSTANCE__@@@Z 1003ff50 f   nafxcw:dlgcore.obj
 0001:0003efae       ?DoModal@CDialog@@UAEHXZ   1003ffae f   nafxcw:dlgcore.obj
 0001:0003f17a       ?EndDialog@CDialog@@QAEXH@Z 1004017a f   nafxcw:dlgcore.obj
 0001:0003f1ba       ?GetThisMessageMap@CDialog@@KGPBUAFX_MSGMAP@@XZ 100401ba f   nafxcw:dlgcore.obj
 0001:0003f1ba       ?GetMessageMap@CDialog@@MBEPBUAFX_MSGMAP@@XZ 100401ba f   nafxcw:dlgcore.obj
 0001:0003f1c0       ?GetControlBarStyle@CBasePane@@UBEKXZ 100401c0 f   nafxcw:afxpropertysheet.obj
 0001:0003f1c0       ?GetOccDialogInfo@CDialog@@MAEPAU_AFX_OCC_DIALOG_INFO@@XZ 100401c0 f   nafxcw:dlgcore.obj
 0001:0003f1c7       ?GetRuntimeClass@CDialog@@UBEPAUCRuntimeClass@@XZ 100401c7 f   nafxcw:dlgcore.obj
 0001:0003f1cd       ?HandleInitDialog@CDialog@@IAEJIJ@Z 100401cd f   nafxcw:dlgcore.obj
 0001:0003f289       ?Initialize@CDialog@@QAEXXZ 10040289 f   nafxcw:dlgcore.obj
 0001:0003f2c2       ?OnCancel@CDialog@@MAEXXZ  100402c2 f   nafxcw:dlgcore.obj
 0001:0003f2ca       ?OnCmdMsg@CPropertySheet@@UAEHIHPAXPAUAFX_CMDHANDLERINFO@@@Z 100402ca f   nafxcw:dlgprop.obj
 0001:0003f2ca       ?OnCmdMsg@CDialog@@UAEHIHPAXPAUAFX_CMDHANDLERINFO@@@Z 100402ca f   nafxcw:dlgcore.obj
 0001:0003f36f       ?OnCommandHelp@CDialog@@IAEJIJ@Z 1004036f f   nafxcw:dlgcore.obj
 0001:0003f3bd       ?OnEndSession@CDialog@@IAEXH@Z 100403bd f   nafxcw:dlgcore.obj
 0001:0003f419       ?OnHelpHitTest@CDialog@@IAEJIJ@Z 10040419 f   nafxcw:dlgcore.obj
 0001:0003f42f       ?OnInitDialog@CDialog@@UAEHXZ 1004042f f   nafxcw:dlgcore.obj
 0001:0003f4a5       ?OnOK@CDialog@@MAEXXZ      100404a5 f   nafxcw:dlgcore.obj
 0001:0003f4be       ?OnPaint@CDialog@@IAEXXZ   100404be f   nafxcw:dlgcore.obj
 0001:0003f4fd       ?OnQueryEndSession@CDialog@@IAEHXZ 100404fd f   nafxcw:dlgcore.obj
 0001:0003f539       ?OnSetFont@CDialog@@IAEXPAVCFont@@H@Z 10040539 f   nafxcw:dlgcore.obj
 0001:0003f564       ?PostModal@CDialog@@IAEXXZ 10040564 f   nafxcw:dlgcore.obj
 0001:0003f5ad       ?PreModal@CDialog@@IAEPAUHWND__@@XZ 100405ad f   nafxcw:dlgcore.obj
 0001:0003f5ec       ?PreTranslateMessage@CDialog@@UAEHPAUtagMSG@@@Z 100405ec f   nafxcw:dlgcore.obj
 0001:0003f692       ?SetOccDialogInfo@CDialog@@MAEHPAU_AFX_OCC_DIALOG_INFO@@@Z 10040692 f   nafxcw:dlgcore.obj
 0001:0003f6a5       _IsolationAwareCreateDialogIndirectParamA@20 100406a5 f i nafxcw:dlgcore.obj
 0001:0003f758       ??0CPropertyPage@@QAE@IIK@Z 10040758 f   nafxcw:dlgprop.obj
 0001:0003f7da       ??0CPropertyPage@@QAE@XZ   100407da f   nafxcw:dlgprop.obj
 0001:0003f853       ??0CPropertySheet@@QAE@PBDPAVCWnd@@I@Z 10040853 f   nafxcw:dlgprop.obj
 0001:0003f8ea       ??1CPropertyPage@@UAE@XZ   100408ea f   nafxcw:dlgprop.obj
 0001:0003f978       ??1CPropertySheet@@UAE@XZ  10040978 f   nafxcw:dlgprop.obj
 0001:0003f9ae       ??9ATL@@YA_NABV?$CStringT@DV?$StrTraitMFC@DV?$ChTraitsCRT@D@ATL@@@@@0@0@Z 100409ae f i nafxcw:dlgprop.obj
 0001:0003f9d9       ??9CPoint@@QBEHUtagPOINT@@@Z 100409d9 f i nafxcw:afxvslistbox.obj
 0001:0003f9d9       ??9CSize@@QBEHUtagSIZE@@@Z 100409d9 f i nafxcw:dlgprop.obj
 0001:0003f9f6       ??_ECPropertyPage@@UAEPAXI@Z 100409f6 f i nafxcw:dlgprop.obj
 0001:0003f9f6       ??_GCPropertyPage@@UAEPAXI@Z 100409f6 f i nafxcw:dlgprop.obj
 0001:0003fa29       ??_GCPropertySheet@@UAEPAXI@Z 10040a29 f i nafxcw:dlgprop.obj
 0001:0003fa29       ??_ECPropertySheet@@UAEPAXI@Z 10040a29 f i nafxcw:dlgprop.obj
 0001:0003fa5c       ?AddPage@CPropertySheet@@QAEXPAVCPropertyPage@@@Z 10040a5c f   nafxcw:dlgprop.obj
 0001:0003fba5       ?AfxPropPageCallback@@YGIPAUHWND__@@IPAU_PROPSHEETPAGEA@@@Z 10040ba5 f   nafxcw:dlgprop.obj
 0001:0003fbe8       ?AfxPropSheetCallback@@YGHPAUHWND__@@IJ@Z 10040be8 f   nafxcw:dlgprop.obj
 0001:0003fc45       ?AllocPSP@CPropertyPage@@IAEXK@Z 10040c45 f   nafxcw:dlgprop.obj
 0001:0003fc87       ?BuildPropPageArray@CPropertySheet@@UAEXXZ 10040c87 f   nafxcw:dlgprop.obj
 0001:0003fd9a       ?Cleanup@CPropertyPage@@IAEXXZ 10040d9a f   nafxcw:dlgprop.obj
 0001:0003fdde       ?CommonConstruct@CPropertyPage@@IAEXPBDI@Z 10040dde f   nafxcw:dlgprop.obj
 0001:0003feb5       ?CommonConstruct@CPropertySheet@@QAEXPAVCWnd@@I@Z 10040eb5 f   nafxcw:dlgprop.obj
 0001:0003ff34       ?ContinueModal@CPropertySheet@@UAEHXZ 10040f34 f   nafxcw:dlgprop.obj
 0001:0003ff5c       ?Create@CPropertySheet@@UAEHPAVCWnd@@KK@Z 10040f5c f   nafxcw:dlgprop.obj
 0001:0004009c       ?DoModal@CPropertySheet@@UAEHXZ 1004109c f   nafxcw:dlgprop.obj
 0001:0004026c       ?GetActiveIndex@CPropertySheet@@QBEHXZ 1004126c f   nafxcw:dlgprop.obj
 0001:00040299       ?GetActivePage@CPropertySheet@@QBEPAVCPropertyPage@@XZ 10041299 f   nafxcw:dlgprop.obj
 0001:000402ca       ?GetAt@CPtrArray@@QBEPAXH@Z 100412ca f i nafxcw:dlgprop.obj
 0001:000402ca       ?GetAt@CObArray@@QBEPAVCObject@@H@Z 100412ca f i nafxcw:array_o.obj
 0001:000402e9       ?GetThisMessageMap@CPropertyPage@@KGPBUAFX_MSGMAP@@XZ 100412e9 f   nafxcw:dlgprop.obj
 0001:000402e9       ?GetMessageMap@CPropertyPage@@MBEPBUAFX_MSGMAP@@XZ 100412e9 f   nafxcw:dlgprop.obj
 0001:000402ef       ?GetMessageMap@CPropertySheet@@MBEPBUAFX_MSGMAP@@XZ 100412ef f   nafxcw:dlgprop.obj
 0001:000402ef       ?GetThisMessageMap@CPropertySheet@@KGPBUAFX_MSGMAP@@XZ 100412ef f   nafxcw:dlgprop.obj
 0001:000402f5       ?GetPage@CPropertySheet@@QBEPAVCPropertyPage@@H@Z 100412f5 f i nafxcw:dlgprop.obj
 0001:00040314       ?GetPageCount@CPropertySheet@@QBEHXZ 10041314 f   nafxcw:dlgprop.obj
 0001:00040341       ?GetPageIndex@CPropertySheet@@QAEHPAVCPropertyPage@@@Z 10041341 f   nafxcw:dlgprop.obj
 0001:00040379       ?GetParentSheet@CPropertyPage@@UAEPAVCPropertySheet@@XZ 10041379 f   nafxcw:dlgprop.obj
 0001:000403a7       ?GetRuntimeClass@CPropertyPage@@UBEPAUCRuntimeClass@@XZ 100413a7 f   nafxcw:dlgprop.obj
 0001:000403ad       ?GetRuntimeClass@CPropertySheet@@UBEPAUCRuntimeClass@@XZ 100413ad f   nafxcw:dlgprop.obj
 0001:000403b3       ?GetTabControl@CPropertySheet@@QBEPAVCTabCtrl@@XZ 100413b3 f i nafxcw:dlgprop.obj
 0001:000403cc       ?HandleInitDialog@CPropertySheet@@IAEJIJ@Z 100413cc f   nafxcw:dlgprop.obj
 0001:00040553       ?InitDialogInfo@CPropertyPage@@IAEPBUDLGTEMPLATE@@PBU2@@Z 10041553 f   nafxcw:dlgprop.obj
 0001:00040595       ?MapWizardResult@CPropertyPage@@IAEJJ@Z 10041595 f   nafxcw:dlgprop.obj
 0001:00040604       ?OnApply@CPropertyPage@@UAEHXZ 10041604 f   nafxcw:dlgprop.obj
 0001:00040622       ?OnClose@CPropertySheet@@IAEXXZ 10041622 f   nafxcw:dlgprop.obj
 0001:0004064a       ?OnCommand@CPropertySheet@@UAEHIJ@Z 1004164a f   nafxcw:dlgprop.obj
 0001:000406be       ?OnCommandHelp@CPropertySheet@@IAEJIJ@Z 100416be f   nafxcw:dlgprop.obj
 0001:000406de       ?OnCtlColor@CPropertyPage@@IAEPAUHBRUSH__@@PAVCDC@@PAVCWnd@@I@Z 100416de f   nafxcw:dlgprop.obj
 0001:0004070f       ?OnCtlColor@CPropertySheet@@IAEPAUHBRUSH__@@PAVCDC@@PAVCWnd@@I@Z 1004170f f   nafxcw:dlgprop.obj
 0001:0004074c       ?OnGetMinMaxInfo@CPropertySheet@@IAEXPAUtagMINMAXINFO@@@Z 1004174c f   nafxcw:dlgprop.obj
 0001:00040789       ?OnInitDialog@CPropertySheet@@UAEHXZ 10041789 f   nafxcw:dlgprop.obj
 0001:000409a9       ?OnKickIdle@CPropertySheet@@IAEJIJ@Z 100419a9 f   nafxcw:dlgprop.obj
 0001:000409d1       ?OnKillActive@CPropertyPage@@UAEHXZ 100419d1 f   nafxcw:dlgprop.obj
 0001:000409df       ?OnNcCreate@CPropertySheet@@IAEHPAUtagCREATESTRUCTA@@@Z 100419df f   nafxcw:dlgprop.obj
 0001:00040a22       ?OnNotify@CPropertyPage@@MAEHIJPAJ@Z 10041a22 f   nafxcw:dlgprop.obj
 0001:00040bbe       ?OnReset@CPropertyPage@@UAEXXZ 10041bbe f   nafxcw:dlgprop.obj
 0001:00040bd9       ?OnSetActive@CPropertyPage@@UAEHXZ 10041bd9 f   nafxcw:dlgprop.obj
 0001:00040caf       ?OnSetDefID@CPropertySheet@@IAEJIJ@Z 10041caf f   nafxcw:dlgprop.obj
 0001:00040d70       ?OnSysCommand@CPropertySheet@@IAEXIJ@Z 10041d70 f   nafxcw:dlgprop.obj
 0001:00040dab       ?OnWizardFinish@CPropertyPage@@UAEHXZ 10041dab f   nafxcw:dlgprop.obj
 0001:00040e03       ?OnWizardFinishEx@CPropertyPage@@UAEPAUHWND__@@XZ 10041e03 f   nafxcw:dlgprop.obj
 0001:00040e23       ?PreProcessPageTemplate@CPropertyPage@@IAEXAAU_PROPSHEETPAGEA@@H@Z 10041e23 f   nafxcw:dlgprop.obj
 0001:00040ed1       ?PreTranslateMessage@CPropertyPage@@MAEHPAUtagMSG@@@Z 10041ed1 f   nafxcw:dlgprop.obj
 0001:00040ee2       ?PreTranslateMessage@CPropertySheet@@UAEHPAUtagMSG@@@Z 10041ee2 f   nafxcw:dlgprop.obj
 0001:00040fb8       ?SetActivePage@CPropertySheet@@QAEHH@Z 10041fb8 f   nafxcw:dlgprop.obj
 0001:00040fe6       ?SetActivePage@CPropertySheet@@QAEHPAVCPropertyPage@@@Z 10041fe6 f   nafxcw:dlgprop.obj
 0001:0004100d       ?SetTitle@CPropertySheet@@QAEXPBDI@Z 1004200d f   nafxcw:dlgprop.obj
 0001:00041074       ?_AfxChangePropPageFont@@YGPAUDLGTEMPLATE@@PBU1@H@Z 10042074 f   nafxcw:dlgprop.obj
 0001:00041140       _IsolationAwareCreatePropertySheetPageA@4 10042140 f i nafxcw:dlgprop.obj
 0001:00041244       _IsolationAwareDestroyPropertySheetPage@4 10042244 f i nafxcw:dlgprop.obj
 0001:0004130c       _IsolationAwarePropertySheetA@4 1004230c f i nafxcw:dlgprop.obj
 0001:000413de       _PrshtIsolationAwarePrivatetRgCebPnQQeRff_pbZPgYQP_QYY@4 100423de f i nafxcw:dlgprop.obj
 0001:00041484       ?_AfxInitDBCS@@YGHXZ       10042484 f   nafxcw:afxdbcs.obj
 0001:000414bb       ??0CFixedAllocNoSync@@QAE@II@Z 100424bb f   nafxcw:fixalloc.obj
 0001:000414e7       ??1CFixedAllocNoSync@@QAE@XZ 100424e7 f   nafxcw:fixalloc.obj
 0001:0004151b       ?Alloc@CFixedAllocNoSync@@QAEPAXXZ 1004251b f   nafxcw:fixalloc.obj
 0001:0004155f       ?FreeAll@CFixedAllocNoSync@@QAEXXZ 1004255f f   nafxcw:fixalloc.obj
 0001:00041574       ??8ATL@@YA_NABV?$CStringT@DV?$StrTraitMFC@DV?$ChTraitsCRT@D@ATL@@@@@0@0@Z 10042574 f i nafxcw:docmgr.obj
 0001:000415a0       ??8ATL@@YA_NABV?$CStringT@DV?$StrTraitMFC@DV?$ChTraitsCRT@D@ATL@@@@@0@PBD@Z 100425a0 f i nafxcw:docmgr.obj
 0001:000415cb       ??9ATL@@YA_NABV?$CStringT@DV?$StrTraitMFC@DV?$ChTraitsCRT@D@ATL@@@@@0@PBD@Z 100425cb f i nafxcw:docmgr.obj
 0001:000415f5       ?SetAt@?$CSimpleStringT@D$0A@@ATL@@QAEXHD@Z 100425f5 f i nafxcw:docmgr.obj
 0001:00041632       ?AfxThrowFileException@@YGXHJPBD@Z 10042632 f   nafxcw:filex.obj
 0001:00041677       ?GetErrorMessage@CFileException@@UBEHPADIPAI@Z 10042677 f   nafxcw:filex.obj
 0001:00041743       ?GetRuntimeClass@CFileException@@UBEPAUCRuntimeClass@@XZ 10042743 f   nafxcw:filex.obj
 0001:00041749       ?OsErrorToException@CFileException@@SGHJ@Z 10042749 f   nafxcw:filex.obj
 0001:000419e5       ?ThrowOsError@CFileException@@SGXJPBD@Z 100429e5 f   nafxcw:filex.obj
 0001:00041a04       ??0CTime@ATL@@QAE@ABU_FILETIME@@H@Z 10042a04 f i nafxcw:filest.obj
 0001:00041a7a       ??0CTime@ATL@@QAE@ABU_SYSTEMTIME@@H@Z 10042a7a f i nafxcw:filest.obj
 0001:00041ad2       ??0CTime@ATL@@QAE@HHHHHHH@Z 10042ad2 f i nafxcw:filest.obj
 0001:00041b78       ?GetFileAttributesExA@CAtlTransactionManager@ATL@@QAEHPBDW4_GET_FILEEX_INFO_LEVELS@@PAX@Z 10042b78 f i nafxcw:filest.obj
 0001:00041bd9       ?GetFileName@CFile@@UBE?AV?$CStringT@DV?$StrTraitMFC@DV?$ChTraitsCRT@D@ATL@@@@@ATL@@XZ 10042bd9 f   nafxcw:filest.obj
 0001:00041c74       ?GetFilePath@CFile@@UBE?AV?$CStringT@DV?$StrTraitMFC@DV?$ChTraitsCRT@D@ATL@@@@@ATL@@XZ 10042c74 f   nafxcw:filest.obj
 0001:00041ce2       ?GetFileTitle@CFile@@UBE?AV?$CStringT@DV?$StrTraitMFC@DV?$ChTraitsCRT@D@ATL@@@@@ATL@@XZ 10042ce2 f   nafxcw:filest.obj
 0001:00041d7d       ?GetLocalTm@CTime@ATL@@QBEPAUtm@@PAU3@@Z 10042d7d f i nafxcw:filest.obj
 0001:00041dd3       ?GetStatus@CFile@@QBEHAAUCFileStatus@@@Z 10042dd3 f   nafxcw:filest.obj
 0001:00041f55       ?GetStatus@CFile@@SGHPBDAAUCFileStatus@@PAVCAtlTransactionManager@ATL@@@Z 10042f55 f   nafxcw:filest.obj
 0001:00042093       ?IsValidFILETIME@CTime@ATL@@SGHABU_FILETIME@@@Z 10043093 f i nafxcw:filest.obj
 0001:000420dc       ?AfxGetFileName@@YGIPBDPADI@Z 100430dc f   nafxcw:appinit.obj
 0001:00042121       ??0?$CArray@W4LoadArrayObjType@CArchive@@ABW412@@@QAE@XZ 10043121 f i nafxcw:arcobj.obj
 0001:00042138       ??1?$CArray@W4LoadArrayObjType@CArchive@@ABW412@@@UAE@XZ 10043138 f i nafxcw:arcobj.obj
 0001:0004214e       ??_E?$CArray@W4LoadArrayObjType@CArchive@@ABW412@@@UAEPAXI@Z 1004314e f i nafxcw:arcobj.obj
 0001:0004214e       ??_G?$CArray@W4LoadArrayObjType@CArchive@@ABW412@@@UAEPAXI@Z 1004314e f i nafxcw:arcobj.obj
 0001:0004217e       ?CheckCount@CArchive@@QAEXXZ 1004317e f   nafxcw:arcobj.obj
 0001:00042199       ?EnsureSchemaMapExists@CArchive@@QAEXPAPAV?$CArray@W4LoadArrayObjType@CArchive@@ABW412@@@@Z 10043199 f   nafxcw:arcobj.obj
 0001:00042276       ?GetAt@?$CArray@PAVCMFCRibbonCategory@@PAV1@@@QBEABQAVCMFCRibbonCategory@@H@Z 10043276 f i nafxcw:afxribbonbar.obj
 0001:00042276       ?GetAt@?$CArray@PAVCMFCRibbonContextCaption@@PAV1@@@QBEABQAVCMFCRibbonContextCaption@@H@Z 10043276 f i nafxcw:afxribbonbar.obj
 0001:00042276       ?ElementAt@CObArray@@QAEAAPAVCObject@@H@Z 10043276 f i nafxcw:afxctrlcontainer.obj
 0001:00042276       ?ElementAt@?$CArray@PAVCMFCRibbonCategory@@PAV1@@@QAEAAPAVCMFCRibbonCategory@@H@Z 10043276 f i nafxcw:afxribbonbar.obj
 0001:00042276       ?ElementAt@?$CArray@PAVCMFCRibbonPanel@@PAV1@@@QAEAAPAVCMFCRibbonPanel@@H@Z 10043276 f i nafxcw:afxribboncategory.obj
 0001:00042276       ?ElementAt@?$CArray@JJ@@QAEAAJH@Z 10043276 f i nafxcw:afxribboncolorbutton.obj
 0001:00042276       ?GetAt@?$CArray@HH@@QAEAAHH@Z 10043276 f i nafxcw:afxtoolbarslistcheckbox.obj
 0001:00042276       ?ElementAt@CPtrArray@@QAEAAPAXH@Z 10043276 f i nafxcw:afxbasetabctrl.obj
 0001:00042276       ?ElementAt@?$CArray@HH@@QAEAAHH@Z 10043276 f i nafxcw:afxbasetabctrl.obj
 0001:00042276       ?GetAt@?$CArray@PAVCMFCRibbonPanel@@PAV1@@@QBEABQAVCMFCRibbonPanel@@H@Z 10043276 f i nafxcw:afxribboncategory.obj
 0001:00042276       ?ElementAt@?$CArray@PAVCMFCRibbonKeyTip@@PAV1@@@QAEAAPAVCMFCRibbonKeyTip@@H@Z 10043276 f i nafxcw:afxribbonbar.obj
 0001:00042276       ?GetAt@?$CArray@W4LoadArrayObjType@CArchive@@ABW412@@@QAEAAW4LoadArrayObjType@CArchive@@H@Z 10043276 f i nafxcw:arcobj.obj
 0001:00042276       ?ElementAt@?$CArray@PAVCMFCRibbonBaseElement@@PAV1@@@QAEAAPAVCMFCRibbonBaseElement@@H@Z 10043276 f i nafxcw:afxribbonbutton.obj
 0001:00042276       ?GetAt@CStringArray@@QBEABV?$CStringT@DV?$StrTraitMFC@DV?$ChTraitsCRT@D@ATL@@@@@ATL@@H@Z 10043276 f i nafxcw:array_s.obj
 0001:00042276       ?GetAt@?$CArray@HH@@QBEABHH@Z 10043276 f i nafxcw:afxpropertysheet.obj
 0001:00042276       ?ElementAt@?$CArray@KK@@QAEAAKH@Z 10043276 f i nafxcw:afxcolorbar.obj
 0001:00042276       ?ElementAt@CUIntArray@@QAEAAIH@Z 10043276 f i nafxcw:afxpopupmenubar.obj
 0001:00042276       ?ElementAt@?$CArray@PAVCMFCVisualManagerBitmapCacheItem@CMFCVisualManagerBitmapCache@@PAV12@@@QAEAAPAVCMFCVisualManagerBitmapCacheItem@CMFCVisualManagerBitmapCache@@H@Z 10043276 f i nafxcw:afxvisualmanageroffice2007.obj
 0001:00042276       ?GetAt@?$CArray@PAVCMFCRibbonBaseElement@@PAV1@@@QBEABQAVCMFCRibbonBaseElement@@H@Z 10043276 f i nafxcw:afxbaseribbonelement.obj
 0001:00042276       ?GetAt@?$CArray@KK@@QBEABKH@Z 10043276 f i nafxcw:afxbasetabctrl.obj
 0001:00042276       ?ElementAt@CStringArray@@QAEAAV?$CStringT@DV?$StrTraitMFC@DV?$ChTraitsCRT@D@ATL@@@@@ATL@@H@Z 10043276 f i nafxcw:afxtagmanager.obj
 0001:00042295       ?InsertAt@?$CArray@W4LoadArrayObjType@CArchive@@ABW412@@@QAEXHABW4LoadArrayObjType@CArchive@@H@Z 10043295 f i nafxcw:arcobj.obj
 0001:0004232c       ?MapObject@CArchive@@QAEXPBVCObject@@@Z 1004332c f   nafxcw:arcobj.obj
 0001:00042495       ?ReadClass@CArchive@@QAEPAUCRuntimeClass@@PBU2@PAIPAK@Z 10043495 f   nafxcw:arcobj.obj
 0001:000426b6       ?ReadObject@CArchive@@QAEPAVCObject@@PBUCRuntimeClass@@@Z 100436b6 f   nafxcw:arcobj.obj
 0001:00042842       ?Serialize@?$CArray@W4LoadArrayObjType@CArchive@@ABW412@@@UAEXAAVCArchive@@@Z 10043842 f i nafxcw:arcobj.obj
 0001:00042882       ?SetAt@CPtrArray@@QAEXHPAX@Z 10043882 f i nafxcw:arcobj.obj
 0001:00042882       ?SetAt@?$CArray@HH@@QAEXHH@Z 10043882 f i nafxcw:afxtoolbarslistcheckbox.obj
 0001:000428a4       ?SetSize@?$CArray@W4LoadArrayObjType@CArchive@@ABW412@@@QAEXHH@Z 100438a4 f i nafxcw:arcobj.obj
 0001:00042a33       ?WriteClass@CArchive@@QAEXPBUCRuntimeClass@@@Z 10043a33 f   nafxcw:arcobj.obj
 0001:00042af8       ?WriteObject@CArchive@@QAEXPBVCObject@@@Z 10043af8 f   nafxcw:arcobj.obj
 0001:00042bb1       ??1CRgn@@UAE@XZ            10043bb1 f i nafxcw:wingdix.obj
 0001:00042bbc       ??_GCRgn@@UAEPAXI@Z        10043bbc f i nafxcw:wingdix.obj
 0001:00042bbc       ??_ECRgn@@UAEPAXI@Z        10043bbc f i nafxcw:wingdix.obj
 0001:00042bf2       ?AfxWingdixTerm@@YAXXZ     10043bf2 f   nafxcw:wingdix.obj
 0001:00042bfd       ?Draw3dRect@CDC@@QAEXHHHHKK@Z 10043bfd f   nafxcw:wingdix.obj
 0001:00042c65       ?Draw3dRect@CDC@@QAEXPBUtagRECT@@KK@Z 10043c65 f   nafxcw:wingdix.obj
 0001:00042c8c       ?DrawDragRect@CDC@@QAEXPBUtagRECT@@UtagSIZE@@01PAVCBrush@@2@Z 10043c8c f   nafxcw:wingdix.obj
 0001:00042f4b       ?FillSolidRect@CDC@@QAEXHHHHK@Z 10043f4b f   nafxcw:wingdix.obj
 0001:00042fab       ?FillSolidRect@CDC@@QAEXPBUtagRECT@@K@Z 10043fab f   nafxcw:wingdix.obj
 0001:00042fed       ?GetHalftoneBrush@CDC@@SGPAVCBrush@@XZ 10043fed f   nafxcw:wingdix.obj
 0001:00043091       ?CreateObject@CObList@@SGPAVCObject@@XZ 10044091 f   nafxcw:list_o.obj
 0001:000430b3       ??0CObList@@QAE@H@Z        100440b3 f   nafxcw:list_o.obj
 0001:000430d9       ??1CObList@@UAE@XZ         100440d9 f   nafxcw:list_o.obj
 0001:00043113       ??_GCObList@@UAEPAXI@Z     10044113 f i nafxcw:list_o.obj
 0001:00043113       ??_ECObList@@UAEPAXI@Z     10044113 f i nafxcw:list_o.obj
 0001:00043177       ?AddHead@CObList@@QAEPAU__POSITION@@PAVCObject@@@Z 10044177 f   nafxcw:list_o.obj
 0001:000431a4       ?AddTail@CObList@@QAEXPAV1@@Z 100441a4 f   nafxcw:list_o.obj
 0001:000431e3       ?FindIndex@CStringList@@QBEPAU__POSITION@@H@Z 100441e3 f   nafxcw:list_s.obj
 0001:000431e3       ?FindIndex@CObList@@QBEPAU__POSITION@@H@Z 100441e3 f   nafxcw:list_o.obj
 0001:000431e3       ?FindIndex@?$CList@KK@@QBEPAU__POSITION@@H@Z 100441e3 f   nafxcw:afxtoolbarcomboboxbutton.obj
 0001:00043206       ?GetPrev@CObList@@QAEAAPAVCObject@@AAPAU__POSITION@@@Z 10044206 f i nafxcw:list_o.obj
 0001:00043224       ?GetRuntimeClass@CObList@@UBEPAUCRuntimeClass@@XZ 10044224 f   nafxcw:list_o.obj
 0001:0004322a       ?InsertAfter@CObList@@QAEPAU__POSITION@@PAU2@PAVCObject@@@Z 1004422a f   nafxcw:list_o.obj
 0001:00043266       ?InsertBefore@CObList@@QAEPAU__POSITION@@PAU2@PAVCObject@@@Z 10044266 f   nafxcw:list_o.obj
 0001:000432a4       ?RemoveTail@CObList@@QAEPAVCObject@@XZ 100442a4 f   nafxcw:list_o.obj
 0001:000432c8       ?Serialize@CObList@@UAEXAAVCArchive@@@Z 100442c8 f   nafxcw:list_o.obj
 0001:00043325       ??0CMFCControlContainer@@QAE@PAVCWnd@@@Z 10044325 f   nafxcw:afxctrlcontainer.obj
 0001:00043362       ??1CMFCControlContainer@@UAE@XZ 10044362 f   nafxcw:afxctrlcontainer.obj
 0001:000433b7       ??_GCMFCControlContainer@@UAEPAXI@Z 100443b7 f i nafxcw:afxctrlcontainer.obj
 0001:000433b7       ??_ECMFCControlContainer@@UAEPAXI@Z 100443b7 f i nafxcw:afxctrlcontainer.obj
 0001:000433e7       ?AfxDoRegisterMFCControlClass@@YAXPBD0@Z 100443e7 f   nafxcw:afxctrlcontainer.obj
 0001:00043438       ?ClearControlData@CMFCControlContainer@@QAEXXZ 10044438 f   nafxcw:afxctrlcontainer.obj
 0001:00043497       ?CreateDlgControl@CMFCControlContainer@@IAEPAVCWnd@@PBD@Z 10044497 f   nafxcw:afxctrlcontainer.obj
 0001:00043734       ?FreeSubclassedControls@CMFCControlContainer@@QAEXXZ 10044734 f   nafxcw:afxctrlcontainer.obj
 0001:00043796       ?GetControlData@CMFCControlContainer@@QAEHGAAKAAPAE@Z 10044796 f   nafxcw:afxctrlcontainer.obj
 0001:000437d3       ?IsSubclassedFeaturePackControl@CMFCControlContainer@@QAEHPAUHWND__@@@Z 100447d3 f   nafxcw:afxctrlcontainer.obj
 0001:00043813       ?ReSubclassControl@CMFCControlContainer@@QAEHPAUHWND__@@GAAVCWnd@@@Z 10044813 f   nafxcw:afxctrlcontainer.obj
 0001:000438f4       ?SetControlData@CMFCControlContainer@@QAEXGKPAE@Z 100448f4 f   nafxcw:afxctrlcontainer.obj
 0001:00043971       ?AfxRegisterMFCCtrlClasses@@YAXXZ 10044971 f   nafxcw:afxctrlcontainer2.obj
 0001:00043a10       ?PreUnsubclassControl@CMFCControlContainer@@IAEXPAVCWnd@@@Z 10044a10 f   nafxcw:afxctrlcontainer2.obj
 0001:00043a69       ?SubclassDlgControls@CMFCControlContainer@@QAEHXZ 10044a69 f   nafxcw:afxctrlcontainer2.obj
 0001:00043b1e       ?UTF8ToString@CMFCControlContainer@@SGHPBDAAV?$CStringT@DV?$StrTraitMFC@DV?$ChTraitsCRT@D@ATL@@@@@ATL@@H@Z 10044b1e f   nafxcw:afxctrlcontainer2.obj
 0001:00043c0d       ??_ECListBox@@UAEPAXI@Z    10044c0d f i nafxcw:afxpropertysheet.obj
 0001:00043c0d       ??_GCListBox@@UAEPAXI@Z    10044c0d f i nafxcw:afxpropertysheet.obj
 0001:00043c40       ??_ECTreeCtrl@@UAEPAXI@Z   10044c40 f i nafxcw:afxpropertysheet.obj
 0001:00043c40       ??_GCTreeCtrl@@UAEPAXI@Z   10044c40 f i nafxcw:afxpropertysheet.obj
 0001:00043c73       ?ActivateOnBtnUp@CMFCBaseTabCtrl@@MBEHXZ 10044c73 f i nafxcw:afxpropertysheet.obj
 0001:00043c7a       ?OnDrawMenuLogo@COleIPFrameWndEx@@UAEXPAVCDC@@PAVCMFCPopupMenu@@ABVCRect@@@Z 10044c7a f i nafxcw:afxoleipframewndex.obj
 0001:00043c7a       ?OnAfterDock@CPane@@MAEXPAVCBasePane@@PBUtagRECT@@W4AFX_DOCK_METHOD@@@Z 10044c7a f i nafxcw:afxpane.obj
 0001:00043c7a       ?OnContextMenu@CMFCPrintPreviewToolBar@@IAEXPAVCWnd@@VCPoint@@@Z 10044c7a f i nafxcw:afxpreviewviewex.obj
 0001:00043c7a       ?OnDrawMenuLogo@CFrameWndEx@@UAEXPAVCDC@@PAVCMFCPopupMenu@@ABVCRect@@@Z 10044c7a f i nafxcw:afxframewndex.obj
 0001:00043c7a       ?OnLBSelChangedNotify@CFileDialog@@MAEXIII@Z 10044c7a f i nafxcw:dlgfile.obj
 0001:00043c7a       ?OnDrawMenuLogo@COleDocIPFrameWndEx@@UAEXPAVCDC@@PAVCMFCPopupMenu@@ABVCRect@@@Z 10044c7a f i nafxcw:afxoledocipframewndex.obj
 0001:00043c7a       ?OnSize@COleIPFrameWnd@@IAEXIHH@Z 10044c7a f i nafxcw:oleipfrm.obj
 0001:00043c7a       ?OnDrawMenuLogo@CMDIFrameWndEx@@UAEXPAVCDC@@PAVCMFCPopupMenu@@ABVCRect@@@Z 10044c7a f i nafxcw:afxmdiframewndex.obj
 0001:00043c7a       ?OnNcLButtonDblClk@CMFCEditBrowseCtrl@@IAEXIVCPoint@@@Z 10044c7a f i nafxcw:afxeditbrowsectrl.obj
 0001:00043c7a       ?AddRemoveSeparator@CMFCOutlookBarPane@@MAEXPBVCMFCToolBarButton@@ABVCPoint@@1@Z 10044c7a f i nafxcw:afxpropertysheet.obj
 0001:00043c7d       ?CalcRectEdit@CMFCTabCtrl@@UAEXAAVCRect@@@Z 10044c7d f i nafxcw:afxpropertysheet.obj
 0001:00043c9d       ?CanAutoHide@CBasePane@@UBEHXZ 10044c9d f i nafxcw:afxpropertysheet.obj
 0001:00043ca7       ?CanBeClosed@CMFCToolBar@@UBEHXZ 10044ca7 f i nafxcw:afxpropertysheet.obj
 0001:00043cb3       ?CanBeDocked@CPane@@UBEHPAVCBasePane@@@Z 10044cb3 f i nafxcw:afxpropertysheet.obj
 0001:00043cf9       ?CanBeResized@CBasePane@@UBEHXZ 10044cf9 f i nafxcw:afxpropertysheet.obj
 0001:00043d03       ?CanBeRestored@CMFCOutlookBarPane@@UBEHXZ 10044d03 f i nafxcw:afxpropertysheet.obj
 0001:00043d0f       ?DockPaneStandard@CPane@@UAEPAV1@AAH@Z 10044d0f f i nafxcw:afxpropertysheet.obj
 0001:00043d1e       ?FloatPane@CBasePane@@UAEHVCRect@@W4AFX_DOCK_METHOD@@_N@Z 10044d1e f i nafxcw:afxbasepane.obj
 0001:00043d1e       ?DockToFrameWindow@CBasePane@@UAEHKPBUtagRECT@@KPAV1@HH@Z 10044d1e f i nafxcw:afxbasepane.obj
 0001:00043d1e       ?OnNcPaint@CMFCVisualManager@@UAEHPAVCWnd@@ABVCObList@@VCRect@@@Z 10044d1e f i nafxcw:afxvisualmanager.obj
 0001:00043d1e       ?DockToFrameWindow@CPane@@UAEHKPBUtagRECT@@KPAVCBasePane@@HH@Z 10044d1e f i nafxcw:afxpropertysheet.obj
 0001:00043d23       ?DoesAllowDynInsertBefore@CBasePane@@UBEHXZ 10044d23 f i nafxcw:afxpropertysheet.obj
 0001:00043d23       ?AllowDestroyEmptyTabbedPane@CMFCOutlookBar@@UBEHXZ 10044d23 f i nafxcw:afxoutlookbar.obj
 0001:00043d3e       ?DoesAllowSiblingBars@CPane@@UBEHXZ 10044d3e f i nafxcw:afxpropertysheet.obj
 0001:00043d4a       ?DrawTextA@CDC@@QAEHABV?$CStringT@DV?$StrTraitMFC@DV?$ChTraitsCRT@D@ATL@@@@@ATL@@PAUtagRECT@@I@Z 10044d4a f i nafxcw:afxpropertysheet.obj
 0001:00043d77       ?GetActiveTab@CMFCBaseTabCtrl@@UBEHXZ 10044d77 f i nafxcw:afxpropertysheet.obj
 0001:00043d7e       ?GetActiveTabColor@CMFCBaseTabCtrl@@UBEKXZ 10044d7e f i nafxcw:afxpropertysheet.obj
 0001:00043d92       ?GetActiveTabTextColor@CMFCBaseTabCtrl@@UBEKXZ 10044d92 f i nafxcw:afxpropertysheet.obj
 0001:00043da6       ?GetButtonSize@CMFCToolBar@@QBE?AVCSize@@XZ 10044da6 f i nafxcw:afxpropertysheet.obj
 0001:00043e35       ?GetColumnWidth@CMFCToolBar@@UBEHXZ 10044e35 f i nafxcw:afxpropertysheet.obj
 0001:00043e60       ?GetCommandTarget@CMFCToolBar@@MBEPAVCWnd@@XZ 10044e60 f i nafxcw:afxpropertysheet.obj
 0001:00043ea0       ?GetCurrentAlignment@CMFCOutlookBarPane@@MBEKXZ 10044ea0 f i nafxcw:afxpropertysheet.obj
 0001:00043eac       ?GetEnabledAlignment@CBasePane@@UBEKXZ 10044eac f i nafxcw:afxpropertysheet.obj
 0001:00043eb3       ?GetExclusiveRowMode@CPane@@UBEHXZ 10044eb3 f i nafxcw:afxpropertysheet.obj
 0001:00043eba       ?GetFirstVisibleTabNum@CMFCTabCtrl@@UBEHXZ 10044eba f i nafxcw:afxpropertysheet.obj
 0001:00043ee3       ?GetGlobalData@@YAPAUAFX_GLOBAL_DATA@@XZ 10044ee3 f i nafxcw:afxpropertysheet.obj
 0001:00043f07       ?GetImageList@CMFCBaseTabCtrl@@UBEPBVCImageList@@XZ 10044f07 f i nafxcw:afxpropertysheet.obj
 0001:00043f2b       ?GetImageSize@CMFCBaseTabCtrl@@UBE?AVCSize@@XZ 10044f2b f i nafxcw:afxpropertysheet.obj
 0001:00043f46       ?GetInstance@CMFCVisualManager@@SGPAV1@XZ 10044f46 f i nafxcw:afxpropertysheet.obj
 0001:00043fc0       ?GetMinSize@CMFCBaseToolBar@@UBEXAAVCSize@@@Z 10044fc0 f i nafxcw:afxpropertysheet.obj
 0001:00043ffc       ?GetNavBarWidth@CMFCPropertySheet@@QBEHXZ 10044ffc f   nafxcw:afxpropertysheet.obj
 0001:0004401a       ?GetPaneIcon@CBasePane@@UAEPAUHICON__@@H@Z 1004501a f i nafxcw:afxpropertysheet.obj
 0001:00044031       ?GetPaneStyle@CBasePane@@UBEKXZ 10045031 f i nafxcw:afxpropertysheet.obj
 0001:00044038       ?GetParentDockSite@CBasePane@@UBEPAVCDockSite@@XZ 10045038 f i nafxcw:afxpropertysheet.obj
 0001:0004403f       ?GetRecentVisibleState@CBasePane@@UBEHXZ 1004503f f i nafxcw:afxpropertysheet.obj
 0001:00044046       ?GetRibbonImageScale@AFX_GLOBAL_DATA@@QAENXZ 10045046 f i nafxcw:afxpropertysheet.obj
 0001:00044059       ?GetTabArea@CMFCTabCtrl@@UBEXAAVCRect@@0@Z 10045059 f i nafxcw:afxpropertysheet.obj
 0001:00044091       ?GetTabBorderSize@CMFCBaseTabCtrl@@UBEHXZ 10045091 f i nafxcw:afxpropertysheet.obj
 0001:000440ba       ?GetTabsHeight@CMFCTabCtrl@@UBEHXZ 100450ba f i nafxcw:afxpropertysheet.obj
 0001:00044103       ?GetTabsNum@CMFCBaseTabCtrl@@UBEHXZ 10045103 f i nafxcw:afxpropertysheet.obj
 0001:0004410a       ?GetTabsRect@CMFCTabCtrl@@UBEXAAVCRect@@@Z 1004510a f i nafxcw:afxpropertysheet.obj
 0001:00044122       ?IsActiveTabCloseButton@CMFCTabCtrl@@UBEHXZ 10045122 f i nafxcw:afxpropertysheet.obj
 0001:00044129       ?IsDragMode@CPane@@UBEHXZ  10045129 f i nafxcw:afxpropertysheet.obj
 0001:00044130       ?IsFlatFrame@CMFCTabCtrl@@UBEHXZ 10045130 f i nafxcw:afxpropertysheet.obj
 0001:00044137       ?IsFlatTab@CMFCTabCtrl@@UBEHXZ 10045137 f i nafxcw:afxpropertysheet.obj
 0001:0004413e       ?IsFloating@CMFCToolBar@@UBEHXZ 1004513e f i nafxcw:afxpropertysheet.obj
 0001:00044145       ?IsHideSingleTab@CMFCBaseTabCtrl@@UBEHXZ 10045145 f i nafxcw:afxpropertysheet.obj
 0001:0004414c       ?IsHorizontal@CBasePane@@UBEHXZ 1004514c f i nafxcw:afxpropertysheet.obj
 0001:0004416c       ?IsInPlaceEdit@CMFCBaseTabCtrl@@UBEHXZ 1004516c f i nafxcw:afxpropertysheet.obj
 0001:00044173       ?IsLeftRightRounded@CMFCTabCtrl@@UBEHXZ 10045173 f i nafxcw:afxpropertysheet.obj
 0001:0004417a       ?IsOneNoteStyle@CMFCTabCtrl@@UBEHXZ 1004517a f i nafxcw:afxpropertysheet.obj
 0001:00044181       ?IsPureMenuButton@CMFCToolBar@@MBEHPAVCMFCToolBarButton@@@Z 10045181 f i nafxcw:afxpropertysheet.obj
 0001:0004418a       ?IsResourceChanged@CMFCToolBar@@UBEHXZ 1004518a f i nafxcw:afxpropertysheet.obj
 0001:00044191       ?IsRestoredFromRegistry@CBasePane@@UBEHXZ 10045191 f i nafxcw:afxpropertysheet.obj
 0001:00044198       ?IsVS2005Style@CMFCTabCtrl@@UBEHXZ 10045198 f i nafxcw:afxpropertysheet.obj
 0001:0004419f       ?MoveWindow@CWnd@@QAEXPBUtagRECT@@H@Z 1004519f f i nafxcw:afxpropertysheet.obj
 0001:000441c3       ?OnEndPrinting@CView@@MAEXPAVCDC@@PAUCPrintInfo@@@Z 100451c3 f i nafxcw:viewcore.obj
 0001:000441c3       ?OnSizeMDIClient@CMDIFrameWndEx@@UAEXABVCRect@@0@Z 100451c3 f i nafxcw:afxmdiframewndex.obj
 0001:000441c3       ?OnBeforeChangeParent@CBasePane@@UAEXPAVCWnd@@H@Z 100451c3 f i nafxcw:afxbasepane.obj
 0001:000441c3       ?OnNcCalcSize@CMFCOutlookBarToolBar@@QAEXHPAUtagNCCALCSIZE_PARAMS@@@Z 100451c3 f i nafxcw:afxoutlookbartabctrl.obj
 0001:000441c3       ?OnChangeMenuHighlight@CMFCRibbonBaseElement@@UAEXPAVCMFCRibbonPanelMenuBar@@PAV1@@Z 100451c3 f i nafxcw:afxbaseribbonelement.obj
 0001:000441c3       ?OnShowPane@CPaneFrameWnd@@UAEXPAVCDockablePane@@H@Z 100451c3 f i nafxcw:afxpaneframewnd.obj
 0001:000441c3       ?OnItemSelected@CFileDialog@@MAEXKK@Z 100451c3 f i nafxcw:dlgfile.obj
 0001:000441c3       ?OnLButtonUp@CMFCRibbonEdit@@UAEXVCPoint@@@Z 100451c3 f i nafxcw:afxribbonedit.obj
 0001:000441c3       ?OnUpdateCmdUI@CMFCCaptionBar@@MAEXPAVCFrameWnd@@H@Z 100451c3 f i nafxcw:afxcaptionbar.obj
 0001:000441c3       ?Create@CSmartDockingGroupGuide@@UAEXW4SDMarkerPlace@CSmartDockingStandaloneGuide@@PAVCWnd@@@Z 100451c3 f i nafxcw:afxsmartdockingguide.obj
 0001:000441c3       ?OnDrawDragRect@CPane@@MAEXPBUtagRECT@@0@Z 100451c3 f i nafxcw:afxpropertysheet.obj
 0001:000441c3       ?OnBeginPrinting@CView@@MAEXPAVCDC@@PAUCPrintInfo@@@Z 100451c3 f i nafxcw:viewcore.obj
 0001:000441c3       ?OnChangeSelection@CMFCPropertyGridCtrl@@UAEXPAVCMFCPropertyGridProperty@@0@Z 100451c3 f i nafxcw:afxpropertygridctrl.obj
 0001:000441c3       ?ScrollChild@CMFCTasksPane@@MAEXPAUHWND__@@H@Z 100451c3 f i nafxcw:afxtaskspane.obj
 0001:000441c3       ?OnUpdateCmdUI@CDockBar@@MAEXPAVCFrameWnd@@H@Z 100451c3 f i nafxcw:bardock.obj
 0001:000441c3       ?OnLButtonUp@CMFCRibbonLabel@@MAEXVCPoint@@@Z 100451c3 f i nafxcw:afxribbonlabel.obj
 0001:000441c3       ?OnActivateApp@CMFCVisualManager@@UAEXPAVCWnd@@H@Z 100451c3 f i nafxcw:afxvisualmanager.obj
 0001:000441c3       ?OnBarStyleChange@CControlBar@@UAEXKK@Z 100451c3 f i nafxcw:barcore.obj
 0001:000441c3       ?OnLButtonUp@CMFCRibbonBaseElement@@MAEXVCPoint@@@Z 100451c3 f i nafxcw:afxbaseribbonelement.obj
 0001:000441c3       ?OnMouseMove@CMFCRibbonBaseElement@@MAEXVCPoint@@@Z 100451c3 f i nafxcw:afxbaseribbonelement.obj
 0001:000441c3       ?OnUpdateCmdUI@CBasePane@@UAEXPAVCFrameWnd@@H@Z 100451c3 f i nafxcw:afxbasepane.obj
 0001:000441c3       ?OnActivateFrame@CView@@MAEXIPAVCFrameWnd@@@Z 100451c3 f i nafxcw:viewcore.obj
 0001:000441c3       ?OnDrawMenuBorder@CMFCRibbonCategory@@UAEXPAVCDC@@PAVCMFCRibbonPanelMenuBar@@@Z 100451c3 f i nafxcw:afxribboncategory.obj
 0001:000441c3       ?OnCheckButtonToggled@CFileDialog@@MAEXKH@Z 100451c3 f i nafxcw:dlgfile.obj
 0001:000441c3       ?StoreRecentTabRelatedInfo@CPaneFrameWnd@@UAEXPAVCDockablePane@@0@Z 100451c3 f i nafxcw:afxpaneframewnd.obj
 0001:000441c3       ?OnNcCalcSize@CMFCPopupMenuBar@@IAEXHPAUtagNCCALCSIZE_PARAMS@@@Z 100451c3 f i nafxcw:afxpopupmenubar.obj
 0001:000441c3       ?OnLButtonDblClk@CMFCRibbonBaseElement@@MAEXVCPoint@@@Z 100451c3 f i nafxcw:afxbaseribbonelement.obj
 0001:000441c3       ?OnDrawMenuBorder@CMFCRibbonPanel@@MAEXPAVCDC@@PAVCMFCRibbonPanelMenuBar@@@Z 100451c3 f i nafxcw:afxribbonpanel.obj
 0001:000441c6       ?SetControlBarStyle@CBasePane@@UAEXK@Z 100451c6 f i nafxcw:afxpropertysheet.obj
 0001:000441d6       ?SetExclusiveRowMode@CPane@@UAEXH@Z 100451d6 f i nafxcw:afxpropertysheet.obj
 0001:000441e6       ?SetPaneAlignment@CBasePane@@UAEXK@Z 100451e6 f i nafxcw:afxpropertysheet.obj
 0001:00044201       ?SetPaneStyle@CBasePane@@UAEXK@Z 10045201 f i nafxcw:afxpropertysheet.obj
 0001:00044211       ?SetRestoredFromRegistry@CBasePane@@UAEXH@Z 10045211 f i nafxcw:afxpropertysheet.obj
 0001:00044211       ?SetParentCategory@CMFCRibbonBaseElement@@UAEXPAVCMFCRibbonCategory@@@Z 10045211 f i nafxcw:afxbaseribbonelement.obj
 0001:00044221       _IsolationAwareImageList_AddMasked@12 10045221 f i nafxcw:afxpropertysheet.obj
 0001:000442f9       _IsolationAwareImageList_GetIcon@12 100452f9 f i nafxcw:afxpropertysheet.obj
 0001:000443c7       ??0CMFCPropertyPage@@QAE@XZ 100453c7 f   nafxcw:afxpropertypage.obj
 0001:00044402       ??1CMFCPropertyPage@@UAE@XZ 10045402 f   nafxcw:afxpropertypage.obj
 0001:0004441e       ??_GCMFCPropertyPage@@UAEPAXI@Z 1004541e f i nafxcw:afxpropertypage.obj
 0001:0004441e       ??_ECMFCPropertyPage@@UAEPAXI@Z 1004541e f i nafxcw:afxpropertypage.obj
 0001:00044451       ?CommonInit@CMFCPropertyPage@@IAEXXZ 10045451 f   nafxcw:afxpropertypage.obj
 0001:0004446e       ?CreateObject@CMFCPropertyPage@@SGPAVCObject@@XZ 1004546e f   nafxcw:afxpropertypage.obj
 0001:0004449e       ?GetMessageMap@CMFCPropertyPage@@MBEPBUAFX_MSGMAP@@XZ 1004549e f   nafxcw:afxpropertypage.obj
 0001:000444a4       ?GetRuntimeClass@CMFCPropertyPage@@UBEPAUCRuntimeClass@@XZ 100454a4 f   nafxcw:afxpropertypage.obj
 0001:000444aa       ?OnActivate@CMFCPropertyPage@@IAEXIPAVCWnd@@H@Z 100454aa f   nafxcw:afxpropertypage.obj
 0001:000444cd       ?OnCommand@CMFCPropertyPage@@MAEHIJ@Z 100454cd f   nafxcw:afxpropertypage.obj
 0001:000444cd       ?OnCommand@CDialogEx@@MAEHIJ@Z 100454cd f   nafxcw:afxdialogex.obj
 0001:000444ff       ?OnEraseBkgnd@CMFCPropertyPage@@IAEHPAVCDC@@@Z 100454ff f   nafxcw:afxpropertypage.obj
 0001:0004461d       ?OnEraseBkgnd@CWnd@@IAEHPAVCDC@@@Z 1004561d f i nafxcw:afxpropertypage.obj
 0001:0004461d       ?OnNcActivate@CMDIChildWnd@@IAEHH@Z 1004561d f i nafxcw:winmdi.obj
 0001:0004461d       ?OnWindowPosChanged@CWnd@@IAEXPAUtagWINDOWPOS@@@Z 1004561d f i nafxcw:afxvslistbox.obj
 0001:00044625       ?OnInitDialog@CMFCPropertyPage@@MAEHXZ 10045625 f   nafxcw:afxpropertypage.obj
 0001:000446e6       ?OnNcActivate@CMFCPropertyPage@@IAEHH@Z 100456e6 f   nafxcw:afxpropertypage.obj
 0001:000446e6       ?OnNcActivate@CDialogEx@@IAEHH@Z 100456e6 f   nafxcw:afxdialogex.obj
 0001:00044720       ?OnSetActive@CMFCPropertyPage@@UAEHXZ 10045720 f   nafxcw:afxpropertypage.obj
 0001:00044766       ?PreTranslateMessage@CMFCPropertyPage@@UAEHPAUtagMSG@@@Z 10045766 f   nafxcw:afxpropertypage.obj
 0001:00044792       ?SetActiveMenu@CMFCPropertyPage@@IAEXPAVCMFCPopupMenu@@@Z 10045792 f   nafxcw:afxpropertypage.obj
 0001:00044792       ?SetActiveMenu@CDialogEx@@IAEXPAVCMFCPopupMenu@@@Z 10045792 f   nafxcw:afxdialogex.obj
 0001:000447a1       ?GetAt@?$CSimpleStringT@D$0A@@ATL@@QBEDH@Z 100457a1 f i nafxcw:afxtoolbar.obj
 0001:000447a1       ??A?$CSimpleStringT@D$0A@@ATL@@QBEDH@Z 100457a1 f i nafxcw:appui3.obj
 0001:000447c4       ?GetITaskbarList3@CWinApp@@QAEPAUITaskbarList3@@XZ 100457c4 f   nafxcw:appui3.obj
 0001:00044822       ??ACRecentFileList@@QAEAAV?$CStringT@DV?$StrTraitMFC@DV?$ChTraitsCRT@D@ATL@@@@@ATL@@H@Z 10045822 f i nafxcw:appui.obj
 0001:00044841       ?CloseAllDocuments@CWinApp@@QAEXH@Z 10045841 f   nafxcw:appui.obj
 0001:00044867       ?HideApplication@CWinApp@@QAEXXZ 10045867 f   nafxcw:appui.obj
 0001:00044899       ??HATL@@YA?AV?$CStringT@DV?$StrTraitMFC@DV?$ChTraitsCRT@D@ATL@@@@@0@ABV10@0@Z 10045899 f i nafxcw:filelist.obj
 0001:000448ee       ??$CompareElements@V?$CStringT@DV?$StrTraitMFC@DV?$ChTraitsCRT@D@ATL@@@@@ATL@@PBD@@YGHPBV?$CStringT@DV?$StrTraitMFC@DV?$ChTraitsCRT@D@ATL@@@@@ATL@@PBQBD@Z 100458ee f i nafxcw:afxdatarecovery.obj
 0001:00044917       ?QueryStringValue@CRegKey@ATL@@QAEJPBDPADPAK@Z 10045917 f i nafxcw:afxdatarecovery.obj
 0001:00044976       ??0CDialogTemplate@@QAE@PBUDLGTEMPLATE@@@Z 10045976 f   nafxcw:dlgtempl.obj
 0001:000449b1       ??1CDialogTemplate@@QAE@XZ 100459b1 f   nafxcw:dlgtempl.obj
 0001:000449bf       ?Detach@CDialogTemplate@@QAEPAXXZ 100459bf f   nafxcw:dlgtempl.obj
 0001:000449c5       ?GetFont@CDialogTemplate@@SAHPBUDLGTEMPLATE@@AAV?$CStringT@DV?$StrTraitMFC@DV?$ChTraitsCRT@D@ATL@@@@@ATL@@AAG@Z 100459c5 f   nafxcw:dlgtempl.obj
 0001:00044a3a       ?GetFontSizeField@CDialogTemplate@@KAPAEPBUDLGTEMPLATE@@@Z 10045a3a f   nafxcw:dlgtempl.obj
 0001:00044a8f       ?GetTemplateSize@CDialogTemplate@@KAIPBUDLGTEMPLATE@@@Z 10045a8f f   nafxcw:dlgtempl.obj
 0001:00044b7b       ?HasFont@@YAHPBUDLGTEMPLATE@@@Z 10045b7b f i nafxcw:dlgtempl.obj
 0001:00044b96       ?SetFont@CDialogTemplate@@QAEHPBDG@Z 10045b96 f   nafxcw:dlgtempl.obj
 0001:00044d0f       ?SetSystemFont@CDialogTemplate@@QAEHG@Z 10045d0f f   nafxcw:dlgtempl.obj
 0001:00044dba       ?SetTemplate@CDialogTemplate@@IAEHPBUDLGTEMPLATE@@I@Z 10045dba f   nafxcw:dlgtempl.obj
 0001:00044e1b       ??0CPtrArray@@QAE@XZ       10045e1b f   nafxcw:array_p.obj
 0001:00044e32       ??1CPtrArray@@UAE@XZ       10045e32 f   nafxcw:array_p.obj
 0001:00044e42       ??_GCPtrArray@@UAEPAXI@Z   10045e42 f i nafxcw:array_p.obj
 0001:00044e42       ??_ECPtrArray@@UAEPAXI@Z   10045e42 f i nafxcw:array_p.obj
 0001:00044e7c       ?GetRuntimeClass@CPtrArray@@UBEPAUCRuntimeClass@@XZ 10045e7c f   nafxcw:array_p.obj
 0001:00044e82       ?InsertAt@CPtrArray@@QAEXHPAXH@Z 10045e82 f   nafxcw:array_p.obj
 0001:00044f34       ?RemoveAt@CPtrArray@@QAEXHH@Z 10045f34 f   nafxcw:array_p.obj
 0001:00044f96       ?SetAtGrow@CObArray@@QAEXHPAVCObject@@@Z 10045f96 f   nafxcw:array_o.obj
 0001:00044f96       ?SetAtGrow@CUIntArray@@QAEXHI@Z 10045f96 f   nafxcw:array_u.obj
 0001:00044f96       ?SetAtGrow@CPtrArray@@QAEXHPAX@Z 10045f96 f   nafxcw:array_p.obj
 0001:00044fc9       ?SetSize@CPtrArray@@QAEXHH@Z 10045fc9 f   nafxcw:array_p.obj
 0001:00044fc9       ?SetSize@CUIntArray@@QAEXHH@Z 10045fc9 f   nafxcw:array_u.obj
 0001:00044fc9       ?SetSize@CObArray@@QAEXHH@Z 10045fc9 f   nafxcw:array_o.obj
 0001:0004514a       ??_E_AFX_PROPPAGEFONTINFO@@UAEPAXI@Z 1004614a f i nafxcw:ccdata.obj
 0001:0004514a       ??_G_AFX_PROPPAGEFONTINFO@@UAEPAXI@Z 1004614a f i nafxcw:ccdata.obj
 0001:00045184       ?AfxGetPropSheetFont@@YGHAAV?$CStringT@DV?$StrTraitMFC@DV?$ChTraitsCRT@D@ATL@@@@@ATL@@AAGH@Z 10046184 f   nafxcw:ccdata.obj
 0001:000452cc       ?CreateObject@?$CProcessLocal@U_AFX_PROPPAGEFONTINFO@@@@SGPAVCNoTrackObject@@XZ 100462cc f i nafxcw:ccdata.obj
 0001:0004539d       ?GetMessageMap@CCommonDialog@@MBEPBUAFX_MSGMAP@@XZ 1004639d f   nafxcw:dlgcomm.obj
 0001:0004539d       ?GetThisMessageMap@CCommonDialog@@KGPBUAFX_MSGMAP@@XZ 1004639d f   nafxcw:dlgcomm.obj
 0001:000453a3       ?GetRuntimeClass@CCommonDialog@@UBEPAUCRuntimeClass@@XZ 100463a3 f   nafxcw:dlgcomm.obj
 0001:000453a9       ?OnPaint@CCommonDialog@@IAEXXZ 100463a9 f   nafxcw:dlgcomm.obj
 0001:000453a9       ?OnCancel@CCommonDialog@@MAEXXZ 100463a9 f   nafxcw:dlgcomm.obj
 0001:000453a9       ?OnCancelMode@CMFCColorPickerCtrl@@IAEXXZ 100463a9 f   nafxcw:afxcolorpickerctrl.obj
 0001:000453a9       ?OnCancelMode@CWnd@@IAEXXZ 100463a9 f   nafxcw:afxbutton.obj
 0001:000453ae       ?OnHelpInfo@CCommonDialog@@IAEHPAUtagHELPINFO@@@Z 100463ae f   nafxcw:dlgcomm.obj
 0001:000453bc       ?OnOK@CCommonDialog@@MAEXXZ 100463bc f   nafxcw:dlgcomm.obj
 0001:000453d4       ?_AfxCommDlgProc@@YGIPAUHWND__@@IIJ@Z 100463d4 f   nafxcw:dlgcomm.obj
 0001:000455b2       ??0?$CStringT@_WV?$StrTraitMFC@_WV?$ChTraitsCRT@_W@ATL@@@@@ATL@@QAE@PB_W@Z 100465b2 f i nafxcw:dlgfile.obj
 0001:00045604       ??0CFileDialog@@QAE@HPBD0K0PAVCWnd@@KH@Z 10046604 f   nafxcw:dlgfile.obj
 0001:000458e1       ??1CColorDialog@@UAE@XZ    100468e1 f i nafxcw:afxcolorbar.obj
 0001:000458e1       ??1CPrintDialog@@UAE@XZ    100468e1 f i nafxcw:afxtoolbarfontcombobox.obj
 0001:000458e1       ??1CCommonDialog@@UAE@XZ   100468e1 f i nafxcw:dlgfile.obj
 0001:000458ec       ??1CFileDialog@@UAE@XZ     100468ec f   nafxcw:dlgfile.obj
 0001:000459af       ??A?$CSimpleStringT@_W$0A@@ATL@@QBE_WH@Z 100469af f i nafxcw:dlgfile.obj
 0001:000459d3       ??_ECCommonDialog@@UAEPAXI@Z 100469d3 f i nafxcw:dlgfile.obj
 0001:000459d3       ??_GCCommonDialog@@UAEPAXI@Z 100469d3 f i nafxcw:dlgfile.obj
 0001:00045a0c       ??_ECFileDialog@@UAEPAXI@Z 10046a0c f i nafxcw:dlgfile.obj
 0001:00045a0c       ??_GCFileDialog@@UAEPAXI@Z 10046a0c f i nafxcw:dlgfile.obj
 0001:00045a3f       ?AddRef@XFileDialogControlEvents@CFileDialog@@UAGKXZ 10046a3f f   nafxcw:dlgfile.obj
 0001:00045a71       ?AddRef@XFileDialogEvents@CFileDialog@@UAGKXZ 10046a71 f   nafxcw:dlgfile.obj
 0001:00045aa3       ?ApplyOFNToShellDialog@CFileDialog@@QAEXXZ 10046aa3 f   nafxcw:dlgfile.obj
 0001:00046061       ?DoModal@CFileDialog@@UAEHXZ 10047061 f   nafxcw:dlgfile.obj
 0001:000461b3       ?GetIFileSaveDialog@CFileDialog@@QAEPAUIFileSaveDialog@@XZ 100471b3 f   nafxcw:dlgfile.obj
 0001:000461e8       ?GetInterfaceMap@CFileDialog@@MBEPBUAFX_INTERFACEMAP@@XZ 100471e8 f   nafxcw:dlgfile.obj
 0001:000461ee       ?GetOFN@CFileDialog@@QAEAAUtagOFNA@@XZ 100471ee f   nafxcw:dlgfile.obj
 0001:000461f5       ?GetPathName@CFileDialog@@QBE?AV?$CStringT@DV?$StrTraitMFC@DV?$ChTraitsCRT@D@ATL@@@@@ATL@@XZ 100471f5 f   nafxcw:dlgfile.obj
 0001:00046422       ?GetRuntimeClass@CFileDialog@@UBEPAUCRuntimeClass@@XZ 10047422 f   nafxcw:dlgfile.obj
 0001:00046428       ?OnButtonClicked@XFileDialogControlEvents@CFileDialog@@UAGJPAUIFileDialogCustomize@@K@Z 10047428 f   nafxcw:dlgfile.obj
 0001:0004646e       ?OnCheckButtonToggled@XFileDialogControlEvents@CFileDialog@@UAGJPAUIFileDialogCustomize@@KH@Z 1004746e f   nafxcw:dlgfile.obj
 0001:000464b7       ?OnControlActivating@XFileDialogControlEvents@CFileDialog@@UAGJPAUIFileDialogCustomize@@K@Z 100474b7 f   nafxcw:dlgfile.obj
 0001:000464fd       ?OnFileOk@XFileDialogEvents@CFileDialog@@UAGJPAUIFileDialog@@@Z 100474fd f   nafxcw:dlgfile.obj
 0001:00046562       ?OnFolderChange@XFileDialogEvents@CFileDialog@@UAGJPAUIFileDialog@@@Z 10047562 f   nafxcw:dlgfile.obj
 0001:000465a5       ?OnFolderChanging@XFileDialogEvents@CFileDialog@@UAGJPAUIFileDialog@@PAUIShellItem@@@Z 100475a5 f   nafxcw:dlgfile.obj
 0001:000465c8       ?OnHelp@XFileDialogEvents@CFileDialog@@UAGJPAUIFileDialog@@@Z 100475c8 f   nafxcw:dlgfile.obj
 0001:000465eb       ?OnInitDone@CFileDialog@@MAEXXZ 100475eb f   nafxcw:dlgfile.obj
 0001:00046604       ?OnItemSelected@XFileDialogControlEvents@CFileDialog@@UAGJPAUIFileDialogCustomize@@KK@Z 10047604 f   nafxcw:dlgfile.obj
 0001:0004664d       ?OnNotify@CFileDialog@@MAEHIJPAJ@Z 1004764d f   nafxcw:dlgfile.obj
 0001:00046749       ?OnOverwrite@XFileDialogEvents@CFileDialog@@UAGJPAUIFileDialog@@PAUIShellItem@@PAW4FDE_OVERWRITE_RESPONSE@@@Z 10047749 f   nafxcw:dlgfile.obj
 0001:0004676c       ?OnSelectionChange@XFileDialogEvents@CFileDialog@@UAGJPAUIFileDialog@@@Z 1004776c f   nafxcw:dlgfile.obj
 0001:000467af       ?OnShareViolation@XFileDialogEvents@CFileDialog@@UAGJPAUIFileDialog@@PAUIShellItem@@PAW4FDE_SHAREVIOLATION_RESPONSE@@@Z 100477af f   nafxcw:dlgfile.obj
 0001:00046866       ?OnTypeChange@XFileDialogEvents@CFileDialog@@UAGJPAUIFileDialog@@@Z 10047866 f   nafxcw:dlgfile.obj
 0001:000468d4       ?QueryInterface@XFileDialogControlEvents@CFileDialog@@UAGJABU_GUID@@PAPAX@Z 100478d4 f   nafxcw:dlgfile.obj
 0001:00046918       ?QueryInterface@XFileDialogEvents@CFileDialog@@UAGJABU_GUID@@PAPAX@Z 10047918 f   nafxcw:dlgfile.obj
 0001:00046950       ?Release@XFileDialogControlEvents@CFileDialog@@UAGKXZ 10047950 f   nafxcw:dlgfile.obj
 0001:00046982       ?Release@XFileDialogEvents@CFileDialog@@UAGKXZ 10047982 f   nafxcw:dlgfile.obj
 0001:000469b4       ?UpdateOFNFromShellDialog@CFileDialog@@UAEXXZ 100479b4 f   nafxcw:dlgfile.obj
 0001:00046f2b       _IsolationAwareGetOpenFileNameA@4 10047f2b f i nafxcw:dlgfile.obj
 0001:00046ff3       _IsolationAwareGetSaveFileNameA@4 10047ff3 f i nafxcw:dlgfile.obj
 0001:000470bb       ?CreateObject@CObArray@@SGPAVCObject@@XZ 100480bb f   nafxcw:array_o.obj
 0001:000470db       ??0CObArray@@QAE@XZ        100480db f   nafxcw:array_o.obj
 0001:000470f2       ??1CObArray@@UAE@XZ        100480f2 f   nafxcw:array_o.obj
 0001:00047102       ??_ECObArray@@UAEPAXI@Z    10048102 f i nafxcw:array_o.obj
 0001:00047102       ??_GCObArray@@UAEPAXI@Z    10048102 f i nafxcw:array_o.obj
 0001:0004713c       ?GetRuntimeClass@CObArray@@UBEPAUCRuntimeClass@@XZ 1004813c f   nafxcw:array_o.obj
 0001:00047142       ?Serialize@CObArray@@UAEXAAVCArchive@@@Z 10048142 f   nafxcw:array_o.obj
 0001:000471b8       ?CreateObject@CMapWordToOb@@SGPAVCObject@@XZ 100481b8 f   nafxcw:map_wo.obj
 0001:000471da       ??$HashKey@G@@YGIG@Z       100481da f i nafxcw:map_wo.obj
 0001:0004720a       ??0CMapWordToOb@@QAE@H@Z   1004820a f   nafxcw:map_wo.obj
 0001:0004723b       ??1CMapWordToOb@@UAE@XZ    1004823b f   nafxcw:map_wo.obj
 0001:00047275       ??ACMapWordToOb@@QAEAAPAVCObject@@G@Z 10048275 f   nafxcw:map_wo.obj
 0001:000472cd       ??_GCMapWordToOb@@UAEPAXI@Z 100482cd f i nafxcw:map_wo.obj
 0001:000472cd       ??_ECMapWordToOb@@UAEPAXI@Z 100482cd f i nafxcw:map_wo.obj
 0001:00047331       ?GetAssocAt@CMapWordToOb@@IBEPAUCAssoc@1@GAAI0@Z 10048331 f   nafxcw:map_wo.obj
 0001:00047370       ?GetNextAssoc@CMapWordToOb@@QBEXAAPAU__POSITION@@AAGAAPAVCObject@@@Z 10048370 f   nafxcw:map_wo.obj
 0001:000473f5       ?GetRuntimeClass@CMapWordToOb@@UBEPAUCRuntimeClass@@XZ 100483f5 f   nafxcw:map_wo.obj
 0001:000473fb       ?Lookup@CMapWordToOb@@QBEHGAAPAVCObject@@@Z 100483fb f   nafxcw:map_wo.obj
 0001:00047423       ?NewAssoc@CMapWordToOb@@IAEPAUCAssoc@1@XZ 10048423 f   nafxcw:map_wo.obj
 0001:00047470       ?Serialize@CMapWordToOb@@UAEXAAVCArchive@@@Z 10048470 f   nafxcw:map_wo.obj
 0001:00047516       ??0CMFCButton@@QAE@XZ      10048516 f   nafxcw:afxbutton.obj
 0001:00047690       ??1CMFCButton@@UAE@XZ      10048690 f   nafxcw:afxbutton.obj
 0001:00047725       ??_GCButton@@UAEPAXI@Z     10048725 f i nafxcw:afxbutton.obj
 0001:00047725       ??_ECButton@@UAEPAXI@Z     10048725 f i nafxcw:afxbutton.obj
 0001:00047758       ??_ECMFCOutlookBarScrollButton@@UAEPAXI@Z 10048758 f i nafxcw:afxoutlookbartabctrl.obj
 0001:00047758       ??_GCMFCOutlookBarScrollButton@@UAEPAXI@Z 10048758 f i nafxcw:afxoutlookbartabctrl.obj
 0001:00047758       ??_ECMFCTabButton@@UAEPAXI@Z 10048758 f i nafxcw:afxtabctrl.obj
 0001:00047758       ??_ECMFCButton@@UAEPAXI@Z  10048758 f i nafxcw:afxbutton.obj
 0001:00047758       ??_GCMFCButton@@UAEPAXI@Z  10048758 f i nafxcw:afxbutton.obj
 0001:00047758       ??_GCMFCTabButton@@UAEPAXI@Z 10048758 f i nafxcw:afxtabctrl.obj
 0001:0004780e       ?CheckNextPrevRadioButton@CMFCButton@@IAEHH@Z 1004880e f   nafxcw:afxbutton.obj
 0001:00047927       ?CleanUp@CMFCButton@@UAEXXZ 10048927 f   nafxcw:afxbutton.obj
 0001:00047989       ?ClearImages@CMFCButton@@IAEXH@Z 10048989 f   nafxcw:afxbutton.obj
 0001:000479f9       ?CreateObject@CMFCButton@@SGPAVCObject@@XZ 100489f9 f   nafxcw:afxbutton.obj
 0001:00047a29       ?DrawBorder@CMFCButton@@IAEXPAVCDC@@AAVCRect@@I@Z 10048a29 f   nafxcw:afxbutton.obj
 0001:00047bd5       ?DrawItem@CMFCButton@@UAEXPAUtagDRAWITEMSTRUCT@@@Z 10048bd5 f   nafxcw:afxbutton.obj
 0001:00047cbf       ?EnableFullTextTooltip@CMFCButton@@QAEXH@Z 10048cbf f   nafxcw:afxbutton.obj
 0001:00047cd5       ?GetImageHorzMargin@CMFCButton@@MBEHXZ 10048cd5 f   nafxcw:afxbutton.obj
 0001:00047cd9       ?GetMessageMap@CMFCButton@@MBEPBUAFX_MSGMAP@@XZ 10048cd9 f   nafxcw:afxbutton.obj
 0001:00047cd9       ?GetThisMessageMap@CMFCButton@@KGPBUAFX_MSGMAP@@XZ 10048cd9 f   nafxcw:afxbutton.obj
 0001:00047cdf       ?GetRuntimeClass@CMFCButton@@UBEPAUCRuntimeClass@@XZ 10048cdf f   nafxcw:afxbutton.obj
 0001:00047ce5       ?GetVertMargin@CMFCButton@@MBEHXZ 10048ce5 f   nafxcw:afxbutton.obj
 0001:00047ce9       ?InitStyle@CMFCButton@@IAEXK@Z 10048ce9 f   nafxcw:afxbutton.obj
 0001:00047d9c       ?MakeUpper@?$CStringT@DV?$StrTraitMFC@DV?$ChTraitsCRT@D@ATL@@@@@ATL@@QAEAAV12@XZ 10048d9c f i nafxcw:afxbutton.obj
 0001:00047dc4       ?OnCancelMode@CMFCButton@@IAEXXZ 10048dc4 f   nafxcw:afxbutton.obj
 0001:00047e29       ?OnDestroy@CMFCButton@@IAEXXZ 10048e29 f   nafxcw:afxbutton.obj
 0001:00047e40       ?OnDraw@CMFCButton@@MAEXPAVCDC@@ABVCRect@@I@Z 10048e40 f   nafxcw:afxbutton.obj
 0001:00048374       ?OnDrawBorder@CMFCButton@@MAEXPAVCDC@@AAVCRect@@I@Z 10049374 f   nafxcw:afxbutton.obj
 0001:0004837d       ?OnDrawFocusRect@CMFCButton@@MAEXPAVCDC@@ABVCRect@@@Z 1004937d f   nafxcw:afxbutton.obj
 0001:00048410       ?OnDrawParentBackground@CMFCButton@@UAEXPAVCDC@@VCRect@@@Z 10049410 f   nafxcw:afxbutton.obj
 0001:0004842c       ?OnDrawText@CMFCButton@@MAEXPAVCDC@@ABVCRect@@ABV?$CStringT@DV?$StrTraitMFC@DV?$ChTraitsCRT@D@ATL@@@@@ATL@@II@Z 1004942c f   nafxcw:afxbutton.obj
 0001:0004847d       ?OnEnable@CMFCButton@@IAEXH@Z 1004947d f   nafxcw:afxbutton.obj
 0001:000484ce       ?OnFillBackground@CMFCButton@@MAEXPAVCDC@@ABVCRect@@@Z 100494ce f   nafxcw:afxbutton.obj
 0001:0004858f       ?OnGetCheck@CMFCButton@@IAEJIJ@Z 1004958f f   nafxcw:afxbutton.obj
 0001:000485b3       ?OnGetFont@CMFCButton@@IAEPAUHFONT__@@XZ 100495b3 f   nafxcw:afxbutton.obj
 0001:000485ba       ?OnGetImage@CMFCButton@@IAEJIJ@Z 100495ba f   nafxcw:afxbutton.obj
 0001:000485e7       ?OnInitControl@CMFCButton@@IAEJIJ@Z 100495e7 f   nafxcw:afxbutton.obj
 0001:00048959       ?OnKillFocus@CMFCButton@@IAEXPAVCWnd@@@Z 10049959 f   nafxcw:afxbutton.obj
 0001:000489aa       ?OnLButtonDblClk@CMFCButton@@IAEXIVCPoint@@@Z 100499aa f   nafxcw:afxbutton.obj
 0001:000489ea       ?OnLButtonDown@CMFCButton@@IAEXIVCPoint@@@Z 100499ea f   nafxcw:afxbutton.obj
 0001:00048a9a       ?OnLButtonUp@CMFCButton@@IAEXIVCPoint@@@Z 10049a9a f   nafxcw:afxbutton.obj
 0001:00048bdf       ?OnMouseMove@CMFCButton@@IAEXIVCPoint@@@Z 10049bdf f   nafxcw:afxbutton.obj
 0001:00048d5e       ?OnSetCheck@CMFCButton@@IAEJIJ@Z 10049d5e f   nafxcw:afxbutton.obj
 0001:00048dc9       ?OnSetCursor@CMFCButton@@IAEHPAVCWnd@@II@Z 10049dc9 f   nafxcw:afxbutton.obj
 0001:00048e59       ?OnSize@CPaneDivider@@IAEXIHH@Z 10049e59 f i nafxcw:afxpanedivider.obj
 0001:00048e59       ?OnSetCursor@CWnd@@IAEHPAV1@II@Z 10049e59 f i nafxcw:afxbutton.obj
 0001:00048e59       ?OnNcLButtonDblClk@CPaneFrameWnd@@IAEXIVCPoint@@@Z 10049e59 f i nafxcw:afxpaneframewnd.obj
 0001:00048e59       ?OnNcLButtonDown@CWnd@@IAEXIVCPoint@@@Z 10049e59 f i nafxcw:afxvslistbox.obj
 0001:00048e59       ?OnSize@CDockSite@@IAEXIHH@Z 10049e59 f i nafxcw:afxdocksite.obj
 0001:00048e61       ?OnSetFont@CMFCButton@@IAEXPAVCFont@@H@Z 10049e61 f   nafxcw:afxbutton.obj
 0001:00048e98       ?OnSetImage@CMFCButton@@IAEJIJ@Z 10049e98 f   nafxcw:afxbutton.obj
 0001:00048ecc       ?OnSize@CMFCButton@@IAEXIHH@Z 10049ecc f   nafxcw:afxbutton.obj
 0001:00048ee0       ?OnTimer@CMFCButton@@IAEXI@Z 10049ee0 f   nafxcw:afxbutton.obj
 0001:00048f43       ?OnUpdateToolTips@CMFCButton@@IAEJIJ@Z 10049f43 f   nafxcw:afxbutton.obj
 0001:00048fb8       ?PreCreateWindow@CMFCButton@@MAEHAAUtagCREATESTRUCTA@@@Z 10049fb8 f   nafxcw:afxbutton.obj
 0001:00048fe4       ?PreSubclassWindow@CMFCButton@@MAEXXZ 10049fe4 f   nafxcw:afxbutton.obj
 0001:00049009       ?PreTranslateMessage@CMFCButton@@UAEHPAUtagMSG@@@Z 1004a009 f   nafxcw:afxbutton.obj
 0001:0004915d       ?SelectFont@CMFCButton@@MAEPAVCFont@@PAVCDC@@@Z 1004a15d f   nafxcw:afxbutton.obj
 0001:000491c2       ?SetAutorepeatMode@CMFCButton@@QAEXH@Z 1004a1c2 f   nafxcw:afxbutton.obj
 0001:000491d2       ?SetImage@CMFCButton@@QAEXIII@Z 1004a1d2 f   nafxcw:afxbutton.obj
 0001:000491e9       ?SetImageInternal@CMFCButton@@IAEXIIHI@Z 1004a1e9 f   nafxcw:afxbutton.obj
 0001:00049233       ?SetImageInternal@CMFCButton@@IAEXPAUHBITMAP__@@H0HH0@Z 1004a233 f   nafxcw:afxbutton.obj
 0001:000493b8       ?SetImageInternal@CMFCButton@@IAEXPAUHICON__@@H0H0H@Z 1004a3b8 f   nafxcw:afxbutton.obj
 0001:000495dc       ?SetMouseCursorHand@CMFCButton@@QAEXXZ 1004a5dc f   nafxcw:afxbutton.obj
 0001:000495f3       ?SetStdImage@CMFCButton@@QAEXW4IMAGES_IDS@CMenuImages@@W4IMAGE_STATE@3@0@Z 1004a5f3 f   nafxcw:afxbutton.obj
 0001:0004964b       ?SetTooltip@CMFCButton@@QAEXPBD@Z 1004a64b f   nafxcw:afxbutton.obj
 0001:000496e1       ?SetTransparentColor@CMFCToolBarImages@@QAEKK@Z 1004a6e1 f i nafxcw:afxbutton.obj
 0001:00049713       ?SizeToContent@CMFCButton@@UAE?AVCSize@@H@Z 1004a713 f   nafxcw:afxbutton.obj
 0001:00049971       ?StringUppercase@?$ChTraitsCRT@D@ATL@@SAPADPADI@Z 1004a971 f i nafxcw:afxbutton.obj
 0001:0004998d       ?UncheckRadioButtonsInGroup@CMFCButton@@IAEXXZ 1004a98d f   nafxcw:afxbutton.obj
 0001:00049a7f       ?get_accState@CMFCButton@@UAEJUtagVARIANT@@PAU2@@Z 1004aa7f f   nafxcw:afxbutton.obj
 0001:00049adb       ??0?$CArray@KK@@QAE@XZ     1004aadb f i nafxcw:afxcolorbutton.obj
 0001:00049af2       ??0?$CList@KK@@QAE@H@Z     1004aaf2 f i nafxcw:afxcolorbutton.obj
 0001:00049b18       ??0CMFCColorButton@@QAE@XZ 1004ab18 f   nafxcw:afxcolorbutton.obj
 0001:00049bb4       ??0CMFCColorPopupMenu@@QAE@PAVCMFCColorButton@@ABV?$CArray@KK@@KPBD22AAV?$CList@KK@@HK@Z 1004abb4 f i nafxcw:afxcolorbutton.obj
 0001:00049c11       ??1?$CArray@KK@@UAE@XZ     1004ac11 f i nafxcw:afxcolorbutton.obj
 0001:00049c27       ??1?$CList@KK@@UAE@XZ      1004ac27 f i nafxcw:afxcolorbutton.obj
 0001:00049c61       ??1CMFCColorButton@@UAE@XZ 1004ac61 f   nafxcw:afxcolorbutton.obj
 0001:00049d0c       ??1CPalette@@UAE@XZ        1004ad0c f i nafxcw:afxcolorbutton.obj
 0001:00049d17       ??_E?$CArray@KK@@UAEPAXI@Z 1004ad17 f i nafxcw:afxcolorbutton.obj
 0001:00049d17       ??_G?$CArray@KK@@UAEPAXI@Z 1004ad17 f i nafxcw:afxcolorbutton.obj
 0001:00049d47       ??_G?$CList@KK@@UAEPAXI@Z  1004ad47 f i nafxcw:afxcolorbutton.obj
 0001:00049d47       ??_E?$CList@KK@@UAEPAXI@Z  1004ad47 f i nafxcw:afxcolorbutton.obj
 0001:00049dab       ??_GCMFCColorButton@@UAEPAXI@Z 1004adab f i nafxcw:afxcolorbutton.obj
 0001:00049dab       ??_ECMFCColorButton@@UAEPAXI@Z 1004adab f i nafxcw:afxcolorbutton.obj
 0001:00049dde       ??_ECMFCColorPopupMenu@@UAEPAXI@Z 1004adde f i nafxcw:afxcolorbutton.obj
 0001:00049dde       ??_GCMFCColorPopupMenu@@UAEPAXI@Z 1004adde f i nafxcw:afxcolorbutton.obj
 0001:00049e11       ??_ECPalette@@UAEPAXI@Z    1004ae11 f i nafxcw:afxcolorbutton.obj
 0001:00049e11       ??_GCPalette@@UAEPAXI@Z    1004ae11 f i nafxcw:afxcolorbutton.obj
 0001:00049e47       ?AddTail@?$CList@KK@@QAEXPAV1@@Z 1004ae47 f i nafxcw:afxcolorbutton.obj
 0001:00049e47       ?AddTail@?$CList@PAUHWND__@@PAU1@@@QAEXPAV1@@Z 1004ae47 f i nafxcw:afxrecentdocksiteinfo.obj
 0001:00049e76       ?EnableAutomaticButton@CMFCColorButton@@QAEXPBDKH@Z 1004ae76 f   nafxcw:afxcolorbutton.obj
 0001:00049ec4       ?EnableOtherButton@CMFCColorButton@@QAEXPBDHH@Z 1004aec4 f   nafxcw:afxcolorbutton.obj
 0001:00049f12       ?GetEntryCount@CPalette@@QAEHXZ 1004af12 f i nafxcw:afxcolorbutton.obj
 0001:00049f2b       ?GetMenuBar@CMFCRibbonPanelMenu@@UAEPAVCMFCPopupMenuBar@@XZ 1004af2b f i nafxcw:afxribbonminitoolbar.obj
 0001:00049f2b       ?GetMenuBar@CMFCColorPopupMenu@@UAEPAVCMFCPopupMenuBar@@XZ 1004af2b f i nafxcw:afxcolorbutton.obj
 0001:00049f32       ?GetMessageMap@CMFCColorButton@@MBEPBUAFX_MSGMAP@@XZ 1004af32 f   nafxcw:afxcolorbutton.obj
 0001:00049f38       ?GetRuntimeClass@CMFCColorButton@@UBEPAUCRuntimeClass@@XZ 1004af38 f   nafxcw:afxcolorbutton.obj
 0001:00049f3e       ?GetTrackingID@CFrameWnd@@UAEIXZ 1004af3e f i nafxcw:afxcolorbutton.obj
 0001:00049f3e       ?IsDisabled@CMFCRibbonBaseElement@@UBEHXZ 1004af3e f i nafxcw:afxbaseribbonelement.obj
 0001:00049f45       ?InCommand@CMFCPopupMenu@@UAEHXZ 1004af45 f i nafxcw:afxcolorbutton.obj
 0001:00049f6b       ?IsDrawXPTheme@CMFCColorButton@@IBEHXZ 1004af6b f   nafxcw:afxcolorbutton.obj
 0001:00049f9b       ?IsIdle@CMFCPopupMenu@@UBEHXZ 1004af9b f i nafxcw:afxcolorbutton.obj
 0001:00049faf       ?OnDraw@CMFCColorButton@@MAEXPAVCDC@@ABVCRect@@I@Z 1004afaf f   nafxcw:afxcolorbutton.obj
 0001:0004a2c1       ?OnDrawBorder@CMFCColorButton@@MAEXPAVCDC@@AAVCRect@@I@Z 1004b2c1 f   nafxcw:afxcolorbutton.obj
 0001:0004a379       ?OnDrawFocusRect@CMFCColorButton@@MAEXPAVCDC@@ABVCRect@@@Z 1004b379 f   nafxcw:afxcolorbutton.obj
 0001:0004a3cc       ?OnFillBackground@CMFCColorButton@@MAEXPAVCDC@@ABVCRect@@@Z 1004b3cc f   nafxcw:afxcolorbutton.obj
 0001:0004a40e       ?OnInitControl@CMFCColorButton@@IAEJIJ@Z 1004b40e f   nafxcw:afxcolorbutton.obj
 0001:0004a51f       ?OnKeyDown@CMFCColorButton@@IAEXIII@Z 1004b51f f   nafxcw:afxcolorbutton.obj
 0001:0004a553       ?OnLButtonDown@CMFCColorButton@@IAEXIVCPoint@@@Z 1004b553 f   nafxcw:afxcolorbutton.obj
 0001:0004a575       ?OnMouseMove@CMFCColorButton@@IAEXIVCPoint@@@Z 1004b575 f   nafxcw:afxcolorbutton.obj
 0001:0004a5b1       ?OnShowColorPopup@CMFCColorButton@@MAEXXZ 1004b5b1 f   nafxcw:afxcolorbutton.obj
 0001:0004a766       ?OnSysColorChange@CMFCColorButton@@IAEXXZ 1004b766 f   nafxcw:afxcolorbutton.obj
 0001:0004a78f       ?RebuildPalette@CMFCColorButton@@IAEXPAVCPalette@@@Z 1004b78f f   nafxcw:afxcolorbutton.obj
 0001:0004a87f       ?Serialize@?$CArray@PAVCMFCRibbonBaseElement@@PAV1@@@UAEXAAVCArchive@@@Z 1004b87f f i nafxcw:afxribbonbutton.obj
 0001:0004a87f       ?Serialize@?$CArray@JJ@@UAEXAAVCArchive@@@Z 1004b87f f i nafxcw:afxribboncolorbutton.obj
 0001:0004a87f       ?Serialize@?$CArray@KK@@UAEXAAVCArchive@@@Z 1004b87f f i nafxcw:afxcolorbutton.obj
 0001:0004a87f       ?Serialize@?$CArray@PAVCMFCVisualManagerBitmapCacheItem@CMFCVisualManagerBitmapCache@@PAV12@@@UAEXAAVCArchive@@@Z 1004b87f f i nafxcw:afxvisualmanageroffice2007.obj
 0001:0004a87f       ?Serialize@?$CArray@HH@@UAEXAAVCArchive@@@Z 1004b87f f i nafxcw:afxbasetabctrl.obj
 0001:0004a87f       ?Serialize@?$CArray@II@@UAEXAAVCArchive@@@Z 1004b87f f i nafxcw:afxribbonquickaccesstoolbar.obj
 0001:0004a87f       ?Serialize@?$CArray@PAVCMFCRibbonPanel@@PAV1@@@UAEXAAVCArchive@@@Z 1004b87f f i nafxcw:afxribboncategory.obj
 0001:0004a87f       ?Serialize@?$CArray@PAVCMFCRibbonContextCaption@@PAV1@@@UAEXAAVCArchive@@@Z 1004b87f f i nafxcw:afxribbonquickaccesstoolbar.obj
 0001:0004a87f       ?Serialize@?$CArray@PAVCMFCRibbonKeyTip@@PAV1@@@UAEXAAVCArchive@@@Z 1004b87f f i nafxcw:afxribbonbar.obj
 0001:0004a87f       ?Serialize@?$CArray@HABH@@UAEXAAVCArchive@@@Z 1004b87f f i nafxcw:winctrl3.obj
 0001:0004a87f       ?Serialize@?$CArray@PAUHWND__@@PAU1@@@UAEXAAVCArchive@@@Z 1004b87f f i nafxcw:winfrm.obj
 0001:0004a8bf       ?SetColor@CMFCColorButton@@QAEXK@Z 1004b8bf f   nafxcw:afxcolorbutton.obj
 0001:0004a8ef       ?SetSize@?$CArray@KK@@QAEXHH@Z 1004b8ef f i nafxcw:afxcolorbutton.obj
 0001:0004a8ef       ?SetSize@?$CArray@HH@@QAEXHH@Z 1004b8ef f i nafxcw:afxbasetabctrl.obj
 0001:0004a8ef       ?SetSize@?$CArray@PAVCMFCRibbonPanel@@PAV1@@@QAEXHH@Z 1004b8ef f i nafxcw:afxribboncategory.obj
 0001:0004a8ef       ?SetSize@?$CArray@PAVCMFCRibbonBaseElement@@PAV1@@@QAEXHH@Z 1004b8ef f i nafxcw:afxbaseribbonelement.obj
 0001:0004a8ef       ?SetSize@?$CArray@II@@QAEXHH@Z 1004b8ef f i nafxcw:afxribbonquickaccesstoolbar.obj
 0001:0004a8ef       ?SetSize@?$CArray@PAVCMFCVisualManagerBitmapCacheItem@CMFCVisualManagerBitmapCache@@PAV12@@@QAEXHH@Z 1004b8ef f i nafxcw:afxvisualmanageroffice2007.obj
 0001:0004a8ef       ?SetSize@?$CArray@PAVCMFCRibbonContextCaption@@PAV1@@@QAEXHH@Z 1004b8ef f i nafxcw:afxribbonquickaccesstoolbar.obj
 0001:0004a8ef       ?SetSize@?$CArray@HABH@@QAEXHH@Z 1004b8ef f i nafxcw:winctrl3.obj
 0001:0004a8ef       ?SetSize@?$CArray@JJ@@QAEXHH@Z 1004b8ef f i nafxcw:afxribboncolorbutton.obj
 0001:0004a8ef       ?SetSize@?$CArray@PAUHWND__@@PAU1@@@QAEXHH@Z 1004b8ef f i nafxcw:winfrm.obj
 0001:0004a8ef       ?SetSize@?$CArray@PAVCMFCRibbonKeyTip@@PAV1@@@QAEXHH@Z 1004b8ef f i nafxcw:afxbaseribbonelement.obj
 0001:0004aa21       ?SizeToContent@CMFCColorButton@@UAE?AVCSize@@H@Z 1004ba21 f   nafxcw:afxcolorbutton.obj
 0001:0004aa21       ?SizeToContent@CMFCMenuButton@@UAE?AVCSize@@H@Z 1004ba21 f   nafxcw:afxmenubutton.obj
 0001:0004aa65       ?UpdateColor@CMFCColorButton@@MAEXK@Z 1004ba65 f   nafxcw:afxcolorbutton.obj
 0001:0004aaae       ??0CMFCEditBrowseCtrl@@QAE@XZ 1004baae f   nafxcw:afxeditbrowsectrl.obj
 0001:0004ab89       ??1CMFCEditBrowseCtrl@@UAE@XZ 1004bb89 f   nafxcw:afxeditbrowsectrl.obj
 0001:0004abcf       ??_ECEdit@@UAEPAXI@Z       1004bbcf f i nafxcw:afxeditbrowsectrl.obj
 0001:0004abcf       ??_GCEdit@@UAEPAXI@Z       1004bbcf f i nafxcw:afxeditbrowsectrl.obj
 0001:0004ac02       ??_ECMFCEditBrowseCtrl@@UAEPAXI@Z 1004bc02 f i nafxcw:afxeditbrowsectrl.obj
 0001:0004ac02       ??_GCMFCEditBrowseCtrl@@UAEPAXI@Z 1004bc02 f i nafxcw:afxeditbrowsectrl.obj
 0001:0004ac35       ?EnableBrowseButton@CMFCEditBrowseCtrl@@QAEXH@Z 1004bc35 f   nafxcw:afxeditbrowsectrl.obj
 0001:0004ac8d       ?EnableFileBrowseButton@CMFCEditBrowseCtrl@@QAEXPBD0K@Z 1004bc8d f   nafxcw:afxeditbrowsectrl.obj
 0001:0004ad1b       ?EnableFolderBrowseButton@CMFCEditBrowseCtrl@@QAEXPBDI@Z 1004bd1b f   nafxcw:afxeditbrowsectrl.obj
 0001:0004ad93       ?GetThisMessageMap@CMFCEditBrowseCtrl@@KGPBUAFX_MSGMAP@@XZ 1004bd93 f   nafxcw:afxeditbrowsectrl.obj
 0001:0004ad93       ?GetMessageMap@CMFCEditBrowseCtrl@@MBEPBUAFX_MSGMAP@@XZ 1004bd93 f   nafxcw:afxeditbrowsectrl.obj
 0001:0004ad99       ?GetRuntimeClass@CMFCEditBrowseCtrl@@UBEPAUCRuntimeClass@@XZ 1004bd99 f   nafxcw:afxeditbrowsectrl.obj
 0001:0004ad9f       ?Is32BitIcons@AFX_GLOBAL_DATA@@QBEHXZ 1004bd9f f i nafxcw:afxeditbrowsectrl.obj
 0001:0004adc4       ?OnAfterUpdate@CMFCEditBrowseCtrl@@UAEXXZ 1004bdc4 f   nafxcw:afxeditbrowsectrl.obj
 0001:0004ae35       ?OnBrowse@CMFCEditBrowseCtrl@@UAEXXZ 1004be35 f   nafxcw:afxeditbrowsectrl.obj
 0001:0004b1f1       ?OnCancelMode@CMFCEditBrowseCtrl@@IAEXXZ 1004c1f1 f   nafxcw:afxeditbrowsectrl.obj
 0001:0004b230       ?OnChangeLayout@CMFCEditBrowseCtrl@@UAEXXZ 1004c230 f   nafxcw:afxeditbrowsectrl.obj
 0001:0004b2a7       ?OnDrawBrowseButton@CMFCEditBrowseCtrl@@UAEXPAVCDC@@VCRect@@HH@Z 1004c2a7 f   nafxcw:afxeditbrowsectrl.obj
 0001:0004b4ce       ?OnIllegalFileName@CMFCEditBrowseCtrl@@UAEHAAV?$CStringT@DV?$StrTraitMFC@DV?$ChTraitsCRT@D@ATL@@@@@ATL@@@Z 1004c4ce f   nafxcw:afxeditbrowsectrl.obj
 0001:0004b55c       ?OnInitControl@CMFCEditBrowseCtrl@@IAEJIJ@Z 1004c55c f   nafxcw:afxeditbrowsectrl.obj
 0001:0004b632       ?OnLButtonDown@CMFCEditBrowseCtrl@@IAEXIVCPoint@@@Z 1004c632 f   nafxcw:afxeditbrowsectrl.obj
 0001:0004b69d       ?OnLButtonUp@CMFCEditBrowseCtrl@@IAEXIVCPoint@@@Z 1004c69d f   nafxcw:afxeditbrowsectrl.obj
 0001:0004b70e       ?OnMouseMove@CMFCEditBrowseCtrl@@IAEXIVCPoint@@@Z 1004c70e f   nafxcw:afxeditbrowsectrl.obj
 0001:0004b79a       ?OnNcCalcSize@CMFCEditBrowseCtrl@@IAEXHPAUtagNCCALCSIZE_PARAMS@@@Z 1004c79a f   nafxcw:afxeditbrowsectrl.obj
 0001:0004b7bf       ?OnNcHitTest@CMFCEditBrowseCtrl@@IAEJVCPoint@@@Z 1004c7bf f   nafxcw:afxeditbrowsectrl.obj
 0001:0004b811       ?OnNcMouseMove@CMFCEditBrowseCtrl@@IAEXIVCPoint@@@Z 1004c811 f   nafxcw:afxeditbrowsectrl.obj
 0001:0004b889       ?OnNcPaint@CMFCEditBrowseCtrl@@IAEXXZ 1004c889 f   nafxcw:afxeditbrowsectrl.obj
 0001:0004b9f5       ?OnRButtonDown@CMFCEditBrowseCtrl@@IAEXIVCPoint@@@Z 1004c9f5 f   nafxcw:afxeditbrowsectrl.obj
 0001:0004b9f5       ?OnRButtonUp@CMFCEditBrowseCtrl@@IAEXIVCPoint@@@Z 1004c9f5 f   nafxcw:afxeditbrowsectrl.obj
 0001:0004ba27       ?PreTranslateMessage@CMFCEditBrowseCtrl@@UAEHPAUtagMSG@@@Z 1004ca27 f   nafxcw:afxeditbrowsectrl.obj
 0001:0004ba74       ?SetInternalImage@CMFCEditBrowseCtrl@@IAEXXZ 1004ca74 f   nafxcw:afxeditbrowsectrl.obj
 0001:0004bb60       ?TrimLeft@?$CStringT@DV?$StrTraitMFC@DV?$ChTraitsCRT@D@ATL@@@@@ATL@@QAEAAV12@XZ 1004cb60 f i nafxcw:afxeditbrowsectrl.obj
 0001:0004bbc7       ?TrimRight@?$CStringT@DV?$StrTraitMFC@DV?$ChTraitsCRT@D@ATL@@@@@ATL@@QAEAAV12@XZ 1004cbc7 f i nafxcw:afxeditbrowsectrl.obj
 0001:0004bc19       _IsolationAwareImageList_Draw@24 1004cc19 f i nafxcw:afxeditbrowsectrl.obj
 0001:0004bcf0       _IsolationAwareImageList_ReplaceIcon@12 1004ccf0 f i nafxcw:afxeditbrowsectrl.obj
 0001:0004bdc8       ??0CMFCFontComboBox@@QAE@XZ 1004cdc8 f   nafxcw:afxfontcombobox.obj
 0001:0004be02       ??0CMFCFontInfo@@QAE@ABV0@@Z 1004ce02 f i nafxcw:afxfontcombobox.obj
 0001:0004be6c       ??1CMFCFontComboBox@@UAE@XZ 1004ce6c f   nafxcw:afxfontcombobox.obj
 0001:0004be88       ??1CMFCFontInfo@@UAE@XZ    1004ce88 f i nafxcw:afxfontcombobox.obj
 0001:0004bea2       ??_ECComboBox@@UAEPAXI@Z   1004cea2 f i nafxcw:afxfontcombobox.obj
 0001:0004bea2       ??_GCComboBox@@UAEPAXI@Z   1004cea2 f i nafxcw:afxfontcombobox.obj
 0001:0004bed5       ??_GCMFCFontComboBox@@UAEPAXI@Z 1004ced5 f i nafxcw:afxfontcombobox.obj
 0001:0004bed5       ??_ECMFCFontComboBox@@UAEPAXI@Z 1004ced5 f i nafxcw:afxfontcombobox.obj
 0001:0004bf08       ??_ECMFCFontInfo@@UAEPAXI@Z 1004cf08 f i nafxcw:afxfontcombobox.obj
 0001:0004bf08       ??_GCMFCFontInfo@@UAEPAXI@Z 1004cf08 f i nafxcw:afxfontcombobox.obj
 0001:0004bf38       ?CleanUp@CMFCFontComboBox@@IAEXXZ 1004cf38 f   nafxcw:afxfontcombobox.obj
 0001:0004bfcb       ?CompareItem@CMFCFontComboBox@@UAEHPAUtagCOMPAREITEMSTRUCT@@@Z 1004cfcb f   nafxcw:afxfontcombobox.obj
 0001:0004c04f       ?CreateSolidBrush@CBrush@@QAEHK@Z 1004d04f f i nafxcw:afxfontcombobox.obj
 0001:0004c06b       ?DrawItem@CMFCFontComboBox@@UAEXPAUtagDRAWITEMSTRUCT@@@Z 1004d06b f   nafxcw:afxfontcombobox.obj
 0001:0004c2db       ?GetMessageMap@CMFCFontComboBox@@MBEPBUAFX_MSGMAP@@XZ 1004d2db f   nafxcw:afxfontcombobox.obj
 0001:0004c2e1       ?Init@CMFCFontComboBox@@IAEXXZ 1004d2e1 f   nafxcw:afxfontcombobox.obj
 0001:0004c317       ?MeasureItem@CMFCFontComboBox@@UAEXPAUtagMEASUREITEMSTRUCT@@@Z 1004d317 f   nafxcw:afxfontcombobox.obj
 0001:0004c388       ?OnCreate@CMFCFontComboBox@@IAEHPAUtagCREATESTRUCTA@@@Z 1004d388 f   nafxcw:afxfontcombobox.obj
 0001:0004c3a6       ?OnDestroy@CMFCFontComboBox@@IAEXXZ 1004d3a6 f   nafxcw:afxfontcombobox.obj
 0001:0004c3b6       ?OnInitControl@CMFCFontComboBox@@IAEJIJ@Z 1004d3b6 f   nafxcw:afxfontcombobox.obj
 0001:0004c499       ?PreSubclassWindow@CMFCFontComboBox@@MAEXXZ 1004d499 f   nafxcw:afxfontcombobox.obj
 0001:0004c4b6       ?PreTranslateMessage@CMFCFontComboBox@@UAEHPAUtagMSG@@@Z 1004d4b6 f   nafxcw:afxfontcombobox.obj
 0001:0004c5ba       ?Setup@CMFCFontComboBox@@QAEHHEE@Z 1004d5ba f   nafxcw:afxfontcombobox.obj
 0001:0004c70f       ??0CMFCLinkCtrl@@QAE@XZ    1004d70f f   nafxcw:afxlinkctrl.obj
 0001:0004c7a0       ??1CMFCLinkCtrl@@UAE@XZ    1004d7a0 f   nafxcw:afxlinkctrl.obj
 0001:0004c7cd       ??_GCMFCLinkCtrl@@UAEPAXI@Z 1004d7cd f i nafxcw:afxlinkctrl.obj
 0001:0004c7cd       ??_ECMFCLinkCtrl@@UAEPAXI@Z 1004d7cd f i nafxcw:afxlinkctrl.obj
 0001:0004c800       ?GetMessageMap@CMFCLinkCtrl@@MBEPBUAFX_MSGMAP@@XZ 1004d800 f   nafxcw:afxlinkctrl.obj
 0001:0004c806       ?GetRuntimeClass@CMFCLinkCtrl@@UBEPAUCRuntimeClass@@XZ 1004d806 f   nafxcw:afxlinkctrl.obj
 0001:0004c80c       ?OnClicked@CMFCLinkCtrl@@IAEHXZ 1004d80c f   nafxcw:afxlinkctrl.obj
 0001:0004c8fb       ?OnDraw@CMFCLinkCtrl@@MAEXPAVCDC@@ABVCRect@@I@Z 1004d8fb f   nafxcw:afxlinkctrl.obj
 0001:0004ca21       ?OnDrawFocusRect@CMFCLinkCtrl@@MAEXPAVCDC@@ABVCRect@@@Z 1004da21 f   nafxcw:afxlinkctrl.obj
 0001:0004ca5d       ?OnInitControl@CMFCLinkCtrl@@IAEJIJ@Z 1004da5d f   nafxcw:afxlinkctrl.obj
 0001:0004cbd2       ?PreTranslateMessage@CMFCLinkCtrl@@MAEHPAUtagMSG@@@Z 1004dbd2 f   nafxcw:afxlinkctrl.obj
 0001:0004cc13       ?SetURL@CMFCLinkCtrl@@QAEXPBD@Z 1004dc13 f   nafxcw:afxlinkctrl.obj
 0001:0004cc45       ?SetURLPrefix@CMFCLinkCtrl@@QAEXPBD@Z 1004dc45 f   nafxcw:afxlinkctrl.obj
 0001:0004cc74       ?SizeToContent@CMFCLinkCtrl@@UAE?AVCSize@@HH@Z 1004dc74 f   nafxcw:afxlinkctrl.obj
 0001:0004ce32       ??0?$CStringT@DV?$StrTraitMFC@DV?$ChTraitsCRT@D@ATL@@@@@ATL@@QAE@DH@Z 1004de32 f i nafxcw:afxmaskededit.obj
 0001:0004ce84       ??0CMFCMaskedEdit@@QAE@XZ  1004de84 f   nafxcw:afxmaskededit.obj
 0001:0004cf0b       ??1CMFCMaskedEdit@@UAE@XZ  1004df0b f   nafxcw:afxmaskededit.obj
 0001:0004cf54       ??_GCMFCMaskedEdit@@UAEPAXI@Z 1004df54 f i nafxcw:afxmaskededit.obj
 0001:0004cf54       ??_ECMFCMaskedEdit@@UAEPAXI@Z 1004df54 f i nafxcw:afxmaskededit.obj
 0001:0004cf87       ?CheckChar@CMFCMaskedEdit@@AAEHDH@Z 1004df87 f   nafxcw:afxmaskededit.obj
 0001:0004d02f       ?DisableMask@CMFCMaskedEdit@@QAEXXZ 1004e02f f   nafxcw:afxmaskededit.obj
 0001:0004d049       ?DoUpdate@CMFCMaskedEdit@@AAEHHHH@Z 1004e049 f   nafxcw:afxmaskededit.obj
 0001:0004d105       ?EnableMask@CMFCMaskedEdit@@QAEXPBD0D0@Z 1004e105 f   nafxcw:afxmaskededit.obj
 0001:0004d19a       ?GetGroupBounds@CMFCMaskedEdit@@AAEXAAH0HH@Z 1004e19a f   nafxcw:afxmaskededit.obj
 0001:0004d2cc       ?GetMaskedValue@CMFCMaskedEdit@@IBE?BV?$CStringT@DV?$StrTraitMFC@DV?$ChTraitsCRT@D@ATL@@@@@ATL@@H@Z 1004e2cc f   nafxcw:afxmaskededit.obj
 0001:0004d382       ?GetMessageMap@CMFCMaskedEdit@@MBEPBUAFX_MSGMAP@@XZ 1004e382 f   nafxcw:afxmaskededit.obj
 0001:0004d388       ?GetRuntimeClass@CMFCMaskedEdit@@UBEPAUCRuntimeClass@@XZ 1004e388 f   nafxcw:afxmaskededit.obj
 0001:0004d38e       ?GetValue@CMFCMaskedEdit@@IBE?BV?$CStringT@DV?$StrTraitMFC@DV?$ChTraitsCRT@D@ATL@@@@@ATL@@XZ 1004e38e f i nafxcw:afxmaskededit.obj
 0001:0004d3ad       ?IsMaskedChar@CMFCMaskedEdit@@MBEHDD@Z 1004e3ad f   nafxcw:afxmaskededit.obj
 0001:0004d464       ?OnChar@CMFCMaskedEdit@@IAEXIII@Z 1004e464 f   nafxcw:afxmaskededit.obj
 0001:0004d4e2       ?OnCharBackspace@CMFCMaskedEdit@@AAEXIII@Z 1004e4e2 f   nafxcw:afxmaskededit.obj
 0001:0004d917       ?OnCharDelete@CMFCMaskedEdit@@AAEXIII@Z 1004e917 f   nafxcw:afxmaskededit.obj
 0001:0004dd20       ?OnCharPrintchar@CMFCMaskedEdit@@AAEXIII@Z 1004ed20 f   nafxcw:afxmaskededit.obj
 0001:0004e11c       ?OnClear@CMFCMaskedEdit@@IAEXXZ 1004f11c f   nafxcw:afxmaskededit.obj
 0001:0004e11c       ?OnCut@CMFCMaskedEdit@@IAEXXZ 1004f11c f   nafxcw:afxmaskededit.obj
 0001:0004e1d2       ?OnCreate@CMFCMaskedEdit@@IAEHPAUtagCREATESTRUCTA@@@Z 1004f1d2 f   nafxcw:afxmaskededit.obj
 0001:0004e1f6       ?OnGetText@CMFCMaskedEdit@@IAEHHPAD@Z 1004f1f6 f   nafxcw:afxmaskededit.obj
 0001:0004e2ae       ?OnGetTextLength@CMFCMaskedEdit@@IAEIXZ 1004f2ae f   nafxcw:afxmaskededit.obj
 0001:0004e32e       ?OnInitControl@CMFCMaskedEdit@@IAEJIJ@Z 1004f32e f   nafxcw:afxmaskededit.obj
 0001:0004e4f9       ?OnKeyDown@CMFCMaskedEdit@@IAEXIII@Z 1004f4f9 f   nafxcw:afxmaskededit.obj
 0001:0004e92d       ?OnLButtonUp@CMFCMaskedEdit@@IAEXIVCPoint@@@Z 1004f92d f   nafxcw:afxmaskededit.obj
 0001:0004e9f5       ?OnPaste@CMFCMaskedEdit@@IAEXXZ 1004f9f5 f   nafxcw:afxmaskededit.obj
 0001:0004ec3a       ?OnSetFocusR@CMFCMaskedEdit@@IAEXXZ 1004fc3a f   nafxcw:afxmaskededit.obj
 0001:0004ec75       ?OnSetText@CMFCMaskedEdit@@IAEHPBD@Z 1004fc75 f   nafxcw:afxmaskededit.obj
 0001:0004ed19       ?SetSel@CEdit@@QAEXHHH@Z   1004fd19 f i nafxcw:afxmaskededit.obj
 0001:0004ed50       ?SetValidChars@CMFCMaskedEdit@@QAEXPBD@Z 1004fd50 f   nafxcw:afxmaskededit.obj
 0001:0004ed82       ?SetValue@CMFCMaskedEdit@@IAEHPBDH@Z 1004fd82 f   nafxcw:afxmaskededit.obj
 0001:0004f028       ??0CMFCMenuButton@@QAE@XZ  10050028 f   nafxcw:afxmenubutton.obj
 0001:0004f078       ??1CMFCMenuButton@@UAE@XZ  10050078 f   nafxcw:afxmenubutton.obj
 0001:0004f083       ??_GCMFCMenuButton@@UAEPAXI@Z 10050083 f i nafxcw:afxmenubutton.obj
 0001:0004f083       ??_ECMFCMenuButton@@UAEPAXI@Z 10050083 f i nafxcw:afxmenubutton.obj
 0001:0004f0bc       ?GetMessageMap@CMFCMenuButton@@MBEPBUAFX_MSGMAP@@XZ 100500bc f   nafxcw:afxmenubutton.obj
 0001:0004f0c2       ?GetRuntimeClass@CMFCMenuButton@@UBEPAUCRuntimeClass@@XZ 100500c2 f   nafxcw:afxmenubutton.obj
 0001:0004f0c8       ?OnDraw@CMFCMenuButton@@MAEXPAVCDC@@ABVCRect@@I@Z 100500c8 f   nafxcw:afxmenubutton.obj
 0001:0004f1d1       ?OnInitControl@CMFCMenuButton@@IAEJIJ@Z 100501d1 f   nafxcw:afxmenubutton.obj
 0001:0004f2ed       ?OnKeyDown@CMFCMenuButton@@IAEXIII@Z 100502ed f   nafxcw:afxmenubutton.obj
 0001:0004f32b       ?OnKillFocus@CMFCMenuButton@@IAEXPAVCWnd@@@Z 1005032b f   nafxcw:afxmenubutton.obj
 0001:0004f381       ?OnLButtonDblClk@CMFCMenuButton@@IAEXIVCPoint@@@Z 10050381 f   nafxcw:afxmenubutton.obj
 0001:0004f3c0       ?OnLButtonDown@CMFCMenuButton@@IAEXIVCPoint@@@Z 100503c0 f   nafxcw:afxmenubutton.obj
 0001:0004f490       ?OnLButtonUp@CMFCMenuButton@@IAEXIVCPoint@@@Z 10050490 f   nafxcw:afxmenubutton.obj
 0001:0004f4ee       ?OnShowMenu@CMFCMenuButton@@MAEXXZ 100504ee f   nafxcw:afxmenubutton.obj
 0001:0004f660       ?PreTranslateMessage@CMFCMenuButton@@UAEHPAUtagMSG@@@Z 10050660 f   nafxcw:afxmenubutton.obj
 0001:0004f6b1       ??0?$CList@PAVCMFCPropertyGridProperty@@PAV1@@@QAE@H@Z 100506b1 f i nafxcw:afxpropertygridctrl.obj
 0001:0004f6d7       ??0CMFCPropertyGridCtrl@@QAE@XZ 100506d7 f   nafxcw:afxpropertygridctrl.obj
 0001:0004f91a       ??1?$CList@PAVCMFCPropertyGridProperty@@PAV1@@@UAE@XZ 1005091a f i nafxcw:afxpropertygridctrl.obj
 0001:0004f954       ??1CMFCPropertyGridCtrl@@UAE@XZ 10050954 f   nafxcw:afxpropertygridctrl.obj
 0001:0004fa2a       ??_G?$CList@PAVCMFCPropertyGridProperty@@PAV1@@@UAEPAXI@Z 10050a2a f i nafxcw:afxpropertygridctrl.obj
 0001:0004fa2a       ??_E?$CList@PAVCMFCPropertyGridProperty@@PAV1@@@UAEPAXI@Z 10050a2a f i nafxcw:afxpropertygridctrl.obj
 0001:0004fa8e       ??_ECMFCPropertyGridCtrl@@UAEPAXI@Z 10050a8e f i nafxcw:afxpropertygridctrl.obj
 0001:0004fa8e       ??_GCMFCPropertyGridCtrl@@UAEPAXI@Z 10050a8e f i nafxcw:afxpropertygridctrl.obj
 0001:0004fac1       ??_GCScrollBar@@UAEPAXI@Z  10050ac1 f i nafxcw:afxpropertygridctrl.obj
 0001:0004fac1       ??_ECScrollBar@@UAEPAXI@Z  10050ac1 f i nafxcw:afxpropertygridctrl.obj
 0001:0004faf4       ?AddHead@?$CList@PAU_ITEMIDLIST@@PAU1@@@QAEPAU__POSITION@@PAU_ITEMIDLIST@@@Z 10050af4 f i nafxcw:afxshelltreectrl.obj
 0001:0004faf4       ?AddHead@?$CList@PAVCMFCPropertyGridProperty@@PAV1@@@QAEPAU__POSITION@@PAVCMFCPropertyGridProperty@@@Z 10050af4 f i nafxcw:afxpropertygridctrl.obj
 0001:0004faf4       ?AddHead@?$CList@KK@@QAEPAU__POSITION@@K@Z 10050af4 f i nafxcw:afxtoolbarcomboboxbutton.obj
 0001:0004fb21       ?AddTerminalProp@CMFCPropertyGridProperty@@IAEXAAV?$CList@PAVCMFCPropertyGridProperty@@PAV1@@@@Z 10050b21 f   nafxcw:afxpropertygridctrl.obj
 0001:0004fbb1       ?AdjustLayout@CMFCPropertyGridCtrl@@UAEXXZ 10050bb1 f   nafxcw:afxpropertygridctrl.obj
 0001:0004fe5e       ?CalcEditMargin@CMFCPropertyGridCtrl@@IAEXXZ 10050e5e f   nafxcw:afxpropertygridctrl.obj
 0001:0004ff3e       ?CloseColorPopup@CMFCPropertyGridCtrl@@UAEXXZ 10050f3e f   nafxcw:afxpropertygridctrl.obj
 0001:0004ff7b       ?CompareProps@CMFCPropertyGridCtrl@@MBEHPBVCMFCPropertyGridProperty@@0@Z 10050f7b f   nafxcw:afxpropertygridctrl.obj
 0001:0004ffab       ?Create@CMFCPropertyGridCtrl@@UAEHKABUtagRECT@@PAVCWnd@@I@Z 10050fab f   nafxcw:afxpropertygridctrl.obj
 0001:00050005       ?CreateBoldFont@CMFCPropertyGridCtrl@@IAEXXZ 10051005 f   nafxcw:afxpropertygridctrl.obj
 0001:00050090       ?EditItem@CMFCPropertyGridCtrl@@UAEHPAVCMFCPropertyGridProperty@@PAUtagPOINT@@@Z 10051090 f   nafxcw:afxpropertygridctrl.obj
 0001:00050107       ?EnableDescriptionArea@CMFCPropertyGridCtrl@@QAEXH@Z 10051107 f   nafxcw:afxpropertygridctrl.obj
 0001:00050149       ?EnableHeaderCtrl@CMFCPropertyGridCtrl@@QAEXHPBD0@Z 10051149 f   nafxcw:afxpropertygridctrl.obj
 0001:0005023a       ?EndEditItem@CMFCPropertyGridCtrl@@UAEHH@Z 1005123a f   nafxcw:afxpropertygridctrl.obj
 0001:000502df       ?EnsureVisible@CMFCPropertyGridCtrl@@QAEXPAVCMFCPropertyGridProperty@@H@Z 100512df f   nafxcw:afxpropertygridctrl.obj
 0001:00050416       ?Expand@CMFCPropertyGridProperty@@QAEXH@Z 10051416 f   nafxcw:afxpropertygridctrl.obj
 0001:000504a1       ?GetExpandedSubItems@CMFCPropertyGridProperty@@QBEHH@Z 100514a1 f   nafxcw:afxpropertygridctrl.obj
 0001:000504e2       ?GetFont@CWnd@@QBEPAVCFont@@XZ 100514e2 f i nafxcw:afxpropertygridctrl.obj
 0001:000504f8       ?GetHeaderCtrl@CMFCPropertyGridCtrl@@UAEAAVCMFCHeaderCtrl@@XZ 100514f8 f i nafxcw:afxpropertygridctrl.obj
 0001:000504ff       ?GetHierarchyLevel@CMFCPropertyGridProperty@@QBEHXZ 100514ff f   nafxcw:afxpropertygridctrl.obj
 0001:0005050f       ?GetMessageMap@CMFCPropertyGridCtrl@@MBEPBUAFX_MSGMAP@@XZ 1005150f f   nafxcw:afxpropertygridctrl.obj
 0001:00050515       ?GetRuntimeClass@CMFCPropertyGridCtrl@@UBEPAUCRuntimeClass@@XZ 10051515 f   nafxcw:afxpropertygridctrl.obj
 0001:0005051b       ?GetScrollBarCtrl@CMFCPropertyGridCtrl@@UBEPAVCScrollBar@@H@Z 1005151b f   nafxcw:afxpropertygridctrl.obj
 0001:0005053a       ?GetTextColor@CMFCPropertyGridCtrl@@QBEKXZ 1005153a f i nafxcw:afxpropertygridctrl.obj
 0001:0005054e       ?GetTotalItems@CMFCPropertyGridCtrl@@IBEHH@Z 1005154e f   nafxcw:afxpropertygridctrl.obj
 0001:000505b7       ?HitTest@CMFCPropertyGridCtrl@@QBEPAVCMFCPropertyGridProperty@@VCPoint@@PAW4ClickArea@2@H@Z 100515b7 f   nafxcw:afxpropertygridctrl.obj
 0001:0005067f       ?HitTest@CMFCPropertyGridProperty@@QAEPAV1@VCPoint@@PAW4ClickArea@1@@Z 1005167f f   nafxcw:afxpropertygridctrl.obj
 0001:00050727       ?Init@CMFCPropertyGridCtrl@@MAEXXZ 10051727 f   nafxcw:afxpropertygridctrl.obj
 0001:0005095c       ?InitHeader@CMFCPropertyGridCtrl@@UAEXXZ 1005195c f   nafxcw:afxpropertygridctrl.obj
 0001:000509be       ?InsertBefore@?$CList@PAVCMFCPropertyGridProperty@@PAV1@@@QAEPAU__POSITION@@PAU2@PAVCMFCPropertyGridProperty@@@Z 100519be f i nafxcw:afxpropertygridctrl.obj
 0001:000509be       ?InsertBefore@?$CList@KK@@QAEPAU__POSITION@@PAU2@K@Z 100519be f i nafxcw:afxtoolbarcomboboxbutton.obj
 0001:000509fc       ?IsParentExpanded@CMFCPropertyGridProperty@@QBEHXZ 100519fc f   nafxcw:afxpropertygridctrl.obj
 0001:00050a19       ?MarkModifiedProperties@CMFCPropertyGridCtrl@@QAEXHH@Z 10051a19 f   nafxcw:afxpropertygridctrl.obj
 0001:00050a47       ?NotifyAccessibility@CMFCPropertyGridCtrl@@MAEXPAVCMFCPropertyGridProperty@@@Z 10051a47 f   nafxcw:afxpropertygridctrl.obj
 0001:00050aa6       ?OnCancelMode@CMFCPropertyGridCtrl@@IAEXXZ 10051aa6 f   nafxcw:afxpropertygridctrl.obj
 0001:00050b40       ?OnChar@CMFCPropertyGridCtrl@@IAEXIII@Z 10051b40 f   nafxcw:afxpropertygridctrl.obj
 0001:00050b97       ?OnClickButton@CMFCPropertyGridCtrl@@UAEXVCPoint@@@Z 10051b97 f   nafxcw:afxpropertygridctrl.obj
 0001:00050c84       ?OnCloseCombo@CMFCPropertyGridCtrl@@IAEXXZ 10051c84 f   nafxcw:afxpropertygridctrl.obj
 0001:00050ca4       ?OnComboKillFocus@CMFCPropertyGridCtrl@@IAEXXZ 10051ca4 f   nafxcw:afxpropertygridctrl.obj
 0001:00050d26       ?OnCreate@CMFCPropertyGridCtrl@@IAEHPAUtagCREATESTRUCTA@@@Z 10051d26 f   nafxcw:afxpropertygridctrl.obj
 0001:00050d53       ?OnCtlColor@CMFCPropertyGridCtrl@@IAEPAUHBRUSH__@@PAVCDC@@PAVCWnd@@I@Z 10051d53 f   nafxcw:afxpropertygridctrl.obj
 0001:00050dbc       ?OnDestroy@CMFCPropertyGridCtrl@@IAEXXZ 10051dbc f   nafxcw:afxpropertygridctrl.obj
 0001:00050e3e       ?OnDraw@CMFCPropertyGridCtrl@@MAEXPAVCDC@@@Z 10051e3e f   nafxcw:afxpropertygridctrl.obj
 0001:00050f86       ?OnDrawDescription@CMFCPropertyGridCtrl@@MAEXPAVCDC@@VCRect@@@Z 10051f86 f   nafxcw:afxpropertygridctrl.obj
 0001:000510b4       ?OnDrawList@CMFCPropertyGridCtrl@@MAEXPAVCDC@@@Z 100520b4 f   nafxcw:afxpropertygridctrl.obj
 0001:000511a5       ?OnDrawProperty@CMFCPropertyGridCtrl@@UBEHPAVCDC@@PAVCMFCPropertyGridProperty@@@Z 100521a5 f   nafxcw:afxpropertygridctrl.obj
 0001:000516c0       ?OnEditKillFocus@CMFCPropertyGridCtrl@@IAEXXZ 100526c0 f   nafxcw:afxpropertygridctrl.obj
 0001:0005176b       ?OnFillBackground@CMFCPropertyGridCtrl@@MAEXPAVCDC@@VCRect@@@Z 1005276b f   nafxcw:afxpropertygridctrl.obj
 0001:000517a7       ?OnGetDlgCode@CMFCPropertyGridCtrl@@IAEIXZ 100527a7 f   nafxcw:afxpropertygridctrl.obj
 0001:000517ad       ?OnGetFont@CMFCPropertyGridCtrl@@IAEPAUHFONT__@@XZ 100527ad f   nafxcw:afxpropertygridctrl.obj
 0001:000517c0       ?OnGetObject@CMFCPropertyGridCtrl@@IAEJIJ@Z 100527c0 f   nafxcw:afxpropertygridctrl.obj
 0001:000517ea       ?OnHeaderEndTrack@CMFCPropertyGridCtrl@@IAEXPAUtagNMHDR@@PAJ@Z 100527ea f   nafxcw:afxpropertygridctrl.obj
 0001:000517fe       ?OnHeaderItemChanged@CMFCPropertyGridCtrl@@IAEXPAUtagNMHDR@@PAJ@Z 100527fe f   nafxcw:afxpropertygridctrl.obj
 0001:0005190c       ?OnHeaderTrack@CMFCPropertyGridCtrl@@IAEXPAUtagNMHDR@@PAJ@Z 1005290c f   nafxcw:afxpropertygridctrl.obj
 0001:00051954       ?OnInitControl@CMFCPropertyGridCtrl@@IAEJIJ@Z 10052954 f   nafxcw:afxpropertygridctrl.obj
 0001:00051aba       ?OnKeyDown@CMFCPropertyGridCtrl@@IAEXIII@Z 10052aba f   nafxcw:afxpropertygridctrl.obj
 0001:00051fff       ?OnKillFocus@CMFCPropertyGridCtrl@@IAEXPAVCWnd@@@Z 10052fff f   nafxcw:afxpropertygridctrl.obj
 0001:00052080       ?OnLButtonDblClk@CMFCPropertyGridCtrl@@IAEXIVCPoint@@@Z 10053080 f   nafxcw:afxpropertygridctrl.obj
 0001:0005224d       ?OnLButtonDown@CMFCPropertyGridCtrl@@IAEXIVCPoint@@@Z 1005324d f   nafxcw:afxpropertygridctrl.obj
 0001:000524fb       ?OnLButtonUp@CMFCPropertyGridCtrl@@IAEXIVCPoint@@@Z 100534fb f   nafxcw:afxpropertygridctrl.obj
 0001:000526c4       ?OnMouseMove@CMFCPropertyGridCtrl@@IAEXIVCPoint@@@Z 100536c4 f   nafxcw:afxpropertygridctrl.obj
 0001:000526fc       ?OnMouseWheel@CMFCPropertyGridCtrl@@IAEHIFVCPoint@@@Z 100536fc f   nafxcw:afxpropertygridctrl.obj
 0001:00052751       ?OnNcCalcSize@CMFCPropertyGridCtrl@@IAEXHPAUtagNCCALCSIZE_PARAMS@@@Z 10053751 f   nafxcw:afxpropertygridctrl.obj
 0001:0005277d       ?OnNcPaint@CMFCPropertyGridCtrl@@IAEXXZ 1005377d f   nafxcw:afxpropertygridctrl.obj
 0001:000527e9       ?OnNeedTipText@CMFCPropertyGridCtrl@@IAEHIPAUtagNMHDR@@PAJ@Z 100537e9 f   nafxcw:afxpropertygridctrl.obj
 0001:00052920       ?OnNotify@CMFCPropertyGridCtrl@@MAEHIJPAJ@Z 10053920 f   nafxcw:afxpropertygridctrl.obj
 0001:0005296e       ?OnPaint@CMFCPropertyGridCtrl@@IAEXXZ 1005396e f   nafxcw:afxpropertygridctrl.obj
 0001:000529af       ?OnPrintClient@CMFCPropertyGridCtrl@@IAEJPAVCDC@@I@Z 100539af f   nafxcw:afxpropertygridctrl.obj
 0001:000529db       ?OnPropertyChanged@CMFCPropertyGridCtrl@@UBEXPAVCMFCPropertyGridProperty@@@Z 100539db f   nafxcw:afxpropertygridctrl.obj
 0001:00052a16       ?OnRButtonDown@CMFCPropertyGridCtrl@@IAEXIVCPoint@@@Z 10053a16 f   nafxcw:afxpropertygridctrl.obj
 0001:00052bbc       ?OnSelectCombo@CMFCPropertyGridCtrl@@IAEXXZ 10053bbc f   nafxcw:afxpropertygridctrl.obj
 0001:00052bdc       ?OnSetCursor@CMFCPropertyGridCtrl@@IAEHPAVCWnd@@II@Z 10053bdc f   nafxcw:afxpropertygridctrl.obj
 0001:00052cdd       ?OnSetFocus@CMFCPropertyGridCtrl@@IAEXPAVCWnd@@@Z 10053cdd f   nafxcw:afxpropertygridctrl.obj
 0001:00052d18       ?OnSetFont@CMFCPropertyGridCtrl@@IAEXPAVCFont@@H@Z 10053d18 f   nafxcw:afxpropertygridctrl.obj
 0001:00052d55       ?OnSize@CMFCPropertyGridCtrl@@IAEXIHH@Z 10053d55 f   nafxcw:afxpropertygridctrl.obj
 0001:00052d9f       ?OnSpinDeltaPos@CMFCPropertyGridCtrl@@IAEXPAUtagNMHDR@@PAJ@Z 10053d9f f   nafxcw:afxpropertygridctrl.obj
 0001:00052dbd       ?OnStyleChanged@CMFCPropertyGridCtrl@@IAEXHPAUtagSTYLESTRUCT@@@Z 10053dbd f   nafxcw:afxpropertygridctrl.obj
 0001:00052ddf       ?OnUpdateSpin@CMFCPropertyGridCtrl@@IAEJIJ@Z 10053ddf f   nafxcw:afxpropertygridctrl.obj
 0001:00052e0f       ?OnVScroll@CMFCPropertyGridCtrl@@IAEXIIPAVCScrollBar@@@Z 10053e0f f   nafxcw:afxpropertygridctrl.obj
 0001:00052f4b       ?PreSubclassWindow@CMFCPropertyGridCtrl@@MAEXXZ 10053f4b f   nafxcw:afxpropertygridctrl.obj
 0001:00052f76       ?PreTranslateMessage@CMFCPropertyGridCtrl@@UAEHPAUtagMSG@@@Z 10053f76 f   nafxcw:afxpropertygridctrl.obj
 0001:00053786       ?ProcessClipboardAccelerators@CMFCPropertyGridCtrl@@MAEHI@Z 10054786 f   nafxcw:afxpropertygridctrl.obj
 0001:00053840       ?Redraw@CMFCPropertyGridProperty@@QAEXXZ 10054840 f   nafxcw:afxpropertygridctrl.obj
 0001:000538c0       ?ReposProperties@CMFCPropertyGridCtrl@@IAEXXZ 100548c0 f   nafxcw:afxpropertygridctrl.obj
 0001:00053971       ?Reposition@CMFCPropertyGridProperty@@IAEXAAH@Z 10054971 f   nafxcw:afxpropertygridctrl.obj
 0001:00053b74       ?SetAlphabeticMode@CMFCPropertyGridCtrl@@QAEXH@Z 10054b74 f   nafxcw:afxpropertygridctrl.obj
 0001:00053bdc       ?SetBuddy@CSpinButtonCtrl@@QAEPAVCWnd@@PAV2@@Z 10054bdc f i nafxcw:afxpropertygridctrl.obj
 0001:00053c04       ?SetColor@CMFCPropertyGridColorProperty@@QAEXK@Z 10054c04 f   nafxcw:afxpropertygridctrl.obj
 0001:00053cba       ?SetCurSel@CMFCPropertyGridCtrl@@QAEXPAVCMFCPropertyGridProperty@@H@Z 10054cba f   nafxcw:afxpropertygridctrl.obj
 0001:00053f0b       ?SetCurrFont@CMFCPropertyGridCtrl@@IAEPAUHFONT__@@PAVCDC@@@Z 10054f0b f   nafxcw:afxpropertygridctrl.obj
 0001:00053f36       ?SetDescriptionRows@CMFCPropertyGridCtrl@@QAEXH@Z 10054f36 f   nafxcw:afxpropertygridctrl.obj
 0001:00053f78       ?SetModifiedFlag@CMFCPropertyGridProperty@@IAEXXZ 10054f78 f   nafxcw:afxpropertygridctrl.obj
 0001:0005417e       ?SetScrollSizes@CMFCPropertyGridCtrl@@IAEXXZ 1005517e f   nafxcw:afxpropertygridctrl.obj
 0001:00054295       ?SetVSDotNetLook@CMFCPropertyGridCtrl@@QAEXH@Z 10055295 f   nafxcw:afxpropertygridctrl.obj
 0001:000542bd       ?SpanExcluding@?$CStringT@DV?$StrTraitMFC@DV?$ChTraitsCRT@D@ATL@@@@@ATL@@QBE?AV12@PBD@Z 100552bd f i nafxcw:afxpropertygridctrl.obj
 0001:000542f3       ?TrackDescr@CMFCPropertyGridCtrl@@IAEXH@Z 100552f3 f   nafxcw:afxpropertygridctrl.obj
 0001:000543c7       ?TrackHeader@CMFCPropertyGridCtrl@@IAEXH@Z 100553c7 f   nafxcw:afxpropertygridctrl.obj
 0001:00054536       ?TrackToolTip@CMFCPropertyGridCtrl@@IAEXVCPoint@@@Z 10055536 f   nafxcw:afxpropertygridctrl.obj
 0001:0005485d       ?UpdateColor@CMFCPropertyGridCtrl@@UAEXK@Z 1005585d f   nafxcw:afxpropertygridctrl.obj
 0001:000548ec       ?accHitTest@CMFCPropertyGridCtrl@@UAEJJJPAUtagVARIANT@@@Z 100558ec f   nafxcw:afxpropertygridctrl.obj
 0001:0005495b       ?accLocation@CMFCPropertyGridCtrl@@UAEJPAJ000UtagVARIANT@@@Z 1005595b f   nafxcw:afxpropertygridctrl.obj
 0001:00054a40       ?accSelect@CBasePane@@UAEJJUtagVARIANT@@@Z 10055a40 f   nafxcw:afxbasepane.obj
 0001:00054a40       ?accSelect@CMFCPropertyGridCtrl@@UAEJJUtagVARIANT@@@Z 10055a40 f   nafxcw:afxpropertygridctrl.obj
 0001:00054a79       ?get_accChild@CMFCPropertyGridCtrl@@UAEJUtagVARIANT@@PAPAUIDispatch@@@Z 10055a79 f   nafxcw:afxpropertygridctrl.obj
 0001:00054a96       ?get_accParent@CMFCBaseAccessibleObject@@UAEJPAPAUIDispatch@@@Z 10055a96 f   nafxcw:afxbaseribbonelement.obj
 0001:00054a96       ?get_accChildCount@CMFCPropertyGridCtrl@@UAEJPAJ@Z 10055a96 f   nafxcw:afxpropertygridctrl.obj
 0001:00054a96       ?get_accChildCount@CMFCBaseAccessibleObject@@UAEJPAJ@Z 10055a96 f   nafxcw:afxbaseribbonelement.obj
 0001:00054a96       ?get_accChildCount@CBasePane@@UAEJPAJ@Z 10055a96 f   nafxcw:afxbasepane.obj
 0001:00054ab0       ?get_accDefaultAction@CMFCPropertyGridCtrl@@UAEJUtagVARIANT@@PAPA_W@Z 10055ab0 f   nafxcw:afxpropertygridctrl.obj
 0001:00054ab8       ?get_accDescription@CMFCPropertyGridCtrl@@UAEJUtagVARIANT@@PAPA_W@Z 10055ab8 f   nafxcw:afxpropertygridctrl.obj
 0001:00054b46       ?get_accSelection@CBasePane@@UAEJPAUtagVARIANT@@@Z 10055b46 f   nafxcw:afxbasepane.obj
 0001:00054b46       ?get_accSelection@CMFCPropertyGridCtrl@@UAEJPAUtagVARIANT@@@Z 10055b46 f   nafxcw:afxpropertygridctrl.obj
 0001:00054b46       ?get_accFocus@CMFCPropertyGridCtrl@@UAEJPAUtagVARIANT@@@Z 10055b46 f   nafxcw:afxpropertygridctrl.obj
 0001:00054b46       ?get_accFocus@CBasePane@@UAEJPAUtagVARIANT@@@Z 10055b46 f   nafxcw:afxbasepane.obj
 0001:00054b5e       ?get_accHelp@CMFCPropertyGridCtrl@@UAEJUtagVARIANT@@PAPA_W@Z 10055b5e f   nafxcw:afxpropertygridctrl.obj
 0001:00054b5e       ?put_accName@CMFCBaseAccessibleObject@@UAEJUtagVARIANT@@PA_W@Z 10055b5e f   nafxcw:afxbaseribbonelement.obj
 0001:00054b5e       ?put_accValue@CMFCBaseAccessibleObject@@UAEJUtagVARIANT@@PA_W@Z 10055b5e f   nafxcw:afxbaseribbonelement.obj
 0001:00054b5e       ?get_accKeyboardShortcut@CMFCPropertyGridCtrl@@UAEJUtagVARIANT@@PAPA_W@Z 10055b5e f   nafxcw:afxpropertygridctrl.obj
 0001:00054b5e       ?accSelect@CMFCBaseAccessibleObject@@UAEJJUtagVARIANT@@@Z 10055b5e f   nafxcw:afxbaseribbonelement.obj
 0001:00054b64       ?accNavigate@CMFCBaseAccessibleObject@@UAEJJUtagVARIANT@@PAU2@@Z 10055b64 f   nafxcw:afxbaseribbonelement.obj
 0001:00054b64       ?get_accHelpTopic@CBasePane@@UAEJPAPA_WUtagVARIANT@@PAJ@Z 10055b64 f   nafxcw:afxbasepane.obj
 0001:00054b64       ?get_accHelpTopic@CMFCPropertyGridCtrl@@UAEJPAPA_WUtagVARIANT@@PAJ@Z 10055b64 f   nafxcw:afxpropertygridctrl.obj
 0001:00054b6a       ?get_accName@CMFCPropertyGridCtrl@@UAEJUtagVARIANT@@PAPA_W@Z 10055b6a f   nafxcw:afxpropertygridctrl.obj
 0001:00054ca0       ?get_accRole@CMFCPropertyGridCtrl@@UAEJUtagVARIANT@@PAU2@@Z 10055ca0 f   nafxcw:afxpropertygridctrl.obj
 0001:00054cdf       ?get_accState@CMFCPropertyGridCtrl@@UAEJUtagVARIANT@@PAU2@@Z 10055cdf f   nafxcw:afxpropertygridctrl.obj
 0001:00054d69       ?get_accValue@CMFCPropertyGridCtrl@@UAEJUtagVARIANT@@PAPA_W@Z 10055d69 f   nafxcw:afxpropertygridctrl.obj
 0001:00054dea       ??0CMFCShellListCtrl@@QAE@XZ 10055dea f   nafxcw:afxshelllistctrl.obj
 0001:00054e38       ??4COleDateTime@ATL@@QAEAAV01@AB_J@Z 10055e38 f i nafxcw:afxshelllistctrl.obj
 0001:00054e94       ??_ECMFCShellListCtrl@@UAEPAXI@Z 10055e94 f i nafxcw:afxshelllistctrl.obj
 0001:00054e94       ??_GCMFCShellListCtrl@@UAEPAXI@Z 10055e94 f i nafxcw:afxshelllistctrl.obj
 0001:00054ecf       ?DisplayFolder@CMFCShellListCtrl@@UAEJPAU_AFX_SHELLITEMINFO@@@Z 10055ecf f   nafxcw:afxshelllistctrl.obj
 0001:00055025       ?DisplayFolder@CMFCShellListCtrl@@UAEJPBD@Z 10056025 f   nafxcw:afxshelllistctrl.obj
 0001:000550c8       ?DisplayParentFolder@CMFCShellListCtrl@@UAEJXZ 100560c8 f   nafxcw:afxshelllistctrl.obj
 0001:00055183       ?DoDefault@CMFCShellListCtrl@@MAEXH@Z 10056183 f   nafxcw:afxshelllistctrl.obj
 0001:00055385       ?EnumObjects@CMFCShellListCtrl@@MAEJPAUIShellFolder@@PAU_ITEMIDLIST@@@Z 10056385 f   nafxcw:afxshelllistctrl.obj
 0001:0005559e       ?GetAsSystemTime@CTime@ATL@@QBE_NAAU_SYSTEMTIME@@@Z 1005659e f i nafxcw:afxshelllistctrl.obj
 0001:00055619       ?GetHeaderCtrl@CMFCListCtrl@@UAEAAVCMFCHeaderCtrl@@XZ 10056619 f i nafxcw:afxshelllistctrl.obj
 0001:00055620       ?GetMessageMap@CMFCShellListCtrl@@MBEPBUAFX_MSGMAP@@XZ 10056620 f   nafxcw:afxshelllistctrl.obj
 0001:00055626       ?GetRelatedTree@CMFCShellListCtrl@@IBEPAVCMFCShellTreeCtrl@@XZ 10056626 f   nafxcw:afxshelllistctrl.obj
 0001:00055645       ?GetRuntimeClass@CMFCShellListCtrl@@UBEPAUCRuntimeClass@@XZ 10056645 f   nafxcw:afxshelllistctrl.obj
 0001:0005564b       ?GetShellImageList@CMFCShellListCtrl@@IAEPAU_IMAGELIST@@H@Z 1005664b f   nafxcw:afxshelllistctrl.obj
 0001:000556ad       ?InitList@CMFCShellListCtrl@@IAEHXZ 100566ad f   nafxcw:afxshelllistctrl.obj
 0001:00055792       ?LockCurrentFolder@CMFCShellListCtrl@@IAEJPAU_AFX_SHELLITEMINFO@@@Z 10056792 f   nafxcw:afxshelllistctrl.obj
 0001:0005581c       ?OnCompareItems@CMFCShellListCtrl@@UAEHJJH@Z 1005681c f   nafxcw:afxshelllistctrl.obj
 0001:00055a5d       ?OnContextMenu@CMFCShellListCtrl@@IAEXPAVCWnd@@VCPoint@@@Z 10056a5d f   nafxcw:afxshelllistctrl.obj
 0001:00055e63       ?OnCreate@CMFCShellListCtrl@@IAEHPAUtagCREATESTRUCTA@@@Z 10056e63 f   nafxcw:afxshelllistctrl.obj
 0001:00055e8d       ?OnDblClk@CMFCShellListCtrl@@IAEXPAUtagNMHDR@@PAJ@Z 10056e8d f   nafxcw:afxshelllistctrl.obj
 0001:00055e8d       ?OnReturn@CMFCShellListCtrl@@IAEXPAUtagNMHDR@@PAJ@Z 10056e8d f   nafxcw:afxshelllistctrl.obj
 0001:00055ecc       ?OnDeleteitem@CMFCShellListCtrl@@IAEXPAUtagNMHDR@@PAJ@Z 10056ecc f   nafxcw:afxshelllistctrl.obj
 0001:00055f29       ?OnDestroy@CMFCShellListCtrl@@IAEXXZ 10056f29 f   nafxcw:afxshelllistctrl.obj
 0001:00055f4b       ?OnFormatFileDate@CMFCShellListCtrl@@UAEXABVCTime@ATL@@AAV?$CStringT@DV?$StrTraitMFC@DV?$ChTraitsCRT@D@ATL@@@@@3@@Z 10056f4b f   nafxcw:afxshelllistctrl.obj
 0001:00055fad       ?OnFormatFileSize@CMFCShellListCtrl@@UAEX_JAAV?$CStringT@DV?$StrTraitMFC@DV?$ChTraitsCRT@D@ATL@@@@@ATL@@@Z 10056fad f   nafxcw:afxshelllistctrl.obj
 0001:00056007       ?OnGetCellBkColor@CMFCListCtrl@@UAEKHH@Z 10057007 f i nafxcw:afxshelllistctrl.obj
 0001:0005601c       ?OnGetCellTextColor@CMFCListCtrl@@UAEKHH@Z 1005701c f i nafxcw:afxshelllistctrl.obj
 0001:00056031       ?OnGetItemIcon@CMFCShellListCtrl@@UAEHHPAU_AFX_SHELLITEMINFO@@@Z 10057031 f   nafxcw:afxshelllistctrl.obj
 0001:0005608b       ?OnGetItemText@CMFCShellListCtrl@@UAE?AV?$CStringT@DV?$StrTraitMFC@DV?$ChTraitsCRT@D@ATL@@@@@ATL@@HHPAU_AFX_SHELLITEMINFO@@@Z 1005708b f   nafxcw:afxshelllistctrl.obj
 0001:00056228       ?OnInitControl@CMFCShellListCtrl@@IAEJIJ@Z 10057228 f   nafxcw:afxshelllistctrl.obj
 0001:000562e2       ?OnSetColumns@CMFCShellListCtrl@@UAEXXZ 100572e2 f   nafxcw:afxshelllistctrl.obj
 0001:000563b5       ?PreSubclassWindow@CMFCShellListCtrl@@MAEXXZ 100573b5 f   nafxcw:afxshelllistctrl.obj
 0001:000563d2       ?Refresh@CMFCShellListCtrl@@UAEJXZ 100573d2 f   nafxcw:afxshelllistctrl.obj
 0001:000563ef       ?ReleaseCurrFolder@CMFCShellListCtrl@@IAEXXZ 100573ef f   nafxcw:afxshelllistctrl.obj
 0001:0005642f       ?WindowProc@CMFCShellListCtrl@@MAEJIIJ@Z 1005742f f   nafxcw:afxshelllistctrl.obj
 0001:00056480       ??0?$CList@PAU_ITEMIDLIST@@PAU1@@@QAE@H@Z 10057480 f i nafxcw:afxshelltreectrl.obj
 0001:000564a6       ??0CMFCShellTreeCtrl@@QAE@XZ 100574a6 f   nafxcw:afxshelltreectrl.obj
 0001:000564e2       ??1?$CList@PAU_ITEMIDLIST@@PAU1@@@UAE@XZ 100574e2 f i nafxcw:afxshelltreectrl.obj
 0001:0005651c       ??_G?$CList@PAU_ITEMIDLIST@@PAU1@@@UAEPAXI@Z 1005751c f i nafxcw:afxshelltreectrl.obj
 0001:0005651c       ??_E?$CList@PAU_ITEMIDLIST@@PAU1@@@UAEPAXI@Z 1005751c f i nafxcw:afxshelltreectrl.obj
 0001:00056580       ??_ECMFCShellTreeCtrl@@UAEPAXI@Z 10057580 f i nafxcw:afxshelltreectrl.obj
 0001:00056580       ??_GCMFCShellTreeCtrl@@UAEPAXI@Z 10057580 f i nafxcw:afxshelltreectrl.obj
 0001:000565b9       ?CompareProc@CMFCShellTreeCtrl@@KGHJJJ@Z 100575b9 f   nafxcw:afxshelltreectrl.obj
 0001:000565ea       ?DeleteAllItems@CTreeCtrl@@QAEHXZ 100575ea f i nafxcw:afxshelltreectrl.obj
 0001:00056600       ?EnumObjects@CMFCShellTreeCtrl@@MAEJPAU_TREEITEM@@PAUIShellFolder@@PAU_ITEMIDLIST@@@Z 10057600 f   nafxcw:afxshelltreectrl.obj
 0001:00056808       ?GetChildItems@CMFCShellTreeCtrl@@IAEHPAU_TREEITEM@@@Z 10057808 f   nafxcw:afxshelltreectrl.obj
 0001:00056954       ?GetMessageMap@CMFCShellTreeCtrl@@MBEPBUAFX_MSGMAP@@XZ 10057954 f   nafxcw:afxshelltreectrl.obj
 0001:0005695a       ?GetRelatedList@CMFCShellTreeCtrl@@QBEPAVCMFCShellListCtrl@@XZ 1005795a f   nafxcw:afxshelltreectrl.obj
 0001:00056990       ?GetRootItems@CMFCShellTreeCtrl@@IAEHXZ 10057990 f   nafxcw:afxshelltreectrl.obj
 0001:00056ae7       ?GetRuntimeClass@CMFCShellTreeCtrl@@UBEPAUCRuntimeClass@@XZ 10057ae7 f   nafxcw:afxshelltreectrl.obj
 0001:00056aed       ?InitTree@CMFCShellTreeCtrl@@IAEXXZ 10057aed f   nafxcw:afxshelltreectrl.obj
 0001:00056b71       ?OnChildNotify@CMFCShellTreeCtrl@@UAEHIIJPAJ@Z 10057b71 f   nafxcw:afxshelltreectrl.obj
 0001:00056c1e       ?OnContextMenu@CMFCShellTreeCtrl@@IAEXPAVCWnd@@VCPoint@@@Z 10057c1e f   nafxcw:afxshelltreectrl.obj
 0001:00056c40       ?OnCreate@CMFCShellTreeCtrl@@IAEHPAUtagCREATESTRUCTA@@@Z 10057c40 f   nafxcw:afxshelltreectrl.obj
 0001:00056c68       ?OnDeleteitem@CMFCShellTreeCtrl@@IAEXPAUtagNMHDR@@PAJ@Z 10057c68 f   nafxcw:afxshelltreectrl.obj
 0001:00056cc2       ?OnDestroy@CMFCShellTreeCtrl@@IAEXXZ 10057cc2 f   nafxcw:afxshelltreectrl.obj
 0001:00056cdd       ?OnGetItemIcon@CMFCShellTreeCtrl@@UAEHPAU_AFX_SHELLITEMINFO@@H@Z 10057cdd f   nafxcw:afxshelltreectrl.obj
 0001:00056d43       ?OnGetItemText@CMFCShellTreeCtrl@@UAE?AV?$CStringT@DV?$StrTraitMFC@DV?$ChTraitsCRT@D@ATL@@@@@ATL@@PAU_AFX_SHELLITEMINFO@@@Z 10057d43 f   nafxcw:afxshelltreectrl.obj
 0001:00056db3       ?OnInitControl@CMFCShellTreeCtrl@@IAEJIJ@Z 10057db3 f   nafxcw:afxshelltreectrl.obj
 0001:00056e6d       ?OnItemexpanding@CMFCShellTreeCtrl@@IAEXPAUtagNMHDR@@PAJ@Z 10057e6d f   nafxcw:afxshelltreectrl.obj
 0001:00056f47       ?OnRButtonDown@CMFCShellTreeCtrl@@IAEXIVCPoint@@@Z 10057f47 f   nafxcw:afxshelltreectrl.obj
 0001:00056f7e       ?OnShowContextMenu@CMFCShellTreeCtrl@@IAEXVCPoint@@@Z 10057f7e f   nafxcw:afxshelltreectrl.obj
 0001:0005728b       ?PreSubclassWindow@CMFCShellTreeCtrl@@MAEXXZ 1005828b f   nafxcw:afxshelltreectrl.obj
 0001:000572a8       ?Refresh@CMFCShellTreeCtrl@@QAEXXZ 100582a8 f   nafxcw:afxshelltreectrl.obj
 0001:000572d4       ?SelectPath@CMFCShellTreeCtrl@@QAEHPBU_ITEMIDLIST@@H@Z 100582d4 f   nafxcw:afxshelltreectrl.obj
 0001:00057573       ?WindowProc@CMFCShellTreeCtrl@@MAEJIIJ@Z 10058573 f   nafxcw:afxshelltreectrl.obj
 0001:000575c4       ??$CompareElements@PAUHWND__@@PAU1@@@YGHPBQAUHWND__@@0@Z 100585c4 f i nafxcw:afxtooltipmanager.obj
 0001:000575c4       ??$CompareElements@II@@YGHPBI0@Z 100585c4 f i nafxcw:afxtoolbarimages.obj
 0001:000575c4       ??$CompareElements@PAUHICON__@@PAU1@@@YGHPBQAUHICON__@@0@Z 100585c4 f i nafxcw:afxbasetabctrl.obj
 0001:000575c4       ??$CompareElements@HH@@YGHPBH0@Z 100585c4 f i nafxcw:afxvslistbox.obj
 0001:000575c4       ??$CompareElements@KK@@YGHPBK0@Z 100585c4 f i nafxcw:afxcolorbar.obj
 0001:000575c4       ??$CompareElements@PAUHMENU__@@PAU1@@@YGHPBQAUHMENU__@@0@Z 100585c4 f i nafxcw:afxmenuhash.obj
 0001:000575c4       ??$CompareElements@PAVCWnd@@PAV1@@@YGHPBQAVCWnd@@0@Z 100585c4 f i nafxcw:afxmdiclientareawnd.obj
 0001:000575e8       ??0?$CList@PAVCMFCButton@@PAV1@@@QAE@H@Z 100585e8 f i nafxcw:afxvslistbox.obj
 0001:0005760e       ??0?$CMap@HHII@@QAE@H@Z    1005860e f i nafxcw:afxvslistbox.obj
 0001:00057638       ??0CVSListBox@@QAE@XZ      10058638 f   nafxcw:afxvslistbox.obj
 0001:0005768c       ??0CVSListBoxBase@@IAE@XZ  1005868c f   nafxcw:afxvslistbox.obj
 0001:00057749       ??0CVSListBoxEditCtrl@@QAE@XZ 10058749 f   nafxcw:afxvslistbox.obj
 0001:00057771       ??1?$CMap@HHII@@UAE@XZ     10058771 f i nafxcw:afxvslistbox.obj
 0001:000577ab       ??1CVSListBox@@UAE@XZ      100587ab f   nafxcw:afxvslistbox.obj
 0001:000577ee       ??1CVSListBoxBase@@UAE@XZ  100587ee f   nafxcw:afxvslistbox.obj
 0001:000578d4       ??A?$CMap@IIPAUHICON__@@PAU1@@@QAEAAPAUHICON__@@I@Z 100588d4 f i nafxcw:afxtabctrl.obj
 0001:000578d4       ??A?$CMap@IIKK@@QAEAAKI@Z  100588d4 f i nafxcw:afxcolorbar.obj
 0001:000578d4       ??A?$CMap@IIPAUHWND__@@PAU1@@@QAEAAPAUHWND__@@I@Z 100588d4 f i nafxcw:afxpaneframewnd.obj
 0001:000578d4       ??A?$CMap@IIPAVCMFCRibbonStatusBarPane@@PAV1@@@QAEAAPAVCMFCRibbonStatusBarPane@@I@Z 100588d4 f i nafxcw:afxribbonstatusbarpane.obj
 0001:000578d4       ??A?$CMap@PAVCWnd@@PAV1@PAVCImageList@@PAV2@@@QAEAAPAVCImageList@@PAVCWnd@@@Z 100588d4 f i nafxcw:afxmdiclientareawnd.obj
 0001:000578d4       ??A?$CMap@HHII@@QAEAAIH@Z  100588d4 f i nafxcw:afxvslistbox.obj
 0001:000578d4       ??A?$CMap@PAUHICON__@@PAU1@HH@@QAEAAHPAUHICON__@@@Z 100588d4 f i nafxcw:afxbasetabctrl.obj
 0001:000578d4       ??A?$CMap@IIPAVCPane@@PAV1@@@QAEAAPAVCPane@@I@Z 100588d4 f i nafxcw:afxdockingmanager.obj
 0001:000578d4       ??A?$CMap@HHHH@@QAEAAHH@Z  100588d4 f i nafxcw:afxheaderctrl.obj
 0001:000578d4       ??A?$CMap@PAUHWND__@@PAU1@HH@@QAEAAHPAUHWND__@@@Z 100588d4 f i nafxcw:afxvisualmanageroffice2007.obj
 0001:000578d4       ??A?$CMap@IIII@@QAEAAII@Z  100588d4 f i nafxcw:afxpopupmenubar.obj
 0001:000578d4       ??A?$CMap@IIHH@@QAEAAHI@Z  100588d4 f i nafxcw:afxtoolbarimages.obj
 0001:0005793e       ??_E?$CList@PAVCMFCButton@@PAV1@@@UAEPAXI@Z 1005893e f i nafxcw:afxvslistbox.obj
 0001:0005793e       ??_G?$CList@PAVCMFCButton@@PAV1@@@UAEPAXI@Z 1005893e f i nafxcw:afxvslistbox.obj
 0001:000579a2       ??_E?$CMap@HHII@@UAEPAXI@Z 100589a2 f i nafxcw:afxvslistbox.obj
 0001:000579a2       ??_G?$CMap@HHII@@UAEPAXI@Z 100589a2 f i nafxcw:afxvslistbox.obj
 0001:00057a06       ??_ECListCtrl@@UAEPAXI@Z   10058a06 f i nafxcw:afxvslistbox.obj
 0001:00057a06       ??_GCListCtrl@@UAEPAXI@Z   10058a06 f i nafxcw:afxvslistbox.obj
 0001:00057a39       ??_ECStatic@@UAEPAXI@Z     10058a39 f i nafxcw:afxvslistbox.obj
 0001:00057a39       ??_GCStatic@@UAEPAXI@Z     10058a39 f i nafxcw:afxvslistbox.obj
 0001:00057a6c       ??_ECVSListBox@@UAEPAXI@Z  10058a6c f i nafxcw:afxvslistbox.obj
 0001:00057a6c       ??_GCVSListBox@@UAEPAXI@Z  10058a6c f i nafxcw:afxvslistbox.obj
 0001:00057a9f       ??_GCVSListBoxBase@@UAEPAXI@Z 10058a9f f i nafxcw:afxvslistbox.obj
 0001:00057a9f       ??_ECVSListBoxBase@@UAEPAXI@Z 10058a9f f i nafxcw:afxvslistbox.obj
 0001:00057ad2       ??_GCVSListBoxEditCtrl@@UAEPAXI@Z 10058ad2 f i nafxcw:afxvslistbox.obj
 0001:00057ad2       ??_ECVSListBoxEditCtrl@@UAEPAXI@Z 10058ad2 f i nafxcw:afxvslistbox.obj
 0001:00057b0b       ?AddButton@CVSListBoxBase@@QAEHIPBDGEI@Z 10058b0b f   nafxcw:afxvslistbox.obj
 0001:00057d57       ?AddItem@CVSListBox@@UAEHABV?$CStringT@DV?$StrTraitMFC@DV?$ChTraitsCRT@D@ATL@@@@@ATL@@KH@Z 10058d57 f   nafxcw:afxvslistbox.obj
 0001:00057de3       ?AdjustLayout@CVSListBoxBase@@IAEXXZ 10058de3 f   nafxcw:afxvslistbox.obj
 0001:00057fbd       ?CreateNewItem@CVSListBoxBase@@MAEXXZ 10058fbd f   nafxcw:afxvslistbox.obj
 0001:0005802e       ?EditItem@CVSListBox@@UAEHH@Z 1005902e f   nafxcw:afxvslistbox.obj
 0001:0005814d       ?EditLabel@CListCtrl@@QAEPAVCEdit@@H@Z 1005914d f i nafxcw:afxvslistbox.obj
 0001:0005816d       ?GetAssocAt@?$CMap@IIPAVCMFCRibbonStatusBarPane@@PAV1@@@IBEPAVCAssoc@1@IAAI0@Z 1005916d f i nafxcw:afxribbonstatusbarpane.obj
 0001:0005816d       ?GetAssocAt@?$CMap@KKV?$CStringT@DV?$StrTraitMFC@DV?$ChTraitsCRT@D@ATL@@@@@ATL@@PBD@@IBEPAVCAssoc@1@KAAI0@Z 1005916d f i nafxcw:afxcolorbar.obj
 0001:0005816d       ?GetAssocAt@?$CMap@IIPAUHWND__@@PAU1@@@IBEPAVCAssoc@1@IAAI0@Z 1005916d f i nafxcw:afxpaneframewnd.obj
 0001:0005816d       ?GetAssocAt@?$CMap@IIKK@@IBEPAVCAssoc@1@IAAI0@Z 1005916d f i nafxcw:afxcolorbar.obj
 0001:0005816d       ?GetAssocAt@?$CMap@PAUHWND__@@PAU1@HH@@IBEPAVCAssoc@1@PAUHWND__@@AAI1@Z 1005916d f i nafxcw:afxvisualmanageroffice2007.obj
 0001:0005816d       ?GetAssocAt@?$CMap@IIPAVCPane@@PAV1@@@IBEPAVCAssoc@1@IAAI0@Z 1005916d f i nafxcw:afxdockingmanager.obj
 0001:0005816d       ?GetAssocAt@?$CMap@PAVCWnd@@PAV1@PAVCImageList@@PAV2@@@IBEPAVCAssoc@1@PAVCWnd@@AAI1@Z 1005916d f i nafxcw:afxmdiclientareawnd.obj
 0001:0005816d       ?GetAssocAt@?$CMap@IIPAUHICON__@@PAU1@@@IBEPAVCAssoc@1@IAAI0@Z 1005916d f i nafxcw:afxtabctrl.obj
 0001:0005816d       ?GetAssocAt@?$CMap@PAUHICON__@@PAU1@HH@@IBEPAVCAssoc@1@PAUHICON__@@AAI1@Z 1005916d f i nafxcw:afxbasetabctrl.obj
 0001:0005816d       ?GetAssocAt@?$CMap@IIHH@@IBEPAVCAssoc@1@IAAI0@Z 1005916d f i nafxcw:afxtoolbarimages.obj
 0001:0005816d       ?GetAssocAt@?$CMap@HHII@@IBEPAVCAssoc@1@HAAI0@Z 1005916d f i nafxcw:afxvslistbox.obj
 0001:0005816d       ?GetAssocAt@?$CMap@HHHH@@IBEPAVCAssoc@1@HAAI0@Z 1005916d f i nafxcw:afxheaderctrl.obj
 0001:0005816d       ?GetAssocAt@?$CMap@IIII@@IBEPAVCAssoc@1@IAAI0@Z 1005916d f i nafxcw:afxpopupmenubar.obj
 0001:000581bf       ?GetButtonID@CVSListBoxBase@@QBEIH@Z 100591bf f   nafxcw:afxvslistbox.obj
 0001:000581e0       ?GetButtonNum@CVSListBoxBase@@QBEHI@Z 100591e0 f   nafxcw:afxvslistbox.obj
 0001:00058238       ?GetCount@CVSListBox@@UBEHXZ 10059238 f   nafxcw:afxvslistbox.obj
 0001:00058263       ?GetEditControl@CListCtrl@@QBEPAVCEdit@@XZ 10059263 f i nafxcw:afxvslistbox.obj
 0001:0005827c       ?GetItemData@CVSListBox@@UBEKH@Z 1005927c f   nafxcw:afxvslistbox.obj
 0001:0005829f       ?GetItemText@CVSListBox@@UBE?AV?$CStringT@DV?$StrTraitMFC@DV?$ChTraitsCRT@D@ATL@@@@@ATL@@H@Z 1005929f f   nafxcw:afxvslistbox.obj
 0001:000582d9       ?GetListHwnd@CVSListBox@@MBEPAUHWND__@@XZ 100592d9 f i nafxcw:afxvslistbox.obj
 0001:000582e8       ?GetMessageMap@CVSListBox@@MBEPBUAFX_MSGMAP@@XZ 100592e8 f   nafxcw:afxvslistbox.obj
 0001:000582ee       ?GetMessageMap@CVSListBoxBase@@MBEPBUAFX_MSGMAP@@XZ 100592ee f   nafxcw:afxvslistbox.obj
 0001:000582ee       ?GetThisMessageMap@CVSListBoxBase@@KGPBUAFX_MSGMAP@@XZ 100592ee f   nafxcw:afxvslistbox.obj
 0001:000582f4       ?GetMessageMap@CVSListBoxEditCtrl@@MBEPBUAFX_MSGMAP@@XZ 100592f4 f   nafxcw:afxvslistbox.obj
 0001:000582fa       ?GetNextAssoc@?$CMap@IIHH@@QBEXAAPAU__POSITION@@AAIAAH@Z 100592fa f i nafxcw:afxtoolbar.obj
 0001:000582fa       ?GetNextAssoc@?$CMap@IIPAUHMENU__@@PAU1@@@QBEXAAPAU__POSITION@@AAIAAPAUHMENU__@@@Z 100592fa f i nafxcw:afxcontextmenumanager.obj
 0001:000582fa       ?GetNextAssoc@?$CMap@HHII@@QBEXAAPAU__POSITION@@AAHAAI@Z 100592fa f i nafxcw:afxvslistbox.obj
 0001:000582fa       ?GetNextAssoc@?$CMap@IIPAUHWND__@@PAU1@@@QBEXAAPAU__POSITION@@AAIAAPAUHWND__@@@Z 100592fa f i nafxcw:afxpaneframewnd.obj
 0001:000582fa       ?GetNextAssoc@?$CMap@PAVCWnd@@PAV1@PAVCImageList@@PAV2@@@QBEXAAPAU__POSITION@@AAPAVCWnd@@AAPAVCImageList@@@Z 100592fa f i nafxcw:afxmdiclientareawnd.obj
 0001:0005837f       ?GetRuntimeClass@CVSListBox@@UBEPAUCRuntimeClass@@XZ 1005937f f   nafxcw:afxvslistbox.obj
 0001:00058385       ?GetRuntimeClass@CVSListBoxBase@@UBEPAUCRuntimeClass@@XZ 10059385 f   nafxcw:afxvslistbox.obj
 0001:0005838b       ?GetRuntimeClass@CVSListBoxEditCtrl@@UBEPAUCRuntimeClass@@XZ 1005938b f   nafxcw:afxvslistbox.obj
 0001:00058391       ?GetSelItem@CVSListBox@@UBEHXZ 10059391 f   nafxcw:afxvslistbox.obj
 0001:000583bc       ?Init@CVSListBoxBase@@IAEXXZ 100593bc f   nafxcw:afxvslistbox.obj
 0001:000583ef       ?InitHashTable@?$CMap@IIPAVCMFCRibbonStatusBarPane@@PAV1@@@QAEXIH@Z 100593ef f i nafxcw:afxribbonstatusbarpane.obj
 0001:000583ef       ?InitHashTable@?$CMap@V?$CStringT@DV?$StrTraitMFC@DV?$ChTraitsCRT@D@ATL@@@@@ATL@@PBDPAVCObList@@PAV3@@@QAEXIH@Z 100593ef f i nafxcw:afxtoolbarscustomizedialog.obj
 0001:000583ef       ?InitHashTable@?$CMap@IIPAUHICON__@@PAU1@@@QAEXIH@Z 100593ef f i nafxcw:afxtabctrl.obj
 0001:000583ef       ?InitHashTable@?$CMap@KKV?$CStringT@DV?$StrTraitMFC@DV?$ChTraitsCRT@D@ATL@@@@@ATL@@PBD@@QAEXIH@Z 100593ef f i nafxcw:afxcolorbar.obj
 0001:000583ef       ?InitHashTable@?$CMap@HHHH@@QAEXIH@Z 100593ef f i nafxcw:afxheaderctrl.obj
 0001:000583ef       ?InitHashTable@?$CMap@PAUHWND__@@PAU1@HH@@QAEXIH@Z 100593ef f i nafxcw:afxvisualmanageroffice2007.obj
 0001:000583ef       ?InitHashTable@?$CMap@PAVCWnd@@PAV1@PAVCImageList@@PAV2@@@QAEXIH@Z 100593ef f i nafxcw:afxmdiclientareawnd.obj
 0001:000583ef       ?InitHashTable@?$CMap@IAAIPAVCMFCToolBarButton@@AAPAV1@@@QAEXIH@Z 100593ef f i nafxcw:afxtoolbar.obj
 0001:000583ef       ?InitHashTable@?$CMap@PAUHMENU__@@AAPAU1@PAXAAPAX@@QAEXIH@Z 100593ef f i nafxcw:afxmenuhash.obj
 0001:000583ef       ?InitHashTable@?$CMap@IIPAVCPane@@PAV1@@@QAEXIH@Z 100593ef f i nafxcw:afxdockingmanager.obj
 0001:000583ef       ?InitHashTable@?$CMap@PAUHICON__@@PAU1@HH@@QAEXIH@Z 100593ef f i nafxcw:afxbasetabctrl.obj
 0001:000583ef       ?InitHashTable@?$CMap@IIKK@@QAEXIH@Z 100593ef f i nafxcw:afxcolorbar.obj
 0001:000583ef       ?InitHashTable@?$CMap@V?$CStringT@DV?$StrTraitMFC@DV?$ChTraitsCRT@D@ATL@@@@@ATL@@PBDHH@@QAEXIH@Z 100593ef f i nafxcw:afxmousemanager.obj
 0001:000583ef       ?InitHashTable@?$CMap@IIII@@QAEXIH@Z 100593ef f i nafxcw:afxpopupmenubar.obj
 0001:000583ef       ?InitHashTable@?$CMap@IIPAUHWND__@@PAU1@@@QAEXIH@Z 100593ef f i nafxcw:afxpaneframewnd.obj
 0001:000583ef       ?InitHashTable@?$CMap@IIHH@@QAEXIH@Z 100593ef f i nafxcw:afxtoolbarimages.obj
 0001:000583ef       ?InitHashTable@?$CMap@HHII@@QAEXIH@Z 100593ef f i nafxcw:afxvslistbox.obj
 0001:00058452       ?Lookup@?$CMap@HHII@@QBEHHAAI@Z 10059452 f i nafxcw:afxvslistbox.obj
 0001:00058452       ?Lookup@?$CMap@IIII@@QBEHIAAI@Z 10059452 f i nafxcw:afxpopupmenubar.obj
 0001:00058452       ?Lookup@?$CMap@HHHH@@QBEHHAAH@Z 10059452 f i nafxcw:afxheaderctrl.obj
 0001:00058452       ?Lookup@?$CMap@IIHH@@QBEHIAAH@Z 10059452 f i nafxcw:afxtoolbarimages.obj
 0001:00058452       ?Lookup@?$CMap@IIPAUHICON__@@PAU1@@@QBEHIAAPAUHICON__@@@Z 10059452 f i nafxcw:afxtabctrl.obj
 0001:00058452       ?Lookup@?$CMap@IIPAUHWND__@@PAU1@@@QBEHIAAPAUHWND__@@@Z 10059452 f i nafxcw:afxpaneframewnd.obj
 0001:00058452       ?Lookup@?$CMap@PAUHICON__@@PAU1@HH@@QBEHPAUHICON__@@AAH@Z 10059452 f i nafxcw:afxmdiclientareawnd.obj
 0001:00058452       ?Lookup@?$CMap@PAVCWnd@@PAV1@PAVCImageList@@PAV2@@@QBEHPAVCWnd@@AAPAVCImageList@@@Z 10059452 f i nafxcw:afxmdiclientareawnd.obj
 0001:00058452       ?Lookup@?$CMap@PAUHWND__@@PAU1@HH@@QBEHPAUHWND__@@AAH@Z 10059452 f i nafxcw:afxvisualmanageroffice2007.obj
 0001:00058452       ?Lookup@?$CMap@IIPAVCPane@@PAV1@@@QBEHIAAPAVCPane@@@Z 10059452 f i nafxcw:afxdockingmanager.obj
 0001:0005847a       ?NewAssoc@?$CMap@HHII@@IAEPAVCAssoc@1@H@Z 1005947a f i nafxcw:afxvslistbox.obj
 0001:0005847a       ?NewAssoc@?$CMap@IIPAUHICON__@@PAU1@@@IAEPAVCAssoc@1@I@Z 1005947a f i nafxcw:afxtabctrl.obj
 0001:0005847a       ?NewAssoc@?$CMap@IIII@@IAEPAVCAssoc@1@I@Z 1005947a f i nafxcw:afxpopupmenubar.obj
 0001:0005847a       ?NewAssoc@?$CMap@IIPAVCPane@@PAV1@@@IAEPAVCAssoc@1@I@Z 1005947a f i nafxcw:afxdockingmanager.obj
 0001:0005847a       ?NewAssoc@?$CMap@IIKK@@IAEPAVCAssoc@1@I@Z 1005947a f i nafxcw:afxcolorbar.obj
 0001:0005847a       ?NewAssoc@?$CMap@IIHH@@IAEPAVCAssoc@1@I@Z 1005947a f i nafxcw:afxtoolbarimages.obj
 0001:0005847a       ?NewAssoc@?$CMap@PAUHWND__@@PAU1@HH@@IAEPAVCAssoc@1@PAUHWND__@@@Z 1005947a f i nafxcw:afxvisualmanageroffice2007.obj
 0001:0005847a       ?NewAssoc@?$CMap@HHHH@@IAEPAVCAssoc@1@H@Z 1005947a f i nafxcw:afxheaderctrl.obj
 0001:0005847a       ?NewAssoc@?$CMap@PAVCWnd@@PAV1@PAVCImageList@@PAV2@@@IAEPAVCAssoc@1@PAVCWnd@@@Z 1005947a f i nafxcw:afxmdiclientareawnd.obj
 0001:0005847a       ?NewAssoc@?$CMap@IIPAUHWND__@@PAU1@@@IAEPAVCAssoc@1@I@Z 1005947a f i nafxcw:afxpaneframewnd.obj
 0001:0005847a       ?NewAssoc@?$CMap@PAUHICON__@@PAU1@HH@@IAEPAVCAssoc@1@PAUHICON__@@@Z 1005947a f i nafxcw:afxbasetabctrl.obj
 0001:0005847a       ?NewAssoc@?$CMap@IIPAVCMFCRibbonStatusBarPane@@PAV1@@@IAEPAVCAssoc@1@I@Z 1005947a f i nafxcw:afxribbonstatusbarpane.obj
 0001:000584f3       ?OnBrowse@CVSListBoxEditCtrl@@MAEXXZ 100594f3 f i nafxcw:afxvslistbox.obj
 0001:0005852d       ?OnClickButton@CVSListBoxBase@@UAEXH@Z 1005952d f   nafxcw:afxvslistbox.obj
 0001:00058730       ?OnCommand@CVSListBoxBase@@MAEHIJ@Z 10059730 f   nafxcw:afxvslistbox.obj
 0001:000587af       ?OnCreate@CVSListBoxBase@@IAEHPAUtagCREATESTRUCTA@@@Z 100597af f   nafxcw:afxvslistbox.obj
 0001:000587cd       ?OnCreateList@CVSListBox@@MAEPAVCWnd@@XZ 100597cd f   nafxcw:afxvslistbox.obj
 0001:000588a2       ?OnDblclkList@CVSListBox@@IAEXPAUtagNMHDR@@PAJ@Z 100598a2 f   nafxcw:afxvslistbox.obj
 0001:00058908       ?OnEnable@CVSListBoxBase@@IAEXH@Z 10059908 f   nafxcw:afxvslistbox.obj
 0001:0005898a       ?OnEndEditLabel@CVSListBoxBase@@UAEXPBD@Z 1005998a f   nafxcw:afxvslistbox.obj
 0001:00058a45       ?OnEndLabelEdit@CVSListBox@@IAEXPAUtagNMHDR@@PAJ@Z 10059a45 f   nafxcw:afxvslistbox.obj
 0001:00058a9f       ?OnGetDlgCode@CVSListBoxBase@@IAEIXZ 10059a9f f   nafxcw:afxvslistbox.obj
 0001:00058aa3       ?OnGetFont@CVSListBoxBase@@IAEPAUHFONT__@@XZ 10059aa3 f   nafxcw:afxvslistbox.obj
 0001:00058ab2       ?OnGetdispinfo@CVSListBox@@IAEXPAUtagNMHDR@@PAJ@Z 10059ab2 f   nafxcw:afxvslistbox.obj
 0001:00058af6       ?OnInitControl@CVSListBox@@IAEJIJ@Z 10059af6 f   nafxcw:afxvslistbox.obj
 0001:00058c45       ?OnItemChanged@CVSListBox@@IAEXPAUtagNMHDR@@PAJ@Z 10059c45 f   nafxcw:afxvslistbox.obj
 0001:00058c89       ?OnKey@CVSListBoxBase@@UAEXGE@Z 10059c89 f   nafxcw:afxvslistbox.obj
 0001:00058ce7       ?OnKeyDown@CVSListBox@@IAEXPAUtagNMHDR@@PAJ@Z 10059ce7 f   nafxcw:afxvslistbox.obj
 0001:00058da4       ?OnKeyDown@CVSListBoxEditCtrl@@IAEXIII@Z 10059da4 f   nafxcw:afxvslistbox.obj
 0001:00058e08       ?OnNcCalcSize@CVSListBoxEditCtrl@@IAEXHPAUtagNCCALCSIZE_PARAMS@@@Z 10059e08 f   nafxcw:afxvslistbox.obj
 0001:00058e1e       ?OnPaint@CVSListBoxBase@@IAEXXZ 10059e1e f   nafxcw:afxvslistbox.obj
 0001:00058f81       ?OnSetFocus@CVSListBoxBase@@IAEXPAVCWnd@@@Z 10059f81 f   nafxcw:afxvslistbox.obj
 0001:00058faf       ?OnSetFont@CVSListBoxBase@@IAEXPAVCFont@@H@Z 10059faf f   nafxcw:afxvslistbox.obj
 0001:00059046       ?OnSetText@CVSListBoxBase@@IAEHPBD@Z 1005a046 f   nafxcw:afxvslistbox.obj
 0001:000590a6       ?OnSize@CVSListBoxBase@@IAEXIHH@Z 1005a0a6 f   nafxcw:afxvslistbox.obj
 0001:000590b9       ?OnSizeList@CVSListBox@@MAEXXZ 1005a0b9 f   nafxcw:afxvslistbox.obj
 0001:0005913f       ?OnWindowPosChanging@CVSListBoxEditCtrl@@IAEXPAUtagWINDOWPOS@@@Z 1005a13f f   nafxcw:afxvslistbox.obj
 0001:0005915b       ?PreSubclassWindow@CVSListBoxBase@@MAEXXZ 1005a15b f   nafxcw:afxvslistbox.obj
 0001:00059178       ?PreTranslateMessage@CVSListBox@@UAEHPAUtagMSG@@@Z 1005a178 f   nafxcw:afxvslistbox.obj
 0001:00059365       ?RemoveAll@?$CMap@HHHH@@QAEXXZ 1005a365 f i nafxcw:afxheaderctrl.obj
 0001:00059365       ?RemoveAll@?$CMap@IIKK@@QAEXXZ 1005a365 f i nafxcw:afxcolormenubutton.obj
 0001:00059365       ?RemoveAll@?$CMap@HHII@@QAEXXZ 1005a365 f i nafxcw:afxvslistbox.obj
 0001:00059365       ?RemoveAll@?$CMap@IIPAUHWND__@@PAU1@@@QAEXXZ 1005a365 f i nafxcw:afxpaneframewnd.obj
 0001:00059365       ?RemoveAll@?$CMap@IAAIPAVCMFCToolBarButton@@AAPAV1@@@QAEXXZ 1005a365 f i nafxcw:afxtoolbar.obj
 0001:00059365       ?RemoveAll@?$CMap@PAUHICON__@@PAU1@HH@@QAEXXZ 1005a365 f i nafxcw:afxbasetabctrl.obj
 0001:00059365       ?RemoveAll@?$CMap@IIII@@QAEXXZ 1005a365 f i nafxcw:afxpopupmenubar.obj
 0001:00059365       ?RemoveAll@?$CMap@IIPAVCMFCRibbonStatusBarPane@@PAV1@@@QAEXXZ 1005a365 f i nafxcw:afxribbonstatusbarpane.obj
 0001:00059365       ?RemoveAll@?$CMap@PAUHMENU__@@AAPAU1@PAXAAPAX@@QAEXXZ 1005a365 f i nafxcw:afxmenuhash.obj
 0001:00059365       ?RemoveAll@?$CMap@IIPAUHICON__@@PAU1@@@QAEXXZ 1005a365 f i nafxcw:afxtabctrl.obj
 0001:00059365       ?RemoveAll@?$CMap@PAVCWnd@@PAV1@PAVCImageList@@PAV2@@@QAEXXZ 1005a365 f i nafxcw:afxmdiclientareawnd.obj
 0001:00059365       ?RemoveAll@?$CMap@IIHH@@QAEXXZ 1005a365 f i nafxcw:afxtoolbarimages.obj
 0001:00059365       ?RemoveAll@?$CMap@IIPAVCPane@@PAV1@@@QAEXXZ 1005a365 f i nafxcw:afxdockingmanager.obj
 0001:00059365       ?RemoveAll@?$CMap@PAUHWND__@@PAU1@HH@@QAEXXZ 1005a365 f i nafxcw:afxvisualmanageroffice2007.obj
 0001:000593a8       ?RemoveItem@CVSListBox@@UAEHH@Z 1005a3a8 f   nafxcw:afxvslistbox.obj
 0001:00059462       ?SelectItem@CVSListBox@@UAEHH@Z 1005a462 f   nafxcw:afxvslistbox.obj
 0001:000594ae       ?Serialize@?$CMap@HHHH@@UAEXAAVCArchive@@@Z 1005a4ae f i nafxcw:afxheaderctrl.obj
 0001:000594ae       ?Serialize@?$CMap@PAVCWnd@@PAV1@PAVCImageList@@PAV2@@@UAEXAAVCArchive@@@Z 1005a4ae f i nafxcw:afxmdiclientareawnd.obj
 0001:000594ae       ?Serialize@?$CMap@IIPAVCMFCRibbonStatusBarPane@@PAV1@@@UAEXAAVCArchive@@@Z 1005a4ae f i nafxcw:afxribbonstatusbarpane.obj
 0001:000594ae       ?Serialize@?$CMap@PAUHWND__@@PAU1@HH@@UAEXAAVCArchive@@@Z 1005a4ae f i nafxcw:afxvisualmanageroffice2007.obj
 0001:000594ae       ?Serialize@?$CMap@IIPAUHWND__@@PAU1@@@UAEXAAVCArchive@@@Z 1005a4ae f i nafxcw:afxpaneframewnd.obj
 0001:000594ae       ?Serialize@?$CMap@IIPAVCPane@@PAV1@@@UAEXAAVCArchive@@@Z 1005a4ae f i nafxcw:afxdockingmanager.obj
 0001:000594ae       ?Serialize@?$CMap@IIHH@@UAEXAAVCArchive@@@Z 1005a4ae f i nafxcw:afxtoolbarimages.obj
 0001:000594ae       ?Serialize@?$CMap@IIKK@@UAEXAAVCArchive@@@Z 1005a4ae f i nafxcw:afxcolormenubutton.obj
 0001:000594ae       ?Serialize@?$CMap@IIII@@UAEXAAVCArchive@@@Z 1005a4ae f i nafxcw:afxpopupmenubar.obj
 0001:000594ae       ?Serialize@?$CMap@IIPAUHICON__@@PAU1@@@UAEXAAVCArchive@@@Z 1005a4ae f i nafxcw:afxtabctrl.obj
 0001:000594ae       ?Serialize@?$CMap@PAUHICON__@@PAU1@HH@@UAEXAAVCArchive@@@Z 1005a4ae f i nafxcw:afxbasetabctrl.obj
 0001:000594ae       ?Serialize@?$CMap@HHII@@UAEXAAVCArchive@@@Z 1005a4ae f i nafxcw:afxvslistbox.obj
 0001:00059559       ?SetItemData@CVSListBox@@UAEXHK@Z 1005a559 f   nafxcw:afxvslistbox.obj
 0001:00059588       ?SetItemText@CVSListBox@@MAEXHABV?$CStringT@DV?$StrTraitMFC@DV?$ChTraitsCRT@D@ATL@@@@@ATL@@@Z 1005a588 f   nafxcw:afxvslistbox.obj
 0001:000595b2       ?SetStandardButtons@CVSListBoxBase@@QAEHI@Z 1005a5b2 f   nafxcw:afxvslistbox.obj
 0001:0005976f       ??0CImageList@@QAE@XZ      1005a76f f   nafxcw:winctrl2.obj
 0001:0005977c       ??1CHeaderCtrl@@UAE@XZ     1005a77c f   nafxcw:winctrl2.obj
 0001:000597c1       ??1CImageList@@UAE@XZ      1005a7c1 f   nafxcw:winctrl2.obj
 0001:000598d8       ??1CListCtrl@@UAE@XZ       1005a8d8 f   nafxcw:winctrl2.obj
 0001:0005991d       ??1CRichEditCtrl@@UAE@XZ   1005a91d f   nafxcw:winctrl2.obj
 0001:00059962       ??1CSpinButtonCtrl@@UAE@XZ 1005a962 f   nafxcw:winctrl2.obj
 0001:000599a7       ??1CTreeCtrl@@UAE@XZ       1005a9a7 f   nafxcw:winctrl2.obj
 0001:000599ec       ??_ECHeaderCtrl@@UAEPAXI@Z 1005a9ec f i nafxcw:winctrl2.obj
 0001:000599ec       ??_GCHeaderCtrl@@UAEPAXI@Z 1005a9ec f i nafxcw:winctrl2.obj
 0001:00059a1f       ??_ECImageList@@UAEPAXI@Z  1005aa1f f i nafxcw:winctrl2.obj
 0001:00059a1f       ??_GCImageList@@UAEPAXI@Z  1005aa1f f i nafxcw:winctrl2.obj
 0001:00059a4f       ??_ECRichEditCtrl@@UAEPAXI@Z 1005aa4f f i nafxcw:winctrl2.obj
 0001:00059a4f       ??_GCRichEditCtrl@@UAEPAXI@Z 1005aa4f f i nafxcw:winctrl2.obj
 0001:00059a82       ??_ECSpinButtonCtrl@@UAEPAXI@Z 1005aa82 f i nafxcw:winctrl2.obj
 0001:00059a82       ??_GCSpinButtonCtrl@@UAEPAXI@Z 1005aa82 f i nafxcw:winctrl2.obj
 0001:00059ab5       ?Attach@CImageList@@QAEHPAU_IMAGELIST@@@Z 1005aab5 f   nafxcw:winctrl2.obj
 0001:00059ae5       ?Construct@?$ConstructDestruct@VCImageList@@@@SGXPAVCObject@@@Z 1005aae5 f i nafxcw:winctrl2.obj
 0001:00059afe       ?Create@CHeaderCtrl@@UAEHKABUtagRECT@@PAVCWnd@@I@Z 1005aafe f   nafxcw:winctrl2.obj
 0001:00059b3a       ?Create@CImageList@@QAEHHHIHH@Z 1005ab3a f   nafxcw:winctrl2.obj
 0001:00059b61       ?Create@CImageList@@QAEHIHHK@Z 1005ab61 f   nafxcw:winctrl2.obj
 0001:00059b92       ?Create@CSpinButtonCtrl@@UAEHKABUtagRECT@@PAVCWnd@@I@Z 1005ab92 f   nafxcw:winctrl2.obj
 0001:00059bcb       ?CreateEx@CHeaderCtrl@@UAEHKKABUtagRECT@@PAVCWnd@@I@Z 1005abcb f   nafxcw:winctrl2.obj
 0001:00059bcb       ?CreateEx@CSpinButtonCtrl@@UAEHKKABUtagRECT@@PAVCWnd@@I@Z 1005abcb f   nafxcw:winctrl2.obj
 0001:00059c10       ?CreateObject@CImageList@@SGPAVCObject@@XZ 1005ac10 f   nafxcw:winctrl2.obj
 0001:00059c33       ?DeleteImageList@CImageList@@QAEHXZ 1005ac33 f   nafxcw:winctrl2.obj
 0001:00059c48       ?Detach@CImageList@@QAEPAU_IMAGELIST@@XZ 1005ac48 f   nafxcw:winctrl2.obj
 0001:00059c72       ?FromHandle@CImageList@@SGPAV1@PAU_IMAGELIST@@@Z 1005ac72 f   nafxcw:winctrl2.obj
 0001:00059c84       ?FromHandlePermanent@CImageList@@SGPAV1@PAU_IMAGELIST@@@Z 1005ac84 f   nafxcw:winctrl2.obj
 0001:00059ca8       ?GetItemData@CListCtrl@@QBEKH@Z 1005aca8 f   nafxcw:winctrl2.obj
 0001:00059cea       ?GetItemData@CTreeCtrl@@QBEKPAU_TREEITEM@@@Z 1005acea f   nafxcw:winctrl2.obj
 0001:00059d33       ?GetItemRect@CListCtrl@@QBEHHPAUtagRECT@@I@Z 1005ad33 f   nafxcw:winctrl2.obj
 0001:00059d54       ?GetItemRect@CTreeCtrl@@QBEHPAU_TREEITEM@@PAUtagRECT@@H@Z 1005ad54 f   nafxcw:winctrl2.obj
 0001:00059d75       ?GetItemText@CListCtrl@@QBE?AV?$CStringT@DV?$StrTraitMFC@DV?$ChTraitsCRT@D@ATL@@@@@ATL@@HH@Z 1005ad75 f   nafxcw:winctrl2.obj
 0001:00059dff       ?GetMessageMap@CListCtrl@@MBEPBUAFX_MSGMAP@@XZ 1005adff f   nafxcw:winctrl2.obj
 0001:00059dff       ?GetThisMessageMap@CListCtrl@@KGPBUAFX_MSGMAP@@XZ 1005adff f   nafxcw:winctrl2.obj
 0001:00059e05       ?GetThisMessageMap@CTreeCtrl@@KGPBUAFX_MSGMAP@@XZ 1005ae05 f   nafxcw:winctrl2.obj
 0001:00059e05       ?GetMessageMap@CTreeCtrl@@MBEPBUAFX_MSGMAP@@XZ 1005ae05 f   nafxcw:winctrl2.obj
 0001:00059e0b       ?GetRuntimeClass@CHeaderCtrl@@UBEPAUCRuntimeClass@@XZ 1005ae0b f   nafxcw:winctrl2.obj
 0001:00059e11       ?GetRuntimeClass@CImageList@@UBEPAUCRuntimeClass@@XZ 1005ae11 f   nafxcw:winctrl2.obj
 0001:00059e17       ?GetRuntimeClass@CListCtrl@@UBEPAUCRuntimeClass@@XZ 1005ae17 f   nafxcw:winctrl2.obj
 0001:00059e1d       ?GetRuntimeClass@CRichEditCtrl@@UBEPAUCRuntimeClass@@XZ 1005ae1d f   nafxcw:winctrl2.obj
 0001:00059e23       ?GetRuntimeClass@CSpinButtonCtrl@@UBEPAUCRuntimeClass@@XZ 1005ae23 f   nafxcw:winctrl2.obj
 0001:00059e29       ?GetRuntimeClass@CTreeCtrl@@UBEPAUCRuntimeClass@@XZ 1005ae29 f   nafxcw:winctrl2.obj
 0001:00059e2f       ?HitTest@CListCtrl@@QBEHVCPoint@@PAI@Z 1005ae2f f   nafxcw:winctrl2.obj
 0001:00059e7b       ?HitTest@CTreeCtrl@@QBEPAU_TREEITEM@@VCPoint@@PAI@Z 1005ae7b f   nafxcw:winctrl2.obj
 0001:00059eb1       ?InsertColumn@CListCtrl@@QAEHHPBDHHH@Z 1005aeb1 f   nafxcw:winctrl2.obj
 0001:00059f04       ?InsertItem@CListCtrl@@QAEHIHPBDIIHJ@Z 1005af04 f   nafxcw:winctrl2.obj
 0001:00059f50       ?OnChildNotify@CHeaderCtrl@@MAEHIIJPAJ@Z 1005af50 f   nafxcw:winctrl2.obj
 0001:00059f90       ?OnChildNotify@CListCtrl@@MAEHIIJPAJ@Z 1005af90 f   nafxcw:winctrl2.obj
 0001:00059fd0       ?OnDestroy@CTreeCtrl@@QAEXXZ 1005afd0 f   nafxcw:winctrl2.obj
 0001:00059feb       ?OnNcDestroy@CListCtrl@@IAEXXZ 1005afeb f   nafxcw:winctrl2.obj
 0001:0005a00f       ?RemoveImageList@CListCtrl@@IAEXH@Z 1005b00f f   nafxcw:winctrl2.obj
 0001:0005a04a       ?RemoveImageList@CTreeCtrl@@IAEXH@Z 1005b04a f   nafxcw:winctrl2.obj
 0001:0005a085       ?SetItem@CListCtrl@@QAEHHHIPBDHIIJ@Z 1005b085 f   nafxcw:winctrl2.obj
 0001:0005a0ab       ?SetItem@CListCtrl@@QAEHHHIPBDHIIJH@Z 1005b0ab f   nafxcw:winctrl2.obj
 0001:0005a0ff       ?SetItemState@CListCtrl@@QAEHHII@Z 1005b0ff f   nafxcw:winctrl2.obj
 0001:0005a12a       ?SetItemText@CListCtrl@@QAEHHHPBD@Z 1005b12a f   nafxcw:winctrl2.obj
 0001:0005a155       ?afxMapHIMAGELIST@@YGPAVCHandleMap@@H@Z 1005b155 f   nafxcw:winctrl2.obj
 0001:0005a1c8       _IsolationAwareImageList_Create@20 1005b1c8 f i nafxcw:winctrl2.obj
 0001:0005a29c       _IsolationAwareImageList_Destroy@4 1005b29c f i nafxcw:winctrl2.obj
 0001:0005a364       _IsolationAwareImageList_LoadImageA@28 1005b364 f i nafxcw:winctrl2.obj
 0001:0005a43e       ??1CButton@@UAE@XZ         1005b43e f   nafxcw:winctrl1.obj
 0001:0005a483       ??1CComboBox@@UAE@XZ       1005b483 f   nafxcw:winctrl1.obj
 0001:0005a4c8       ??1CEdit@@UAE@XZ           1005b4c8 f   nafxcw:winctrl1.obj
 0001:0005a50d       ??1CListBox@@UAE@XZ        1005b50d f   nafxcw:winctrl1.obj
 0001:0005a552       ??1CScrollBar@@UAE@XZ      1005b552 f   nafxcw:winctrl1.obj
 0001:0005a597       ??1CStatic@@UAE@XZ         1005b597 f   nafxcw:winctrl1.obj
 0001:0005a5dc       ?OnShowWindow@CWnd@@IAEXHI@Z 1005b5dc f   nafxcw:afxtoolbar.obj
 0001:0005a5dc       ?VKeyToItem@CListBox@@UAEHII@Z 1005b5dc f   nafxcw:winctrl1.obj
 0001:0005a5dc       ?CharToItem@CListBox@@UAEHII@Z 1005b5dc f   nafxcw:winctrl1.obj
 0001:0005a5dc       ?OnSizing@CMultiPaneFrameWnd@@IAEXIPAUtagRECT@@@Z 1005b5dc f   nafxcw:afxmultipaneframewnd.obj
 0001:0005a5e4       ?Create@CButton@@UAEHPBDKABUtagRECT@@PAVCWnd@@I@Z 1005b5e4 f   nafxcw:winctrl1.obj
 0001:0005a617       ?Create@CComboBox@@UAEHKABUtagRECT@@PAVCWnd@@I@Z 1005b617 f   nafxcw:winctrl1.obj
 0001:0005a649       ?Create@CEdit@@QAEHKABUtagRECT@@PAVCWnd@@I@Z 1005b649 f   nafxcw:winctrl1.obj
 0001:0005a67b       ?Create@CListBox@@UAEHKABUtagRECT@@PAVCWnd@@I@Z 1005b67b f   nafxcw:winctrl1.obj
 0001:0005a6ad       ?Create@CScrollBar@@UAEHKABUtagRECT@@PAVCWnd@@I@Z 1005b6ad f   nafxcw:winctrl1.obj
 0001:0005a6df       ?Create@CStatic@@UAEHPBDKABUtagRECT@@PAVCWnd@@I@Z 1005b6df f   nafxcw:winctrl1.obj
 0001:0005a712       ?GetLBText@CComboBox@@QBEXHAAV?$CStringT@DV?$StrTraitMFC@DV?$ChTraitsCRT@D@ATL@@@@@ATL@@@Z 1005b712 f   nafxcw:winctrl1.obj
 0001:0005a755       ?GetRuntimeClass@CButton@@UBEPAUCRuntimeClass@@XZ 1005b755 f   nafxcw:winctrl1.obj
 0001:0005a75b       ?GetRuntimeClass@CComboBox@@UBEPAUCRuntimeClass@@XZ 1005b75b f   nafxcw:winctrl1.obj
 0001:0005a761       ?GetRuntimeClass@CEdit@@UBEPAUCRuntimeClass@@XZ 1005b761 f   nafxcw:winctrl1.obj
 0001:0005a767       ?GetRuntimeClass@CListBox@@UBEPAUCRuntimeClass@@XZ 1005b767 f   nafxcw:winctrl1.obj
 0001:0005a76d       ?GetRuntimeClass@CScrollBar@@UBEPAUCRuntimeClass@@XZ 1005b76d f   nafxcw:winctrl1.obj
 0001:0005a773       ?GetRuntimeClass@CStatic@@UBEPAUCRuntimeClass@@XZ 1005b773 f   nafxcw:winctrl1.obj
 0001:0005a779       ?GetText@CListBox@@QBEXHAAV?$CStringT@DV?$StrTraitMFC@DV?$ChTraitsCRT@D@ATL@@@@@ATL@@@Z 1005b779 f   nafxcw:winctrl1.obj
 0001:0005a7bc       ?OnChildNotify@CStatic@@MAEHIIJPAJ@Z 1005b7bc f   nafxcw:winctrl1.obj
 0001:0005a7bc       ?OnChildNotify@CButton@@MAEHIIJPAJ@Z 1005b7bc f   nafxcw:winctrl1.obj
 0001:0005a7fc       ?OnChildNotify@CComboBox@@MAEHIIJPAJ@Z 1005b7fc f   nafxcw:winctrl1.obj
 0001:0005a87f       ?OnChildNotify@CListBox@@MAEHIIJPAJ@Z 1005b87f f   nafxcw:winctrl1.obj
 0001:0005a93d       ??0AFX_GLOBAL_DATA@@QAE@XZ 1005b93d f   nafxcw:afxglobals.obj
 0001:0005ab3a       ??0CMemDC@@QAE@AAVCDC@@PAVCWnd@@@Z 1005bb3a f   nafxcw:afxglobals.obj
 0001:0005ac8b       ??0CPen@@QAE@XZ            1005bc8b f i nafxcw:afxglobals.obj
 0001:0005aca0       ??1AFX_GLOBAL_DATA@@QAE@XZ 1005bca0 f   nafxcw:afxglobals.obj
 0001:0005adfa       ??1CMemDC@@UAE@XZ          1005bdfa f   nafxcw:afxglobals.obj
 0001:0005af11       ??_GCMemDC@@UAEPAXI@Z      1005bf11 f i nafxcw:afxglobals.obj
 0001:0005af11       ??_ECMemDC@@UAEPAXI@Z      1005bf11 f i nafxcw:afxglobals.obj
 0001:0005af33       ?AFXGetParentFrame@@YAPAVCFrameWnd@@PBVCWnd@@@Z 1005bf33 f   nafxcw:afxglobals.obj
 0001:0005afa5       ?AfxIsExtendedFrameClass@@YGHPAVCWnd@@@Z 1005bfa5 f   nafxcw:afxglobals.obj
 0001:0005b00e       ?CleanUp@AFX_GLOBAL_DATA@@QAEXXZ 1005c00e f   nafxcw:afxglobals.obj
 0001:0005b09e       ?CreateDitherBitmap@AFX_GLOBAL_DATA@@IAEPAUHBITMAP__@@PAUHDC__@@@Z 1005c09e f   nafxcw:afxglobals.obj
 0001:0005b172       ?CreatePen@CPen@@QAEHHHK@Z 1005c172 f i nafxcw:afxglobals.obj
 0001:0005b194       ?Delete@?$CStringT@DV?$StrTraitMFC@DV?$ChTraitsCRT@D@ATL@@@@@ATL@@QAEHHH@Z 1005c194 f i nafxcw:afxglobals.obj
 0001:0005b20d       ?DrawParentBackground@AFX_GLOBAL_DATA@@QAEHPAVCWnd@@PAVCDC@@PAUtagRECT@@@Z 1005c20d f   nafxcw:afxglobals.obj
 0001:0005b310       ?DrawTextOnGlass@AFX_GLOBAL_DATA@@QAEHPAXPAVCDC@@HHV?$CStringT@DV?$StrTraitMFC@DV?$ChTraitsCRT@D@ATL@@@@@ATL@@VCRect@@KHK@Z 1005c310 f   nafxcw:afxglobals.obj
 0001:0005b484       ?GetColor@AFX_GLOBAL_DATA@@QAEKH@Z 1005c484 f   nafxcw:afxglobals.obj
 0001:0005b564       ?GetHandCursor@AFX_GLOBAL_DATA@@QAEPAUHICON__@@XZ 1005c564 f   nafxcw:afxglobals.obj
 0001:0005b585       ?GetITaskbarList3@AFX_GLOBAL_DATA@@QAEPAUITaskbarList3@@XZ 1005c585 f   nafxcw:afxglobals.obj
 0001:0005b598       ?GetNonClientMetrics@AFX_GLOBAL_DATA@@QAEHAAUtagNONCLIENTMETRICSA@@@Z 1005c598 f   nafxcw:afxglobals.obj
 0001:0005b645       ?Initialize@AFX_GLOBAL_DATA@@QAEXXZ 1005c645 f   nafxcw:afxglobals.obj
 0001:0005b702       ?IsDwmCompositionEnabled@AFX_GLOBAL_DATA@@QAEHXZ 1005c702 f   nafxcw:afxglobals.obj
 0001:0005b72a       ?OnSettingChange@AFX_GLOBAL_DATA@@QAEXXZ 1005c72a f   nafxcw:afxglobals.obj
 0001:0005b7f6       ?RegisterWindowClass@AFX_GLOBAL_DATA@@QAE?AV?$CStringT@DV?$StrTraitMFC@DV?$ChTraitsCRT@D@ATL@@@@@ATL@@PBD@Z 1005c7f6 f   nafxcw:afxglobals.obj
 0001:0005b8bd       ?Replace@?$CStringT@DV?$StrTraitMFC@DV?$ChTraitsCRT@D@ATL@@@@@ATL@@QAEHPBD0@Z 1005c8bd f i nafxcw:afxglobals.obj
 0001:0005ba31       ?ResetCheckCompositionFlag@AFX_GLOBAL_DATA@@QAEXXZ 1005ca31 f   nafxcw:afxglobals.obj
 0001:0005ba39       ?Resume@AFX_GLOBAL_DATA@@QAEHXZ 1005ca39 f   nafxcw:afxglobals.obj
 0001:0005ba7a       ?SetLayeredAttrib@AFX_GLOBAL_DATA@@QAEHPAUHWND__@@KEK@Z 1005ca7a f   nafxcw:afxglobals.obj
 0001:0005ba84       ?UpdateFonts@AFX_GLOBAL_DATA@@QAEXXZ 1005ca84 f   nafxcw:afxglobals.obj
 0001:0005bfb8       ?UpdateSysColors@AFX_GLOBAL_DATA@@QAEXXZ 1005cfb8 f   nafxcw:afxglobals.obj
 0001:0005c3d6       ?UpdateTextMetrics@AFX_GLOBAL_DATA@@IAEXXZ 1005d3d6 f   nafxcw:afxglobals.obj
 0001:0005c49b       ?Filter_Box@@YANN@Z        1005d49b f i nafxcw:afxtoolbarimages.obj
 0001:0005c4c9       ?Filter_Bilinear@@YANN@Z   1005d4c9 f i nafxcw:afxtoolbarimages.obj
 0001:0005c4f3       ?Filter_Bicubic@@YANN@Z    1005d4f3 f i nafxcw:afxtoolbarimages.obj
 0001:0005c52b       ?Filter_Bell@@YANN@Z       1005d52b f i nafxcw:afxtoolbarimages.obj
 0001:0005c580       ?Filter_BSpline@@YANN@Z    1005d580 f i nafxcw:afxtoolbarimages.obj
 0001:0005c5df       ?Filter_Lanczos3@@YANN@Z   1005d5df f i nafxcw:afxtoolbarimages.obj
 0001:0005c633       ?Filter_Mitchell@@YANN@Z   1005d633 f i nafxcw:afxtoolbarimages.obj
 0001:0005c6b4       ??0?$CList@II@@QAE@H@Z     1005d6b4 f i nafxcw:afxtoolbarimages.obj
 0001:0005c6da       ??0?$CList@PAUHINSTANCE__@@PAU1@@@QAE@H@Z 1005d6da f i nafxcw:afxtoolbarimages.obj
 0001:0005c700       ??0?$CMap@IIHH@@QAE@H@Z    1005d700 f i nafxcw:afxtoolbarimages.obj
 0001:0005c72a       ??0Bitmap@Gdiplus@@QAE@HHHHPAE@Z 1005d72a f i nafxcw:afxtoolbarimages.obj
 0001:0005c766       ??0CCriticalSection@@QAE@XZ 1005d766 f i nafxcw:afxtoolbarimages.obj
 0001:0005c7a2       ??0CImage@ATL@@QAE@XZ      1005d7a2 f i nafxcw:afxtoolbarimages.obj
 0001:0005c7e4       ??0CMFCToolBarImages@@QAE@H@Z 1005d7e4 f   nafxcw:afxtoolbarimages.obj
 0001:0005c89b       ??0CMFCToolBarImages@@QAE@XZ 1005d89b f   nafxcw:afxtoolbarimages.obj
 0001:0005c94e       ??0CPngImage@@QAE@XZ       1005d94e f   nafxcw:afxtoolbarimages.obj
 0001:0005c963       ??0Graphics@Gdiplus@@QAE@PAVImage@1@@Z 1005d963 f i nafxcw:afxtoolbarimages.obj
 0001:0005c991       ??1?$CList@II@@UAE@XZ      1005d991 f i nafxcw:afxtoolbarimages.obj
 0001:0005c9cb       ??1?$CList@PAUHINSTANCE__@@PAU1@@@UAE@XZ 1005d9cb f i nafxcw:afxtoolbarimages.obj
 0001:0005ca05       ??1?$CMap@IIHH@@UAE@XZ     1005da05 f i nafxcw:afxtoolbarimages.obj
 0001:0005ca3f       ??1CCriticalSection@@UAE@XZ 1005da3f f i nafxcw:afxtoolbarimages.obj
 0001:0005ca5a       ??1CImage@ATL@@UAE@XZ      1005da5a f i nafxcw:afxtoolbarimages.obj
 0001:0005ca7e       ??1CMFCScanlinerBitmap@@QAE@XZ 1005da7e f i nafxcw:afxtoolbarimages.obj
 0001:0005ca83       ??1CMFCToolBarImages@@UAE@XZ 1005da83 f   nafxcw:afxtoolbarimages.obj
 0001:0005cb89       ??1CMFCZoomKernel@@UAE@XZ  1005db89 f   nafxcw:afxtoolbarimages.obj
 0001:0005cb94       ??_E?$CList@II@@UAEPAXI@Z  1005db94 f i nafxcw:afxtoolbarimages.obj
 0001:0005cb94       ??_G?$CList@II@@UAEPAXI@Z  1005db94 f i nafxcw:afxtoolbarimages.obj
 0001:0005cbf8       ??_E?$CList@PAUHINSTANCE__@@PAU1@@@UAEPAXI@Z 1005dbf8 f i nafxcw:afxtoolbarimages.obj
 0001:0005cbf8       ??_G?$CList@PAUHINSTANCE__@@PAU1@@@UAEPAXI@Z 1005dbf8 f i nafxcw:afxtoolbarimages.obj
 0001:0005cc5c       ??_E?$CMap@IIHH@@UAEPAXI@Z 1005dc5c f i nafxcw:afxtoolbarimages.obj
 0001:0005cc5c       ??_G?$CMap@IIHH@@UAEPAXI@Z 1005dc5c f i nafxcw:afxtoolbarimages.obj
 0001:0005ccc0       ??_EBitmap@Gdiplus@@UAEPAXI@Z 1005dcc0 f i nafxcw:afxtoolbarimages.obj
 0001:0005ccc0       ??_EImage@Gdiplus@@UAEPAXI@Z 1005dcc0 f i nafxcw:afxtoolbarimages.obj
 0001:0005ccc0       ??_GImage@Gdiplus@@UAEPAXI@Z 1005dcc0 f i nafxcw:afxtoolbarimages.obj
 0001:0005ccc0       ??_GBitmap@Gdiplus@@UAEPAXI@Z 1005dcc0 f i nafxcw:afxtoolbarimages.obj
 0001:0005ccf9       ??_ECCriticalSection@@UAEPAXI@Z 1005dcf9 f i nafxcw:afxtoolbarimages.obj
 0001:0005ccf9       ??_GCCriticalSection@@UAEPAXI@Z 1005dcf9 f i nafxcw:afxtoolbarimages.obj
 0001:0005cd29       ??_ECImage@ATL@@UAEPAXI@Z  1005dd29 f i nafxcw:afxtoolbarimages.obj
 0001:0005cd29       ??_GCImage@ATL@@UAEPAXI@Z  1005dd29 f i nafxcw:afxtoolbarimages.obj
 0001:0005cd4b       ??_GCMFCToolBarImages@@UAEPAXI@Z 1005dd4b f i nafxcw:afxtoolbarimages.obj
 0001:0005cd4b       ??_ECMFCToolBarImages@@UAEPAXI@Z 1005dd4b f i nafxcw:afxtoolbarimages.obj
 0001:0005cd7e       ??_GCMFCZoomKernel@@UAEPAXI@Z 1005dd7e f i nafxcw:afxtoolbarimages.obj
 0001:0005cd7e       ??_ECMFCZoomKernel@@UAEPAXI@Z 1005dd7e f i nafxcw:afxtoolbarimages.obj
 0001:0005cda6       ?AdaptColors@CMFCToolBarImages@@QAEXKK@Z 1005dda6 f   nafxcw:afxtoolbarimages.obj
 0001:0005d2da       ?AddIcon@CMFCToolBarImages@@QAEHPAUHICON__@@H@Z 1005e2da f   nafxcw:afxtoolbarimages.obj
 0001:0005d479       ?AddImage@CMFCToolBarImages@@QAEHPAUHBITMAP__@@H@Z 1005e479 f   nafxcw:afxtoolbarimages.obj
 0001:0005d84c       ?CleanUp@CMFCToolBarImages@@SGXXZ 1005e84c f   nafxcw:afxtoolbarimages.obj
 0001:0005d87f       ?CleanUp@CPngImage@@SGXXZ  1005e87f f i nafxcw:afxtoolbarimages.obj
 0001:0005d8a7       ?Clear@CMFCToolBarImages@@QAEXXZ 1005e8a7 f   nafxcw:afxtoolbarimages.obj
 0001:0005d952       ?Clone@Image@Gdiplus@@UAEPAV12@XZ 1005e952 f i nafxcw:afxtoolbarimages.obj
 0001:0005d99c       ?CommonInit@CMFCToolBarImages@@QAEXH@Z 1005e99c f   nafxcw:afxtoolbarimages.obj
 0001:0005d9d9       ?CopyImageToClipboard@CMFCToolBarImages@@QAEHH@Z 1005e9d9 f   nafxcw:afxtoolbarimages.obj
 0001:0005db92       ?CopyTemp@CMFCToolBarImages@@IAEXAAV1@@Z 1005eb92 f   nafxcw:afxtoolbarimages.obj
 0001:0005dbe8       ?CopyTo@CMFCToolBarImages@@QAEHAAV1@@Z 1005ebe8 f   nafxcw:afxtoolbarimages.obj
 0001:0005df2d       ?Create@CMFCZoomKernel@@QAEXJJJJW4XFilterType@1@@Z 1005ef2d f   nafxcw:afxtoolbarimages.obj
 0001:0005e1d1       ?CreateEx@CImage@ATL@@QAEHHHHKPBKK@Z 1005f1d1 f i nafxcw:afxtoolbarimages.obj
 0001:0005e2dc       ?CreateFromGdiplusBitmap@CImage@ATL@@AAEJAAVBitmap@Gdiplus@@@Z 1005f2dc f i nafxcw:afxtoolbarimages.obj
 0001:0005e624       ?CreateMask@CMFCToolBarImages@@IAEXHHH@Z 1005f624 f   nafxcw:afxtoolbarimages.obj
 0001:0005e70b       ?CreateRegionFromImage@CMFCToolBarImages@@SGPAUHRGN__@@PAUHBITMAP__@@K@Z 1005f70b f   nafxcw:afxtoolbarimages.obj
 0001:0005e848       ?DecreaseCImageCount@CInitGDIPlus@CImage@ATL@@QAEXXZ 1005f848 f i nafxcw:afxtoolbarimages.obj
 0001:0005e86d       ?Detach@CImage@ATL@@QAEPAUHBITMAP__@@XZ 1005f86d f i nafxcw:afxtoolbarimages.obj
 0001:0005e891       ?Draw@CMFCToolBarImages@@QAEHPAVCDC@@HHHHHHHHE@Z 1005f891 f   nafxcw:afxtoolbarimages.obj
 0001:0005f05e       ?DrawEx@CMFCToolBarImages@@QAEHPAVCDC@@VCRect@@HW4ImageAlignHorz@1@W4ImageAlignVert@1@1E@Z 1006005e f   nafxcw:afxtoolbarimages.obj
 0001:0005f3d0       ?DrawState@CDC@@QAEHVCPoint@@VCSize@@PAUHICON__@@IPAVCBrush@@@Z 100603d0 f i nafxcw:afxtoolbarimages.obj
 0001:0005f409       ?Empty@CMFCZoomKernel@@QAEXXZ 10060409 f   nafxcw:afxtoolbarimages.obj
 0001:0005f44d       ?EnableRTL@CMFCToolBarImages@@SGXH@Z 1006044d f   nafxcw:afxtoolbarimages.obj
 0001:0005f45c       ?EndDrawImage@CMFCToolBarImages@@QAEXAAUtagAFXDrawState@@@Z 1006045c f   nafxcw:afxtoolbarimages.obj
 0001:0005f52b       ?ExtractIconA@CMFCToolBarImages@@QAEPAUHICON__@@H@Z 1006052b f   nafxcw:afxtoolbarimages.obj
 0001:0005f60e       ?FillDitheredRect@CMFCToolBarImages@@SGXPAVCDC@@ABVCRect@@@Z 1006060e f   nafxcw:afxtoolbarimages.obj
 0001:0005f634       ?Find@?$CList@II@@QBEPAU__POSITION@@IPAU2@@Z 10060634 f i nafxcw:afxtoolbarimages.obj
 0001:0005f634       ?Find@?$CList@PAUHWND__@@PAU1@@@QBEPAU__POSITION@@PAUHWND__@@PAU2@@Z 10060634 f i nafxcw:afxtooltipmanager.obj
 0001:0005f666       ?GetDC@CDCCache@CImage@ATL@@QAEPAUHDC__@@XZ 10060666 f i nafxcw:afxtoolbarimages.obj
 0001:0005f681       ?GetDC@CImage@ATL@@QBEPAUHDC__@@XZ 10060681 f i nafxcw:afxtoolbarimages.obj
 0001:0005f6af       ?GetHeight@Image@Gdiplus@@QAEIXZ 100606af f i nafxcw:afxtoolbarimages.obj
 0001:0005f6d3       ?GetPalette@Image@Gdiplus@@QAE?AW4Status@2@PAUColorPalette@2@H@Z 100606d3 f i nafxcw:afxtoolbarimages.obj
 0001:0005f6f7       ?GetPaletteSize@Image@Gdiplus@@QAEHXZ 100606f7 f i nafxcw:afxtoolbarimages.obj
 0001:0005f71b       ?GetPixelFormat@Image@Gdiplus@@QAEHXZ 1006071b f i nafxcw:afxtoolbarimages.obj
 0001:0005f73b       ?GetWidth@Image@Gdiplus@@QAEIXZ 1006073b f i nafxcw:afxtoolbarimages.obj
 0001:0005f75f       ?GrayImages@CMFCToolBarImages@@QAEHH@Z 1006075f f   nafxcw:afxtoolbarimages.obj
 0001:0005fb70       ?IncreaseCImageCount@CInitGDIPlus@CImage@ATL@@QAEXXZ 10060b70 f i nafxcw:afxtoolbarimages.obj
 0001:0005fb8b       ?Init@CCriticalSection@@AAEJXZ 10060b8b f i nafxcw:afxtoolbarimages.obj
 0001:0005fbb1       ?Init@CInitGDIPlus@CImage@ATL@@QAE_NXZ 10060bb1 f i nafxcw:afxtoolbarimages.obj
 0001:0005fc09       ?Initialize@CMFCToolBarImages@@QAEXXZ 10060c09 f   nafxcw:afxtoolbarimages.obj
 0001:0005fcf1       ?IsHighContrastMode@AFX_GLOBAL_DATA@@QBEHXZ 10060cf1 f i nafxcw:afxtoolbarimages.obj
 0001:0005fd07       ?IsScaled@CMFCToolBarImages@@QBEHXZ 10060d07 f i nafxcw:afxtoolbarimages.obj
 0001:0005fd1f       ?Load@CImage@ATL@@QAEJPAUIStream@@@Z 10060d1f f i nafxcw:afxtoolbarimages.obj
 0001:0005fd88       ?Load@CMFCToolBarImages@@QAEHIPAUHINSTANCE__@@H@Z 10060d88 f   nafxcw:afxtoolbarimages.obj
 0001:0005fd9f       ?Load@CMFCToolBarImages@@QAEHPBDK@Z 10060d9f f   nafxcw:afxtoolbarimages.obj
 0001:0006025c       ?Load@CPngImage@@QAEHPBDPAUHINSTANCE__@@@Z 1006125c f   nafxcw:afxtoolbarimages.obj
 0001:000602c0       ?LoadFromBuffer@CPngImage@@QAEHPAEI@Z 100612c0 f   nafxcw:afxtoolbarimages.obj
 0001:000603a2       ?LoadStr@CMFCToolBarImages@@QAEHPBDPAUHINSTANCE__@@H@Z 100613a2 f   nafxcw:afxtoolbarimages.obj
 0001:000605bc       ?Lock@CCriticalSection@@UAEHK@Z 100615bc f i nafxcw:afxtoolbarimages.obj
 0001:000605cc       ?MapBmpTo3dColors@CMFCToolBarImages@@KGHAAPAUHBITMAP__@@HKK@Z 100615cc f   nafxcw:afxtoolbarimages.obj
 0001:000607a3       ?MapFromSysColor@CMFCToolBarImages@@SGKKH@Z 100617a3 f   nafxcw:afxtoolbarimages.obj
 0001:00060822       ?MapTo3dColors@CMFCToolBarImages@@QAEHHKK@Z 10061822 f   nafxcw:afxtoolbarimages.obj
 0001:0006083e       ?MapToSysColor@CMFCToolBarImages@@SGKKH@Z 1006183e f   nafxcw:afxtoolbarimages.obj
 0001:000608c9       ?MapToSysColorAlpha@CMFCToolBarImages@@SGKK@Z 100618c9 f   nafxcw:afxtoolbarimages.obj
 0001:0006098f       ?Mirror@CMFCToolBarImages@@QAEHXZ 1006198f f   nafxcw:afxtoolbarimages.obj
 0001:000609d4       ?MirrorBitmap@CMFCToolBarImages@@SGHAAPAUHBITMAP__@@H@Z 100619d4 f   nafxcw:afxtoolbarimages.obj
 0001:00060c7c       ?MirrorBitmapVert@CMFCToolBarImages@@SGHAAPAUHBITMAP__@@H@Z 10061c7c f   nafxcw:afxtoolbarimages.obj
 0001:00060f14       ?MirrorVert@CMFCToolBarImages@@QAEHXZ 10061f14 f   nafxcw:afxtoolbarimages.obj
 0001:00060f59       ?OnSysColorChange@CMFCToolBarImages@@QAEXXZ 10061f59 f   nafxcw:afxtoolbarimages.obj
 0001:000611a2       ?PreMultiplyAlpha@CMFCToolBarImages@@SGHPAUHBITMAP__@@H@Z 100621a2 f   nafxcw:afxtoolbarimages.obj
 0001:00061268       ?PrepareDrawImage@CMFCToolBarImages@@QAEHAAUtagAFXDrawState@@VCSize@@H@Z 10062268 f   nafxcw:afxtoolbarimages.obj
 0001:00061421       ?ReleaseDC@CDCCache@CImage@ATL@@QAEXPAUHDC__@@@Z 10062421 f i nafxcw:afxtoolbarimages.obj
 0001:00061443       ?ReleaseDC@CImage@ATL@@QBEXXZ 10062443 f i nafxcw:afxtoolbarimages.obj
 0001:0006146d       ?SetColorTable@CImage@ATL@@QAEXIIPBUtagRGBQUAD@@@Z 1006246d f i nafxcw:afxtoolbarimages.obj
 0001:00061496       ?SetSingleImage@CMFCToolBarImages@@QAEXXZ 10062496 f   nafxcw:afxtoolbarimages.obj
 0001:000614d0       ?SinC@@YANN@Z              100624d0 f i nafxcw:afxtoolbarimages.obj
 0001:00061503       ?SmoothResize@CMFCToolBarImages@@QAEHN@Z 10062503 f   nafxcw:afxtoolbarimages.obj
 0001:00061bba       ?TransparentBlt@CMFCToolBarImages@@KGXPAUHDC__@@HHHHPAVCDC@@HHKHH@Z 10062bba f   nafxcw:afxtoolbarimages.obj
 0001:00061e4b       ?Unlock@CCriticalSection@@UAEHXZ 10062e4b f i nafxcw:afxtoolbarimages.obj
 0001:00061e59       ?UpdateBitmapInfo@CImage@ATL@@AAEXW4DIBOrientation@12@@Z 10062e59 f i nafxcw:afxtoolbarimages.obj
 0001:00061f16       ?UpdateCount@CMFCToolBarImages@@IAEXXZ 10062f16 f   nafxcw:afxtoolbarimages.obj
 0001:00061f4b       ?UpdateImage@CMFCToolBarImages@@QAEHHPAUHBITMAP__@@@Z 10062f4b f   nafxcw:afxtoolbarimages.obj
 0001:0006208a       ?_begin@CMFCScanliner@@IBEPAEPAE@Z 1006308a f i nafxcw:afxtoolbarimages.obj
 0001:000620bc       ?_end@CMFCScanliner@@IBEPAEPAE@Z 100630bc f i nafxcw:afxtoolbarimages.obj
 0001:000620f4       ?attach@CMFCScanliner@@QAEXPAEABVCRect@@IIEH@Z 100630f4 f i nafxcw:afxtoolbarimages.obj
 0001:00062187       ?attach@CMFCScanliner@@QAEXPAEABVCSize@@IIEH@Z 10063187 f i nafxcw:afxtoolbarimages.obj
 0001:000621bf       ?attach@CMFCScanlinerBitmap@@QAEXPAUHBITMAP__@@ABVCPoint@@@Z 100631bf f i nafxcw:afxtoolbarimages.obj
 0001:000622ac       ?empty@CMFCScanliner@@IAEXXZ 100632ac f i nafxcw:afxtoolbarimages.obj
 0001:000622cc       _IsolationAwareImageList_GetImageCount@4 100632cc f i nafxcw:afxtoolbarimages.obj
 0001:00062394       _IsolationAwareImageList_GetImageInfo@12 10063394 f i nafxcw:afxtoolbarimages.obj
 0001:00062462       ??0CDialogImpl@@IAE@AAVCWnd@@@Z 10063462 f   nafxcw:afxdialogimpl.obj
 0001:00062477       ??1CDialogImpl@@MAE@XZ     10063477 f   nafxcw:afxdialogimpl.obj
 0001:0006247e       ??_ECDialogImpl@@MAEPAXI@Z 1006347e f i nafxcw:afxdialogimpl.obj
 0001:0006247e       ??_GCDialogImpl@@MAEPAXI@Z 1006347e f i nafxcw:afxdialogimpl.obj
 0001:000624a1       ?DialogMouseHookProc@CDialogImpl@@KGJHIJ@Z 100634a1 f   nafxcw:afxdialogimpl.obj
 0001:0006255e       ?OnActivate@CDialogImpl@@IAEXIPAVCWnd@@@Z 1006355e f   nafxcw:afxdialogimpl.obj
 0001:000625c3       ?OnCommand@CDialogImpl@@IAEHIJ@Z 100635c3 f   nafxcw:afxdialogimpl.obj
 0001:0006261c       ?OnDestroy@CDialogImpl@@IAEXXZ 1006361c f   nafxcw:afxdialogimpl.obj
 0001:00062650       ?OnNcActivate@CDialogImpl@@IAEXAAH@Z 10063650 f   nafxcw:afxdialogimpl.obj
 0001:0006267b       ?PreTranslateMessage@CDialogImpl@@IAEHPAUtagMSG@@@Z 1006367b f   nafxcw:afxdialogimpl.obj
 0001:00062856       ?ProcessMouseClick@CDialogImpl@@IAEHUtagPOINT@@@Z 10063856 f   nafxcw:afxdialogimpl.obj
 0001:00062a33       ?ProcessMouseMove@CDialogImpl@@IAEHUtagPOINT@@@Z 10063a33 f   nafxcw:afxdialogimpl.obj
 0001:00062ad2       ?SetActiveMenu@CDialogImpl@@IAEXPAVCMFCPopupMenu@@@Z 10063ad2 f   nafxcw:afxdialogimpl.obj
 0001:00062b2d       ??0CAccessibilityData@@QAE@XZ 10063b2d f i nafxcw:afxbasepane.obj
 0001:00062baa       ??0CBasePane@@QAE@XZ       10063baa f   nafxcw:afxbasepane.obj
 0001:00062c6a       ??1CAccessibilityData@@QAE@XZ 10063c6a f i nafxcw:afxbasepane.obj
 0001:00062cae       ??1CBasePane@@UAE@XZ       10063cae f   nafxcw:afxbasepane.obj
 0001:00062cca       ??1CSettingsStoreSP@@QAE@XZ 10063cca f i nafxcw:afxbasepane.obj
 0001:00062ce8       ??_ECBasePane@@UAEPAXI@Z   10063ce8 f i nafxcw:afxbasepane.obj
 0001:00062ce8       ??_GCBasePane@@UAEPAXI@Z   10063ce8 f i nafxcw:afxbasepane.obj
 0001:00062d1b       ?AddPane@CBasePane@@QAEXPAV1@@Z 10063d1b f   nafxcw:afxbasepane.obj
 0001:00062dfe       ?AdjustDockingLayout@CBasePane@@UAEXPAX@Z 10063dfe f   nafxcw:afxbasepane.obj
 0001:00062f0c       ?CalcFixedLayout@CBasePane@@UAE?AVCSize@@HH@Z 10063f0c f i nafxcw:afxbasepane.obj
 0001:00062f0c       ?CalcFixedLayout@CControlBar@@UAE?AVCSize@@HH@Z 10063f0c f i nafxcw:barcore.obj
 0001:00062f3f       ?CanBeClosed@CBasePane@@UBEHXZ 10063f3f f i nafxcw:afxbasepane.obj
 0001:00062f49       ?CanFloat@CBasePane@@UBEHXZ 10063f49 f   nafxcw:afxbasepane.obj
 0001:00062fcd       ?Clear@CAccessibilityData@@QAEXXZ 10063fcd f i nafxcw:afxbasepane.obj
 0001:00063038       ?CopyState@CBasePane@@UAEXPAV1@@Z 10064038 f   nafxcw:afxbasepane.obj
 0001:00063109       ?CreateEx@CBasePane@@UAEHKPBD0KABUtagRECT@@PAVCWnd@@IKPAUCCreateContext@@@Z 10064109 f   nafxcw:afxbasepane.obj
 0001:0006332e       ?DoPaint@CBasePane@@MAEXPAVCDC@@@Z 1006432e f   nafxcw:afxbasepane.obj
 0001:000633d3       ?DockPaneUsingRTTI@CBasePane@@QAEXH@Z 100643d3 f   nafxcw:afxbasepane.obj
 0001:000634b7       ?EnableDocking@CBasePane@@UAEXK@Z 100644b7 f i nafxcw:afxbasepane.obj
 0001:000634c7       ?GetCurrentAlignment@CBasePane@@UBEKXZ 100644c7 f   nafxcw:afxbasepane.obj
 0001:000634d3       ?GetDockSiteFrameWnd@CBasePane@@UBEPAVCWnd@@XZ 100644d3 f   nafxcw:afxbasepane.obj
 0001:0006353d       ?GetDockingMode@CBasePane@@UBE?AW4AFX_DOCK_TYPE@@XZ 1006453d f   nafxcw:afxbasepane.obj
 0001:0006354d       ?GetThisMessageMap@CBasePane@@KGPBUAFX_MSGMAP@@XZ 1006454d f   nafxcw:afxbasepane.obj
 0001:0006354d       ?GetMessageMap@CBasePane@@MBEPBUAFX_MSGMAP@@XZ 1006454d f   nafxcw:afxbasepane.obj
 0001:00063553       ?GetParentMiniFrame@CBasePane@@UBEPAVCPaneFrameWnd@@H@Z 10064553 f   nafxcw:afxbasepane.obj
 0001:000635a8       ?GetParentTabWnd@CBasePane@@QBEPAVCMFCBaseTabCtrl@@AAPAUHWND__@@@Z 100645a8 f   nafxcw:afxbasepane.obj
 0001:0006363b       ?GetParentTabbedPane@CBasePane@@QBEPAVCBaseTabbedPane@@XZ 1006463b f   nafxcw:afxbasepane.obj
 0001:00063698       ?GetRuntimeClass@CBasePane@@UBEPAUCRuntimeClass@@XZ 10064698 f   nafxcw:afxbasepane.obj
 0001:0006369e       ?HandleInitDialog@CBasePane@@IAEJIJ@Z 1006469e f   nafxcw:afxbasepane.obj
 0001:000636cd       ?InsertPane@CBasePane@@QAEHPAV1@0H@Z 100646cd f   nafxcw:afxbasepane.obj
 0001:00063821       ?IsDocked@CBasePane@@UBEHXZ 10064821 f   nafxcw:afxbasepane.obj
 0001:00063821       ?IsDocked@CDockablePane@@UBEHXZ 10064821 f   nafxcw:afxdockablepane.obj
 0001:00063864       ?IsFloating@CBasePane@@UBEHXZ 10064864 f i nafxcw:afxbasepane.obj
 0001:00063884       ?IsMDITabbed@CBasePane@@UBEHXZ 10064884 f   nafxcw:afxbasepane.obj
 0001:0006388b       ?IsPointNearDockSite@CBasePane@@QBEHVCPoint@@AAKAAH@Z 1006488b f   nafxcw:afxbasepane.obj
 0001:000639a4       ?IsTabbed@CBasePane@@UBEHXZ 100649a4 f   nafxcw:afxbasepane.obj
 0001:000639c0       ?IsVisible@CBasePane@@UBEHXZ 100649c0 f   nafxcw:afxbasepane.obj
 0001:00063a7f       ?LoadState@CBasePane@@UAEHPBDHI@Z 10064a7f f   nafxcw:afxbasepane.obj
 0001:00063b99       ?MoveWindow@CBasePane@@UAEPAXABVCRect@@HPAX@Z 10064b99 f   nafxcw:afxbasepane.obj
 0001:00063c76       ?OnGetObject@CBasePane@@IAEJIJ@Z 10064c76 f   nafxcw:afxbasepane.obj
 0001:00063cba       ?OnHelpHitTest@CControlBar@@QAEJIJ@Z 10064cba f   nafxcw:barcore.obj
 0001:00063cba       ?OnHelpHitTest@CBasePane@@IAEJIJ@Z 10064cba f   nafxcw:afxbasepane.obj
 0001:00063d10       ?OnIdleUpdateCmdUI@CBasePane@@IAEJIJ@Z 10064d10 f   nafxcw:afxbasepane.obj
 0001:00063d8b       ?OnPaint@CBasePane@@IAEXXZ 10064d8b f   nafxcw:afxbasepane.obj
 0001:00063dff       ?OnPaneContextMenu@CBasePane@@UAEXPAVCWnd@@VCPoint@@@Z 10064dff f   nafxcw:afxbasepane.obj
 0001:00063e5d       ?OnPrintClient@CBasePane@@IAEJPAVCDC@@I@Z 10064e5d f   nafxcw:afxbasepane.obj
 0001:00063ea9       ?OnSetIcon@CBasePane@@IAEPAUHICON__@@HPAU2@@Z 10064ea9 f   nafxcw:afxbasepane.obj
 0001:00063f4c       ?OnSettingChange@CBasePane@@IAEXIPBD@Z 10064f4c f   nafxcw:afxbasepane.obj
 0001:00063f6a       ?OnSize@CBasePane@@IAEXIHH@Z 10064f6a f   nafxcw:afxbasepane.obj
 0001:00063f94       ?PaneFromPoint@CBasePane@@QBEPAV1@VCPoint@@H_NPAUCRuntimeClass@@@Z 10064f94 f   nafxcw:afxbasepane.obj
 0001:000640ba       ?PreTranslateMessage@CBasePane@@UAEHPAUtagMSG@@@Z 100650ba f   nafxcw:afxbasepane.obj
 0001:00064146       ?RemovePaneFromDockManager@CBasePane@@QAEXPAV1@HHH0@Z 10065146 f   nafxcw:afxbasepane.obj
 0001:00064268       ?SaveState@CBasePane@@UAEHPBDHI@Z 10065268 f   nafxcw:afxbasepane.obj
 0001:0006437b       ?Serialize@CBasePane@@UAEXAAVCArchive@@@Z 1006537b f   nafxcw:afxbasepane.obj
 0001:000643e9       ?SetWindowPos@CBasePane@@UAEPAXPBVCWnd@@HHHHIPAX@Z 100653e9 f   nafxcw:afxbasepane.obj
 0001:00064471       ?ShowPane@CBasePane@@UAEXHHH@Z 10065471 f   nafxcw:afxbasepane.obj
 0001:0006469f       ?StretchPane@CBasePane@@UAE?AVCSize@@HH@Z 1006569f f i nafxcw:afxbasepane.obj
 0001:000646b0       ?WindowProc@CBasePane@@MAEJIIJ@Z 100656b0 f   nafxcw:afxbasepane.obj
 0001:0006478a       ?accHitTest@CBasePane@@UAEJJJPAUtagVARIANT@@@Z 1006578a f   nafxcw:afxbasepane.obj
 0001:000647e6       ?accLocation@CBasePane@@UAEJPAJ000UtagVARIANT@@@Z 100657e6 f   nafxcw:afxbasepane.obj
 0001:000648da       ?get_accChild@CBasePane@@UAEJUtagVARIANT@@PAPAUIDispatch@@@Z 100658da f   nafxcw:afxbasepane.obj
 0001:00064904       ?get_accDefaultAction@CBasePane@@UAEJUtagVARIANT@@PAPA_W@Z 10065904 f   nafxcw:afxbasepane.obj
 0001:0006495e       ?get_accDescription@CBasePane@@UAEJUtagVARIANT@@PAPA_W@Z 1006595e f   nafxcw:afxbasepane.obj
 0001:00064a01       ?get_accHelp@CBasePane@@UAEJUtagVARIANT@@PAPA_W@Z 10065a01 f   nafxcw:afxbasepane.obj
 0001:00064a73       ?get_accKeyboardShortcut@CBasePane@@UAEJUtagVARIANT@@PAPA_W@Z 10065a73 f   nafxcw:afxbasepane.obj
 0001:00064af7       ?get_accName@CBasePane@@UAEJUtagVARIANT@@PAPA_W@Z 10065af7 f   nafxcw:afxbasepane.obj
 0001:00064b9a       ?get_accParent@CBasePane@@UAEJPAPAUIDispatch@@@Z 10065b9a f   nafxcw:afxbasepane.obj
 0001:00064bdd       ?get_accRole@CBasePane@@UAEJUtagVARIANT@@PAU2@@Z 10065bdd f   nafxcw:afxbasepane.obj
 0001:00064c44       ?get_accState@CBasePane@@UAEJUtagVARIANT@@PAU2@@Z 10065c44 f   nafxcw:afxbasepane.obj
 0001:00064cc3       ?get_accValue@CBasePane@@UAEJUtagVARIANT@@PAPA_W@Z 10065cc3 f   nafxcw:afxbasepane.obj
 0001:00064d13       ??0CPane@@IAE@XZ           10065d13 f   nafxcw:afxpane.obj
 0001:00064e6f       ??1CPane@@UAE@XZ           10065e6f f   nafxcw:afxpane.obj
 0001:00064ea7       ??_GCPane@@UAEPAXI@Z       10065ea7 f i nafxcw:afxpane.obj
 0001:00064ea7       ??_ECPane@@UAEPAXI@Z       10065ea7 f i nafxcw:afxpane.obj
 0001:00064eda       ?AdjustSizeImmediate@CPane@@UAEXH@Z 10065eda f   nafxcw:afxpane.obj
 0001:00064fed       ?CalcAvailableSize@CPane@@UAE?AVCSize@@VCRect@@@Z 10065fed f   nafxcw:afxpane.obj
 0001:0006509f       ?CalcInsideRect@CPane@@QBEXAAVCRect@@H@Z 1006609f f   nafxcw:afxpane.obj
 0001:000651b0       ?CalcRecentDockedRect@CPane@@QAEXXZ 100661b0 f   nafxcw:afxpane.obj
 0001:0006520f       ?GetRegularSize@CMFCRibbonTab@@UAE?AVCSize@@PAVCDC@@@Z 1006620f f i nafxcw:afxribboncategory.obj
 0001:0006520f       ?GetNcBtnSize@CMFCVisualManager@@UBE?AVCSize@@H@Z 1006620f f i nafxcw:afxvisualmanager.obj
 0001:0006520f       ?GetImageSize@CMFCRibbonBaseElement@@UBE?AVCSize@@W4RibbonImageType@1@@Z 1006620f f i nafxcw:afxbaseribbonelement.obj
 0001:0006520f       ?CalcSize@CPane@@UAE?AVCSize@@H@Z 1006620f f i nafxcw:afxpane.obj
 0001:00065220       ?CanBeTabbedDocument@CPane@@UBEHXZ 10066220 f   nafxcw:afxpane.obj
 0001:00065285       ?CopyState@CPane@@UAEXPAV1@@Z 10066285 f   nafxcw:afxpane.obj
 0001:00065311       ?Create@CPane@@UAEHPBDKABUtagRECT@@PAVCWnd@@IKPAUCCreateContext@@@Z 10066311 f   nafxcw:afxpane.obj
 0001:00065334       ?CreateDefaultMiniframe@CPane@@UAEPAVCPaneFrameWnd@@VCRect@@@Z 10066334 f   nafxcw:afxpane.obj
 0001:000653e9       ?CreateEx@CPane@@UAEHKPBDKABUtagRECT@@PAVCWnd@@IKPAUCCreateContext@@@Z 100663e9 f   nafxcw:afxpane.obj
 0001:0006555d       ?CreateObject@CPane@@SGPAVCObject@@XZ 1006655d f   nafxcw:afxpane.obj
 0001:0006558d       ?Dock@CPane@@MAEHPAVCBasePane@@PBUtagRECT@@W4AFX_DOCK_METHOD@@@Z 1006658d f   nafxcw:afxpane.obj
 0001:0006573a       ?DockByMouse@CPane@@UAEHPAVCBasePane@@@Z 1006673a f   nafxcw:afxpane.obj
 0001:000657a8       ?DockPane@CPane@@UAEHPAVCBasePane@@PBUtagRECT@@W4AFX_DOCK_METHOD@@@Z 100667a8 f   nafxcw:afxpane.obj
 0001:0006581c       ?EnterDragMode@CPane@@MAEXH@Z 1006681c f   nafxcw:afxpane.obj
 0001:000658d4       ?FloatPane@CPane@@UAEHVCRect@@W4AFX_DOCK_METHOD@@_N@Z 100668d4 f   nafxcw:afxpane.obj
 0001:00065e27       ?GetAvailableExpandSize@CPane@@UBEHXZ 10066e27 f   nafxcw:afxpane.obj
 0001:00065f02       ?GetAvailableStretchSize@CPane@@UBEHXZ 10066f02 f   nafxcw:afxpane.obj
 0001:00065f89       ?GetThisMessageMap@CPane@@KGPBUAFX_MSGMAP@@XZ 10066f89 f   nafxcw:afxpane.obj
 0001:00065f89       ?GetMessageMap@CPane@@MBEPBUAFX_MSGMAP@@XZ 10066f89 f   nafxcw:afxpane.obj
 0001:00065f8f       ?GetMinSize@CPane@@UBEXAAVCSize@@@Z 10066f8f f i nafxcw:afxpane.obj
 0001:00065faa       ?GetPaneName@CPane@@UBEXAAV?$CStringT@DV?$StrTraitMFC@DV?$ChTraitsCRT@D@ATL@@@@@ATL@@@Z 10066faa f   nafxcw:afxpane.obj
 0001:00065fc1       ?GetRuntimeClass@CPane@@UBEPAUCRuntimeClass@@XZ 10066fc1 f   nafxcw:afxpane.obj
 0001:00065fc7       ?GetVirtualRect@CPane@@QBEXAAVCRect@@@Z 10066fc7 f   nafxcw:afxpane.obj
 0001:00065ff9       ?IsChangeState@CPane@@UBE?AW4AFX_CS_STATUS@@HPAPAVCBasePane@@@Z 10066ff9 f   nafxcw:afxpane.obj
 0001:000662c4       ?IsLeftOf@CPane@@QBE_NVCRect@@_N@Z 100672c4 f   nafxcw:afxpane.obj
 0001:00066353       ?IsTabbed@CPane@@UBEHXZ    10067353 f   nafxcw:afxpane.obj
 0001:000663ca       ?LoadState@CPane@@UAEHPBDHI@Z 100673ca f   nafxcw:afxpane.obj
 0001:000665cd       ?MoveByAlignment@CPane@@QAEHKH@Z 100675cd f   nafxcw:afxpane.obj
 0001:000666aa       ?MovePane@CPane@@UAE?AVCSize@@VCRect@@HAAPAX@Z 100676aa f   nafxcw:afxpane.obj
 0001:000667f8       ?OnAfterChangeParent@CPane@@UAEXPAVCWnd@@@Z 100677f8 f   nafxcw:afxpane.obj
 0001:0006682f       ?OnAfterFloat@CPane@@UAEXXZ 1006782f f   nafxcw:afxpane.obj
 0001:0006689d       ?OnBeforeChangeParent@CPane@@UAEXPAVCWnd@@H@Z 1006789d f   nafxcw:afxpane.obj
 0001:000668c5       ?OnBeforeDock@CPane@@MAEHPAPAVCBasePane@@PBUtagRECT@@W4AFX_DOCK_METHOD@@@Z 100678c5 f   nafxcw:afxpane.obj
 0001:000668f7       ?OnCancelMode@CPane@@IAEXXZ 100678f7 f   nafxcw:afxpane.obj
 0001:0006697c       ?OnChar@CPane@@IAEXIII@Z   1006797c f   nafxcw:afxpane.obj
 0001:00066999       ?OnContextMenu@CPane@@IAEXPAVCWnd@@VCPoint@@@Z 10067999 f   nafxcw:afxpane.obj
 0001:00066a20       ?OnContinueMoving@CPane@@MAEXXZ 10067a20 f   nafxcw:afxpane.obj
 0001:00066a3d       ?OnDestroy@CPane@@IAEXXZ   10067a3d f   nafxcw:afxpane.obj
 0001:00066ae7       ?OnLButtonDblClk@CPane@@IAEXIVCPoint@@@Z 10067ae7 f   nafxcw:afxpane.obj
 0001:00066b4c       ?OnLButtonDown@CPane@@IAEXIVCPoint@@@Z 10067b4c f   nafxcw:afxpane.obj
 0001:00066c89       ?OnLButtonUp@CPane@@IAEXIVCPoint@@@Z 10067c89 f   nafxcw:afxpane.obj
 0001:00066ea6       ?OnMouseMove@CPane@@IAEXIVCPoint@@@Z 10067ea6 f   nafxcw:afxpane.obj
 0001:00066f83       ?OnNcDestroy@CPane@@IAEXXZ 10067f83 f   nafxcw:afxpane.obj
 0001:00066fcf       ?OnPressCloseButton@CPane@@UAEXXZ 10067fcf f   nafxcw:afxpane.obj
 0001:00067006       ?OnProcessDblClk@CPane@@UAEXXZ 10068006 f   nafxcw:afxpane.obj
 0001:0006707c       ?OnRTLChanged@CPane@@MAEXH@Z 1006807c f   nafxcw:afxpane.obj
 0001:00067101       ?OnShowControlBarMenu@CPane@@UAEHVCPoint@@@Z 10068101 f   nafxcw:afxpane.obj
 0001:00067852       ?OnStyleChanged@CPane@@IAEXHPAUtagSTYLESTRUCT@@@Z 10068852 f   nafxcw:afxpane.obj
 0001:0006789e       ?PrepareToDock@CPane@@UAEXPAVCDockSite@@W4AFX_DOCK_METHOD@@@Z 1006889e f   nafxcw:afxpane.obj
 0001:00067958       ?RecalcLayout@CPane@@UAEXXZ 10068958 f   nafxcw:afxpane.obj
 0001:000679bf       ?RemoveFromMiniframe@CPane@@MAEXPAVCWnd@@W4AFX_DOCK_METHOD@@@Z 100689bf f   nafxcw:afxpane.obj
 0001:00067a9d       ?SaveState@CPane@@UAEHPBDHI@Z 10068a9d f   nafxcw:afxpane.obj
 0001:00067d28       ?SetActiveInGroup@CPane@@UAEXH@Z 10068d28 f   nafxcw:afxpane.obj
 0001:00067d38       ?SetBorders@CPane@@QAEXHHHH@Z 10068d38 f   nafxcw:afxpane.obj
 0001:00067d63       ?SetBorders@CPane@@QAEXPBUtagRECT@@@Z 10068d63 f   nafxcw:afxpane.obj
 0001:00067d90       ?SetDockState@CPane@@UAEXPAVCDockingManager@@@Z 10068d90 f   nafxcw:afxpane.obj
 0001:00067e42       ?SetDragMode@CPane@@MAEXH@Z 10068e42 f   nafxcw:afxpane.obj
 0001:00067e52       ?StoreRecentDockSiteInfo@CPane@@MAEXXZ 10068e52 f   nafxcw:afxpane.obj
 0001:00067e85       ?StretchPaneDeferWndPos@CPane@@UAEHHAAPAX@Z 10068e85 f   nafxcw:afxpane.obj
 0001:00067fb9       ?UndockPane@CPane@@UAEXH@Z 10068fb9 f   nafxcw:afxpane.obj
 0001:00068005       ?UpdateVirtualRect@CPane@@QAEXVCPoint@@@Z 10069005 f   nafxcw:afxpane.obj
 0001:00068068       ?UpdateVirtualRect@CPane@@QAEXVCSize@@@Z 10069068 f   nafxcw:afxpane.obj
 0001:000680c9       ?UpdateVirtualRect@CPane@@QAEXXZ 100690c9 f   nafxcw:afxpane.obj
 0001:0006815f       ??$SerializeElements@VCSize@@@@YGXAAVCArchive@@PAVCSize@@H@Z 1006915f f i nafxcw:afxvisualmanageroffice2007.obj
 0001:0006815f       ??$SerializeElements@UtagPOINT@@@@YGXAAVCArchive@@PAUtagPOINT@@H@Z 1006915f f i nafxcw:afxvisualmanager.obj
 0001:00068201       ??0?$CList@UtagPOINT@@U1@@@QAE@H@Z 10069201 f i nafxcw:afxvisualmanager.obj
 0001:00068227       ??0CMFCBaseVisualManager@@QAE@XZ 10069227 f   nafxcw:afxvisualmanager.obj
 0001:00068274       ??0CMFCToolTipInfo@@QAE@XZ 10069274 f i nafxcw:afxvisualmanager.obj
 0001:000682a9       ??0CMFCVisualManager@@QAE@H@Z 100692a9 f   nafxcw:afxvisualmanager.obj
 0001:000683b6       ??1?$CList@UtagPOINT@@U1@@@UAE@XZ 100693b6 f i nafxcw:afxvisualmanager.obj
 0001:000683f0       ??1CMFCBaseVisualManager@@UAE@XZ 100693f0 f   nafxcw:afxvisualmanager.obj
 0001:000683fb       ??1CMFCVisualManager@@UAE@XZ 100693fb f   nafxcw:afxvisualmanager.obj
 0001:00068413       ??4CMFCToolTipInfo@@QAEAAV0@AAV0@@Z 10069413 f i nafxcw:afxvisualmanager.obj
 0001:0006846b       ??_E?$CList@UtagPOINT@@U1@@@UAEPAXI@Z 1006946b f i nafxcw:afxvisualmanager.obj
 0001:0006846b       ??_G?$CList@UtagPOINT@@U1@@@UAEPAXI@Z 1006946b f i nafxcw:afxvisualmanager.obj
 0001:000684cf       ??_GCMFCBaseVisualManager@@UAEPAXI@Z 100694cf f i nafxcw:afxvisualmanager.obj
 0001:000684cf       ??_ECMFCBaseVisualManager@@UAEPAXI@Z 100694cf f i nafxcw:afxvisualmanager.obj
 0001:00068505       ??_GCMFCVisualManager@@UAEPAXI@Z 10069505 f i nafxcw:afxvisualmanager.obj
 0001:00068505       ??_ECMFCVisualManager@@UAEPAXI@Z 10069505 f i nafxcw:afxvisualmanager.obj
 0001:00068538       ?AddHead@?$CList@UtagPOINT@@U1@@@QAEPAU__POSITION@@UtagPOINT@@@Z 10069538 f i nafxcw:afxvisualmanager.obj
 0001:0006856b       ?AddTail@?$CList@UtagPOINT@@U1@@@QAEPAU__POSITION@@UtagPOINT@@@Z 1006956b f i nafxcw:afxvisualmanager.obj
 0001:0006859d       ?AdjustFrames@CMFCVisualManager@@SGXXZ 1006959d f   nafxcw:afxvisualmanager.obj
 0001:000685d4       ?AdjustToolbars@CMFCVisualManager@@SGXXZ 100695d4 f   nafxcw:afxvisualmanager.obj
 0001:00068620       ?CleanUpThemes@CMFCBaseVisualManager@@IAEXXZ 10069620 f   nafxcw:afxvisualmanager.obj
 0001:00068742       ?CreateObject@CMFCVisualManager@@SGPAVCObject@@XZ 10069742 f   nafxcw:afxvisualmanager.obj
 0001:00068773       ?DoDrawHeaderSortArrow@CMFCVisualManager@@QAEXPAVCDC@@VCRect@@HH@Z 10069773 f   nafxcw:afxvisualmanager.obj
 0001:00068895       ?DrawCheckBox@CMFCBaseVisualManager@@UAEHPAVCDC@@VCRect@@HHHH@Z 10069895 f   nafxcw:afxvisualmanager.obj
 0001:00068958       ?DrawComboBorder@CMFCBaseVisualManager@@UAEHPAVCDC@@VCRect@@HHH@Z 10069958 f   nafxcw:afxvisualmanager.obj
 0001:000689a6       ?DrawComboDropButtonWinXP@CMFCVisualManager@@UAEHPAVCDC@@VCRect@@HHH@Z 100699a6 f i nafxcw:afxvisualmanager.obj
 0001:000689a6       ?DrawComboBorderWinXP@CMFCVisualManager@@UAEHPAVCDC@@VCRect@@HHH@Z 100699a6 f i nafxcw:afxvisualmanager.obj
 0001:000689ab       ?DrawComboDropButton@CMFCBaseVisualManager@@UAEHPAVCDC@@VCRect@@HHH@Z 100699ab f   nafxcw:afxvisualmanager.obj
 0001:000689ff       ?DrawPushButton@CMFCBaseVisualManager@@UAEHPAVCDC@@VCRect@@PAVCMFCButton@@I@Z 100699ff f   nafxcw:afxvisualmanager.obj
 0001:00068ae0       ?DrawPushButtonWinXP@CMFCVisualManager@@UAEHPAVCDC@@VCRect@@PAVCMFCButton@@I@Z 10069ae0 f i nafxcw:afxvisualmanager.obj
 0001:00068ae5       ?DrawRadioButton@CMFCBaseVisualManager@@UAEHPAVCDC@@VCRect@@HHHH@Z 10069ae5 f   nafxcw:afxvisualmanager.obj
 0001:00068b68       ?DrawState@CDC@@QAEHVCPoint@@VCSize@@PAUHICON__@@IPAUHBRUSH__@@@Z 10069b68 f i nafxcw:afxvisualmanager.obj
 0001:00068b95       ?DrawStatusBarProgress@CMFCBaseVisualManager@@UAEHPAVCDC@@PAVCMFCStatusBar@@VCRect@@HHKKKH@Z 10069b95 f   nafxcw:afxvisualmanager.obj
 0001:00068cc9       ?DrawTextOnGlass@CMFCVisualManager@@UAEHPAVCDC@@V?$CStringT@DV?$StrTraitMFC@DV?$ChTraitsCRT@D@ATL@@@@@ATL@@VCRect@@KHK@Z 10069cc9 f   nafxcw:afxvisualmanager.obj
 0001:00068d78       ?Ellipse@CDC@@QAEHPBUtagRECT@@@Z 10069d78 f i nafxcw:afxvisualmanager.obj
 0001:00068d96       ?FillReBarPane@CMFCBaseVisualManager@@UAEXPAVCDC@@PAVCBasePane@@VCRect@@@Z 10069d96 f   nafxcw:afxvisualmanager.obj
 0001:00068f11       ?GetRibbonStatusBarTextColor@CMFCVisualManager@@UAEKPAVCMFCRibbonStatusBar@@@Z 10069f11 f   nafxcw:afxvisualmanager.obj
 0001:00068f11       ?GetAutoHideButtonTextColor@CMFCVisualManager@@UAEKPAVCMFCAutoHideButton@@@Z 10069f11 f   nafxcw:afxvisualmanager.obj
 0001:00068f1c       ?GetCaptionButtonExtraBorder@CMFCVisualManager@@UBE?AVCSize@@XZ 10069f1c f i nafxcw:afxvisualmanager.obj
 0001:00068f1c       ?GetButtonExtraBorder@CMFCVisualManager@@UBE?AVCSize@@XZ 10069f1c f i nafxcw:afxvisualmanager.obj
 0001:00068f2d       ?GetCaptionBarTextColor@CMFCVisualManager@@UAEKPAVCMFCCaptionBar@@@Z 10069f2d f   nafxcw:afxvisualmanager.obj
 0001:00068f52       ?GetHighlightedMenuItemTextColor@CMFCVisualManager@@UAEKPAVCMFCToolBarMenuButton@@@Z 10069f52 f   nafxcw:afxvisualmanager.obj
 0001:00068f77       ?GetMenuImageFrameOffset@CMFCVisualManager@@UBE?AVCRect@@XZ 10069f77 f i nafxcw:afxvisualmanager.obj
 0001:00068f94       ?GetGroupOffset@CMFCRibbonColorButton@@MBEHXZ 10069f94 f i nafxcw:afxribboncolorbutton.obj
 0001:00068f94       ?GetMenuImageMargin@CMFCVisualManager@@UBEHXZ 10069f94 f i nafxcw:afxvisualmanager.obj
 0001:00068f94       ?GetToolBarCustomizeButtonMargin@CMFCVisualManager@@UBEHXZ 10069f94 f i nafxcw:afxvisualmanager.obj
 0001:00068f98       ?GetMenuItemTextColor@CMFCVisualManager@@UAEKPAVCMFCToolBarMenuButton@@HH@Z 10069f98 f   nafxcw:afxvisualmanager.obj
 0001:00068fc8       ?GetNotifyID@CMFCRibbonBaseElement@@UAEIXZ 10069fc8 f i nafxcw:afxbaseribbonelement.obj
 0001:00068fc8       ?GetQuickAccessToolBarID@CMFCRibbonBaseElement@@UBEIXZ 10069fc8 f i nafxcw:afxbaseribbonelement.obj
 0001:00068fc8       ?GetPopupMenuBorderSize@CMFCVisualManager@@UBEHXZ 10069fc8 f i nafxcw:afxvisualmanager.obj
 0001:00068fcf       ?GetPropertyGridGroupColor@CMFCVisualManager@@UAEKPAVCMFCPropertyGridCtrl@@@Z 10069fcf f   nafxcw:afxvisualmanager.obj
 0001:00068ff4       ?GetPropertyGridGroupTextColor@CMFCVisualManager@@UAEKPAVCMFCPropertyGridCtrl@@@Z 10069ff4 f   nafxcw:afxvisualmanager.obj
 0001:00069019       ?GetRibbonEditBackgroundColor@CMFCVisualManager@@UAEKPAVCMFCRibbonRichEditCtrl@@HHH@Z 1006a019 f   nafxcw:afxvisualmanager.obj
 0001:0006903e       ?GetRibbonHyperlinkTextColor@CMFCVisualManager@@UAEKPAVCMFCRibbonLinkCtrl@@@Z 1006a03e f   nafxcw:afxvisualmanager.obj
 0001:000690a8       ?GetRibbonPopupBorderSize@CMFCVisualManager@@UBEHPBVCMFCRibbonPanelMenu@@@Z 1006a0a8 f i nafxcw:afxvisualmanager.obj
 0001:000690b1       ?GetRibbonQuickAccessToolBarTextColor@CMFCVisualManager@@UAEKH@Z 1006a0b1 f i nafxcw:afxvisualmanager.obj
 0001:000690dd       ?GetRibbonSliderColors@CMFCVisualManager@@UAEXPAVCMFCRibbonSlider@@HHHAAK1@Z 1006a0dd f   nafxcw:afxvisualmanager.obj
 0001:0006911f       ?GetRuntimeClass@CMFCVisualManager@@UBEPAUCRuntimeClass@@XZ 1006a11f f   nafxcw:afxvisualmanager.obj
 0001:00069125       ?GetShowAllMenuItemsHeight@CMFCVisualManager@@UAEHPAVCDC@@ABVCSize@@@Z 1006a125 f   nafxcw:afxvisualmanager.obj
 0001:0006913d       ?GetSmartDockingBaseGuideColors@CMFCVisualManager@@UAEXAAK0@Z 1006a13d f   nafxcw:afxvisualmanager.obj
 0001:0006915e       ?GetSmartDockingHighlightToneColor@CMFCVisualManager@@UAEKXZ 1006a15e f   nafxcw:afxvisualmanager.obj
 0001:00069167       ?GetStandardWindowsTheme@CMFCBaseVisualManager@@UAE?AW4WinXpTheme@1@XZ 1006a167 f   nafxcw:afxvisualmanager.obj
 0001:00069351       ?GetStatusBarPaneTextColor@CMFCVisualManager@@UAEKPAVCMFCStatusBar@@PAVCMFCStatusBarPaneInfo@@@Z 1006a351 f   nafxcw:afxvisualmanager.obj
 0001:00069388       ?GetTabFrameColors@CMFCVisualManager@@UAEXPBVCMFCBaseTabCtrl@@AAK11111AAPAVCBrush@@2@Z 1006a388 f   nafxcw:afxvisualmanager.obj
 0001:000694f9       ?GetTabTextColor@CMFCVisualManager@@UAEKPBVCMFCBaseTabCtrl@@HH@Z 1006a4f9 f i nafxcw:afxvisualmanager.obj
 0001:000694ff       ?GetToolTipInfo@CMFCVisualManager@@UAEHAAVCMFCToolTipInfo@@I@Z 1006a4ff f   nafxcw:afxvisualmanager.obj
 0001:00069520       ?GetToolbarButtonTextColor@CMFCVisualManager@@UAEKPAVCMFCToolBarButton@@W4AFX_BUTTON_STATE@1@@Z 1006a520 f   nafxcw:afxvisualmanager.obj
 0001:000695cb       ?GetToolbarDisabledTextColor@CMFCVisualManager@@UAEKXZ 1006a5cb f   nafxcw:afxvisualmanager.obj
 0001:000695d4       ?GetToolbarHighlightColor@CMFCVisualManager@@UAEKXZ 1006a5d4 f   nafxcw:afxvisualmanager.obj
 0001:000695dd       ?InsertAfter@?$CList@UtagPOINT@@U1@@@QAEPAU__POSITION@@PAU2@UtagPOINT@@@Z 1006a5dd f i nafxcw:afxvisualmanager.obj
 0001:00069622       ?InsertBefore@?$CList@UtagPOINT@@U1@@@QAEPAU__POSITION@@PAU2@UtagPOINT@@@Z 1006a622 f i nafxcw:afxvisualmanager.obj
 0001:00069669       ?IsFirstTab@CMFCBaseTabCtrl@@QBEHH@Z 1006a669 f i nafxcw:afxvisualmanager.obj
 0001:0006969f       ?IsPressed@CMFCButton@@QBEHXZ 1006a69f f i nafxcw:afxvisualmanager.obj
 0001:000696b3       ?MakeLower@?$CStringT@DV?$StrTraitMFC@DV?$ChTraitsCRT@D@ATL@@@@@ATL@@QAEAAV12@XZ 1006a6b3 f i nafxcw:afxvisualmanager.obj
 0001:000696db       ?NewNode@?$CList@UtagPOINT@@U1@@@IAEPAUCNode@1@PAU21@0@Z 1006a6db f i nafxcw:afxvisualmanager.obj
 0001:0006973c       ?OnDrawAutoHideButtonBorder@CMFCVisualManager@@UAEXPAVCDC@@VCRect@@1PAVCMFCAutoHideButton@@@Z 1006a73c f   nafxcw:afxvisualmanager.obj
 0001:000697e1       ?OnDrawBarGripper@CMFCVisualManager@@UAEXPAVCDC@@VCRect@@HPAVCBasePane@@@Z 1006a7e1 f   nafxcw:afxvisualmanager.obj
 0001:0006988e       ?OnDrawBrowseButton@CMFCVisualManager@@UAEHPAVCDC@@VCRect@@PAVCMFCEditBrowseCtrl@@W4AFX_BUTTON_STATE@1@AAK@Z 1006a88e f   nafxcw:afxvisualmanager.obj
 0001:00069935       ?OnDrawButtonBorder@CMFCVisualManager@@UAEXPAVCDC@@PAVCMFCToolBarButton@@VCRect@@W4AFX_BUTTON_STATE@1@@Z 1006a935 f   nafxcw:afxvisualmanager.obj
 0001:00069992       ?OnDrawButtonSeparator@CMFCVisualManager@@UAEXPAVCDC@@PAVCMFCToolBarButton@@VCRect@@W4AFX_BUTTON_STATE@1@H@Z 1006a992 f   nafxcw:afxvisualmanager.obj
 0001:000699eb       ?OnDrawCaptionBarBorder@CMFCVisualManager@@UAEXPAVCDC@@PAVCMFCCaptionBar@@VCRect@@KH@Z 1006a9eb f   nafxcw:afxvisualmanager.obj
 0001:00069a89       ?OnDrawCaptionBarButtonBorder@CMFCVisualManager@@UAEXPAVCDC@@PAVCMFCCaptionBar@@VCRect@@HHHHH@Z 1006aa89 f   nafxcw:afxvisualmanager.obj
 0001:00069ada       ?OnDrawCaptionBarInfoArea@CMFCVisualManager@@UAEXPAVCDC@@PAVCMFCCaptionBar@@VCRect@@@Z 1006aada f   nafxcw:afxvisualmanager.obj
 0001:00069b4b       ?OnDrawCaptionButton@CMFCVisualManager@@UAEXPAVCDC@@PAVCMFCCaptionButton@@HHHHH@Z 1006ab4b f   nafxcw:afxvisualmanager.obj
 0001:00069ca2       ?OnDrawCheckBox@CMFCVisualManager@@UAEXPAVCDC@@VCRect@@HHH@Z 1006aca2 f   nafxcw:afxvisualmanager.obj
 0001:00069ce5       ?OnDrawCheckBoxEx@CMFCVisualManager@@UAEXPAVCDC@@VCRect@@HHHH@Z 1006ace5 f   nafxcw:afxvisualmanager.obj
 0001:00069e71       ?OnDrawComboBorder@CMFCVisualManager@@UAEXPAVCDC@@VCRect@@HHHPAVCMFCToolBarComboBoxButton@@@Z 1006ae71 f   nafxcw:afxvisualmanager.obj
 0001:00069efa       ?OnDrawComboDropButton@CMFCVisualManager@@UAEXPAVCDC@@VCRect@@HHHPAVCMFCToolBarComboBoxButton@@@Z 1006aefa f   nafxcw:afxvisualmanager.obj
 0001:0006a040       ?OnDrawControlBorder@CMFCVisualManager@@UAEXPAVCWnd@@@Z 1006b040 f   nafxcw:afxvisualmanager.obj
 0001:0006a0fd       ?OnDrawDefaultRibbonImage@CMFCVisualManager@@UAEXPAVCDC@@VCRect@@HHH@Z 1006b0fd f   nafxcw:afxvisualmanager.obj
 0001:0006a22d       ?OnDrawEditBorder@CMFCVisualManager@@UAEXPAVCDC@@VCRect@@HHPAVCMFCToolBarEditBoxButton@@@Z 1006b22d f   nafxcw:afxvisualmanager.obj
 0001:0006a24e       ?OnDrawExpandingBox@CMFCVisualManager@@UAEXPAVCDC@@VCRect@@HK@Z 1006b24e f   nafxcw:afxvisualmanager.obj
 0001:0006a31f       ?OnDrawFloatingToolbarBorder@CMFCVisualManager@@UAEXPAVCDC@@PAVCMFCBaseToolBar@@VCRect@@2@Z 1006b31f f   nafxcw:afxvisualmanager.obj
 0001:0006a398       ?OnDrawHeaderCtrlBorder@CMFCVisualManager@@UAEXPAVCMFCHeaderCtrl@@PAVCDC@@AAVCRect@@HH@Z 1006b398 f   nafxcw:afxvisualmanager.obj
 0001:0006a41c       ?OnDrawHeaderCtrlSortArrow@CMFCVisualManager@@UAEXPAVCMFCHeaderCtrl@@PAVCDC@@AAVCRect@@H@Z 1006b41c f   nafxcw:afxvisualmanager.obj
 0001:0006a447       ?OnDrawMenuArrowOnCustomizeList@CMFCVisualManager@@UAEXPAVCDC@@VCRect@@H@Z 1006b447 f   nafxcw:afxvisualmanager.obj
 0001:0006a4ec       ?OnDrawMenuBorder@CMFCVisualManager@@UAEXPAVCDC@@PAVCMFCPopupMenu@@VCRect@@@Z 1006b4ec f   nafxcw:afxvisualmanager.obj
 0001:0006a53c       ?OnDrawMenuCheck@CMFCVisualManager@@UAEXPAVCDC@@PAVCMFCToolBarMenuButton@@VCRect@@HH@Z 1006b53c f   nafxcw:afxvisualmanager.obj
 0001:0006a579       ?OnDrawMenuItemButton@CMFCVisualManager@@UAEXPAVCDC@@PAVCMFCToolBarMenuButton@@VCRect@@HH@Z 1006b579 f   nafxcw:afxvisualmanager.obj
 0001:0006a5e9       ?OnDrawMenuLabel@CMFCVisualManager@@UAEKPAVCDC@@VCRect@@@Z 1006b5e9 f   nafxcw:afxvisualmanager.obj
 0001:0006a663       ?OnDrawMenuResizeBar@CMFCVisualManager@@UAEXPAVCDC@@VCRect@@H@Z 1006b663 f   nafxcw:afxvisualmanager.obj
 0001:0006a685       ?OnDrawMenuScrollButton@CMFCVisualManager@@UAEXPAVCDC@@VCRect@@HHHH@Z 1006b685 f   nafxcw:afxvisualmanager.obj
 0001:0006a727       ?OnDrawMenuShadow@CMFCVisualManager@@UAEXPAVCDC@@ABVCRect@@1HHHPAVCBitmap@@2H@Z 1006b727 f   nafxcw:afxvisualmanager.obj
 0001:0006a780       ?OnDrawMenuSystemButton@CMFCVisualManager@@UAEXPAVCDC@@VCRect@@IIH@Z 1006b780 f   nafxcw:afxvisualmanager.obj
 0001:0006a7d8       ?OnDrawMiniFrameBorder@CMFCVisualManager@@UAEXPAVCDC@@PAVCPaneFrameWnd@@VCRect@@2@Z 1006b7d8 f   nafxcw:afxvisualmanager.obj
 0001:0006a8d1       ?OnDrawOutlookBarSplitter@CMFCVisualManager@@UAEXPAVCDC@@VCRect@@@Z 1006b8d1 f   nafxcw:afxvisualmanager.obj
 0001:0006a915       ?OnDrawOutlookPageButtonBorder@CMFCVisualManager@@UAEXPAVCDC@@AAVCRect@@HH@Z 1006b915 f   nafxcw:afxvisualmanager.obj
 0001:0006a9b7       ?OnDrawPaneBorder@CMFCVisualManager@@UAEXPAVCDC@@PAVCBasePane@@AAVCRect@@@Z 1006b9b7 f   nafxcw:afxvisualmanager.obj
 0001:0006ab6d       ?OnDrawPaneCaption@CMFCVisualManager@@UAEKPAVCDC@@PAVCDockablePane@@HVCRect@@2@Z 1006bb6d f   nafxcw:afxvisualmanager.obj
 0001:0006abdd       ?OnDrawPaneDivider@CMFCVisualManager@@UAEXPAVCDC@@PAVCPaneDivider@@VCRect@@H@Z 1006bbdd f   nafxcw:afxvisualmanager.obj
 0001:0006acf9       ?OnDrawPopupWindowBorder@CMFCVisualManager@@UAEXPAVCDC@@VCRect@@@Z 1006bcf9 f   nafxcw:afxvisualmanager.obj
 0001:0006ad49       ?OnDrawPopupWindowButtonBorder@CMFCVisualManager@@UAEXPAVCDC@@VCRect@@PAVCMFCDesktopAlertWndButton@@@Z 1006bd49 f   nafxcw:afxvisualmanager.obj
 0001:0006ade4       ?OnDrawPopupWindowCaption@CMFCVisualManager@@UAEKPAVCDC@@VCRect@@PAVCMFCDesktopAlertWnd@@@Z 1006bde4 f   nafxcw:afxvisualmanager.obj
 0001:0006ae38       ?OnDrawPropertySheetListItem@CMFCVisualManager@@UAEKPAVCDC@@PAVCMFCPropertySheet@@VCRect@@HH@Z 1006be38 f   nafxcw:afxvisualmanager.obj
 0001:0006ae89       ?OnDrawRibbonApplicationButton@CMFCVisualManager@@UAEXPAVCDC@@PAVCMFCRibbonButton@@@Z 1006be89 f   nafxcw:afxvisualmanager.obj
 0001:0006af74       ?OnDrawRibbonButtonBorder@CMFCVisualManager@@UAEXPAVCDC@@PAVCMFCRibbonButton@@@Z 1006bf74 f   nafxcw:afxvisualmanager.obj
 0001:0006b1dd       ?OnDrawRibbonButtonsGroup@CMFCVisualManager@@UAEKPAVCDC@@PAVCMFCRibbonButtonsGroup@@VCRect@@@Z 1006c1dd f   nafxcw:afxvisualmanager.obj
 0001:0006b1e3       ?OnDrawRibbonCaption@CMFCVisualManager@@UAEXPAVCDC@@PAVCMFCRibbonBar@@VCRect@@2@Z 1006c1e3 f   nafxcw:afxvisualmanager.obj
 0001:0006b458       ?OnDrawRibbonCaptionButton@CMFCVisualManager@@UAEXPAVCDC@@PAVCMFCRibbonCaptionButton@@@Z 1006c458 f   nafxcw:afxvisualmanager.obj
 0001:0006b52b       ?OnDrawRibbonCategory@CMFCVisualManager@@UAEXPAVCDC@@PAVCMFCRibbonCategory@@VCRect@@@Z 1006c52b f   nafxcw:afxvisualmanager.obj
 0001:0006b669       ?OnDrawRibbonCategoryCaption@CMFCVisualManager@@UAEKPAVCDC@@PAVCMFCRibbonContextCaption@@@Z 1006c669 f   nafxcw:afxvisualmanager.obj
 0001:0006b6f4       ?OnDrawRibbonCategoryScroll@CMFCVisualManager@@UAEXPAVCDC@@PAVCRibbonCategoryScroll@@@Z 1006c6f4 f   nafxcw:afxvisualmanager.obj
 0001:0006b7e7       ?OnDrawRibbonCategoryTab@CMFCVisualManager@@UAEKPAVCDC@@PAVCMFCRibbonTab@@H@Z 1006c7e7 f   nafxcw:afxvisualmanager.obj
 0001:0006bb64       ?OnDrawRibbonCheckBoxOnList@CMFCVisualManager@@UAEXPAVCDC@@PAVCMFCRibbonCheckBox@@VCRect@@HH@Z 1006cb64 f   nafxcw:afxvisualmanager.obj
 0001:0006bbc1       ?OnDrawRibbonColorPaletteBox@CMFCVisualManager@@UAEXPAVCDC@@PAVCMFCRibbonColorButton@@PAVCMFCRibbonGalleryIcon@@KVCRect@@HHHHH@Z 1006cbc1 f   nafxcw:afxvisualmanager.obj
 0001:0006bd7d       ?OnDrawRibbonDefaultPaneButton@CMFCVisualManager@@UAEXPAVCDC@@PAVCMFCRibbonButton@@@Z 1006cd7d f   nafxcw:afxvisualmanager.obj
 0001:0006bde8       ?OnDrawRibbonDefaultPaneButtonContext@CMFCVisualManager@@UAEXPAVCDC@@PAVCMFCRibbonButton@@@Z 1006cde8 f   nafxcw:afxvisualmanager.obj
 0001:0006be90       ?OnDrawRibbonDefaultPaneButtonIndicator@CMFCVisualManager@@UAEXPAVCDC@@PAVCMFCRibbonButton@@VCRect@@HH@Z 1006ce90 f   nafxcw:afxvisualmanager.obj
 0001:0006bf4f       ?OnDrawRibbonGalleryBorder@CMFCVisualManager@@UAEXPAVCDC@@PAVCMFCRibbonGallery@@VCRect@@@Z 1006cf4f f   nafxcw:afxvisualmanager.obj
 0001:0006bf76       ?OnDrawRibbonGalleryButton@CMFCVisualManager@@UAEXPAVCDC@@PAVCMFCRibbonGalleryIcon@@@Z 1006cf76 f   nafxcw:afxvisualmanager.obj
 0001:0006bfb7       ?OnDrawRibbonKeyTip@CMFCVisualManager@@UAEXPAVCDC@@PAVCMFCRibbonBaseElement@@VCRect@@V?$CStringT@DV?$StrTraitMFC@DV?$ChTraitsCRT@D@ATL@@@@@ATL@@@Z 1006cfb7 f   nafxcw:afxvisualmanager.obj
 0001:0006c108       ?DrawImage@CMFCRibbonBaseElement@@UAEXPAVCDC@@W4RibbonImageType@1@VCRect@@@Z 1006d108 f   nafxcw:afxbaseribbonelement.obj
 0001:0006c108       ?OnFillTasksGroupInterior@CMFCVisualManager@@UAEXPAVCDC@@VCRect@@H@Z 1006d108 f   nafxcw:afxvisualmanager.obj
 0001:0006c108       ?OnDrawRibbonLabel@CMFCVisualManager@@UAEXPAVCDC@@PAVCMFCRibbonLabel@@VCRect@@@Z 1006d108 f   nafxcw:afxvisualmanager.obj
 0001:0006c10b       ?OnDrawRibbonLaunchButton@CMFCVisualManager@@UAEXPAVCDC@@PAVCMFCRibbonLaunchButton@@PAVCMFCRibbonPanel@@@Z 1006d10b f   nafxcw:afxvisualmanager.obj
 0001:0006c207       ?OnDrawRibbonMainPanelButtonBorder@CMFCVisualManager@@UAEXPAVCDC@@PAVCMFCRibbonButton@@@Z 1006d207 f   nafxcw:afxvisualmanager.obj
 0001:0006c22e       ?OnDrawRibbonMainPanelFrame@CMFCVisualManager@@UAEXPAVCDC@@PAVCMFCRibbonMainPanel@@VCRect@@@Z 1006d22e f   nafxcw:afxvisualmanager.obj
 0001:0006c27e       ?OnDrawRibbonMenuCheckFrame@CMFCVisualManager@@UAEXPAVCDC@@PAVCMFCRibbonButton@@VCRect@@@Z 1006d27e f   nafxcw:afxvisualmanager.obj
 0001:0006c2c2       ?OnDrawRibbonPanel@CMFCVisualManager@@UAEKPAVCDC@@PAVCMFCRibbonPanel@@VCRect@@2@Z 1006d2c2 f   nafxcw:afxvisualmanager.obj
 0001:0006c3c7       ?OnDrawRibbonPanelCaption@CMFCVisualManager@@UAEXPAVCDC@@PAVCMFCRibbonPanel@@VCRect@@@Z 1006d3c7 f   nafxcw:afxvisualmanager.obj
 0001:0006c4cc       ?OnDrawRibbonProgressBar@CMFCVisualManager@@UAEXPAVCDC@@PAVCMFCRibbonProgressBar@@VCRect@@2H@Z 1006d4cc f   nafxcw:afxvisualmanager.obj
 0001:0006c583       ?OnDrawRibbonQuickAccessToolBarSeparator@CMFCVisualManager@@UAEXPAVCDC@@PAVCMFCRibbonSeparator@@VCRect@@@Z 1006d583 f   nafxcw:afxvisualmanager.obj
 0001:0006c5eb       ?OnDrawRibbonRecentFilesFrame@CMFCVisualManager@@UAEXPAVCDC@@PAVCMFCRibbonMainPanel@@VCRect@@@Z 1006d5eb f   nafxcw:afxvisualmanager.obj
 0001:0006c65d       ?OnDrawRibbonSliderChannel@CMFCVisualManager@@UAEXPAVCDC@@PAVCMFCRibbonSlider@@VCRect@@@Z 1006d65d f   nafxcw:afxvisualmanager.obj
 0001:0006c6d3       ?OnDrawRibbonSliderThumb@CMFCVisualManager@@UAEXPAVCDC@@PAVCMFCRibbonSlider@@VCRect@@HHH@Z 1006d6d3 f   nafxcw:afxvisualmanager.obj
 0001:0006c836       ?OnDrawRibbonSliderZoomButton@CMFCVisualManager@@UAEXPAVCDC@@PAVCMFCRibbonSlider@@VCRect@@HHHH@Z 1006d836 f   nafxcw:afxvisualmanager.obj
 0001:0006c98e       ?OnDrawRibbonStatusBarPane@CMFCVisualManager@@UAEKPAVCDC@@PAVCMFCRibbonStatusBar@@PAVCMFCRibbonStatusBarPane@@@Z 1006d98e f   nafxcw:afxvisualmanager.obj
 0001:0006ca5a       ?OnDrawRibbonTabsFrame@CMFCVisualManager@@UAEKPAVCDC@@PAVCMFCRibbonBar@@VCRect@@@Z 1006da5a f   nafxcw:afxvisualmanager.obj
 0001:0006cad9       ?OnDrawScrollButtons@CMFCVisualManager@@UAEXPAVCDC@@ABVCRect@@HHH@Z 1006dad9 f   nafxcw:afxvisualmanager.obj
 0001:0006cb9c       ?OnDrawSeparator@CMFCVisualManager@@UAEXPAVCDC@@PAVCBasePane@@VCRect@@H@Z 1006db9c f   nafxcw:afxvisualmanager.obj
 0001:0006cc51       ?OnDrawShowAllMenuItems@CMFCVisualManager@@UAEXPAVCDC@@VCRect@@W4AFX_BUTTON_STATE@1@@Z 1006dc51 f   nafxcw:afxvisualmanager.obj
 0001:0006cc76       ?OnDrawSpinButtons@CMFCVisualManager@@UAEXPAVCDC@@VCRect@@HHPAVCMFCSpinButtonCtrl@@@Z 1006dc76 f   nafxcw:afxvisualmanager.obj
 0001:0006ce75       ?OnDrawSplitterBorder@CMFCVisualManager@@UAEXPAVCDC@@PAVCSplitterWndEx@@VCRect@@@Z 1006de75 f   nafxcw:afxvisualmanager.obj
 0001:0006cec5       ?OnDrawSplitterBox@CMFCVisualManager@@UAEXPAVCDC@@PAVCSplitterWndEx@@AAVCRect@@@Z 1006dec5 f   nafxcw:afxvisualmanager.obj
 0001:0006cee7       ?OnDrawStatusBarPaneBorder@CMFCVisualManager@@UAEXPAVCDC@@PAVCMFCStatusBar@@VCRect@@II@Z 1006dee7 f   nafxcw:afxvisualmanager.obj
 0001:0006cf31       ?OnDrawStatusBarProgress@CMFCVisualManager@@UAEXPAVCDC@@PAVCMFCStatusBar@@VCRect@@HHKKKH@Z 1006df31 f   nafxcw:afxvisualmanager.obj
 0001:0006d0f5       ?OnDrawStatusBarSizeBox@CMFCVisualManager@@UAEXPAVCDC@@PAVCMFCStatusBar@@VCRect@@@Z 1006e0f5 f   nafxcw:afxvisualmanager.obj
 0001:0006d1d1       ?OnDrawTab@CMFCVisualManager@@UAEXPAVCDC@@VCRect@@HHPBVCMFCBaseTabCtrl@@@Z 1006e1d1 f   nafxcw:afxvisualmanager.obj
 0001:0006e47f       ?OnDrawTabCloseButton@CMFCVisualManager@@UAEXPAVCDC@@VCRect@@PBVCMFCBaseTabCtrl@@HHH@Z 1006f47f f   nafxcw:afxvisualmanager.obj
 0001:0006e4fe       ?OnDrawTabContent@CMFCVisualManager@@UAEXPAVCDC@@VCRect@@HHPBVCMFCBaseTabCtrl@@K@Z 1006f4fe f   nafxcw:afxvisualmanager.obj
 0001:0006e816       ?OnDrawTabResizeBar@CMFCVisualManager@@UAEXPAVCDC@@PAVCMFCBaseTabCtrl@@HVCRect@@PAVCBrush@@PAVCPen@@@Z 1006f816 f   nafxcw:afxvisualmanager.obj
 0001:0006e87f       ?OnDrawTabsButtonBorder@CMFCVisualManager@@UAEXPAVCDC@@AAVCRect@@PAVCMFCButton@@IPAVCMFCBaseTabCtrl@@@Z 1006f87f f   nafxcw:afxvisualmanager.obj
 0001:0006e8e6       ?OnDrawTask@CMFCVisualManager@@UAEXPAVCDC@@PAVCMFCTasksPaneTask@@PAVCImageList@@HH@Z 1006f8e6 f   nafxcw:afxvisualmanager.obj
 0001:0006eba0       ?OnDrawTasksGroupAreaBorder@CMFCVisualManager@@UAEXPAVCDC@@VCRect@@HH@Z 1006fba0 f   nafxcw:afxvisualmanager.obj
 0001:0006ec38       ?OnDrawTasksGroupCaption@CMFCVisualManager@@UAEXPAVCDC@@PAVCMFCTasksPaneTaskGroup@@HHH@Z 1006fc38 f   nafxcw:afxvisualmanager.obj
 0001:0006efa2       ?OnDrawTasksGroupIcon@CMFCVisualManager@@UAEXPAVCDC@@PAVCMFCTasksPaneTaskGroup@@HHHH@Z 1006ffa2 f   nafxcw:afxvisualmanager.obj
 0001:0006f041       ?OnDrawTearOffCaption@CMFCVisualManager@@UAEXPAVCDC@@VCRect@@H@Z 10070041 f   nafxcw:afxvisualmanager.obj
 0001:0006f09a       ?OnDrawToolBoxFrame@CMFCVisualManager@@UAEXPAVCDC@@ABVCRect@@@Z 1007009a f   nafxcw:afxvisualmanager.obj
 0001:0006f0bc       ?OnErasePopupWindowButton@CMFCVisualManager@@UAEXPAVCDC@@VCRect@@PAVCMFCDesktopAlertWndButton@@@Z 100700bc f   nafxcw:afxvisualmanager.obj
 0001:0006f180       ?OnFillAutoHideButtonBackground@CMFCVisualManager@@UAEXPAVCDC@@VCRect@@PAVCMFCAutoHideButton@@@Z 10070180 f   nafxcw:afxvisualmanager.obj
 0001:0006f180       ?OnEraseTabsArea@CMFCVisualManager@@UAEXPAVCDC@@VCRect@@PBVCMFCBaseTabCtrl@@@Z 10070180 f   nafxcw:afxvisualmanager.obj
 0001:0006f1a9       ?OnEraseTabsButton@CMFCVisualManager@@UAEXPAVCDC@@VCRect@@PAVCMFCButton@@PAVCMFCBaseTabCtrl@@@Z 100701a9 f   nafxcw:afxvisualmanager.obj
 0001:0006f1d2       ?OnEraseTabsFrame@CMFCVisualManager@@UAEHPAVCDC@@VCRect@@PBVCMFCBaseTabCtrl@@@Z 100701d2 f   nafxcw:afxvisualmanager.obj
 0001:0006f229       ?OnFillBarBackground@CMFCVisualManager@@UAEXPAVCDC@@PAVCBasePane@@VCRect@@2H@Z 10070229 f   nafxcw:afxvisualmanager.obj
 0001:0006f3a8       ?OnFillButtonInterior@CMFCVisualManager@@UAEXPAVCDC@@PAVCMFCToolBarButton@@VCRect@@W4AFX_BUTTON_STATE@1@@Z 100703a8 f   nafxcw:afxvisualmanager.obj
 0001:0006f495       ?OnFillCaptionBarButton@CMFCVisualManager@@UAEKPAVCDC@@PAVCMFCCaptionBar@@VCRect@@HHHHH@Z 10070495 f   nafxcw:afxvisualmanager.obj
 0001:0006f4e5       ?OnFillCommandsListBackground@CMFCVisualManager@@UAEKPAVCDC@@VCRect@@H@Z 100704e5 f   nafxcw:afxvisualmanager.obj
 0001:0006f5c6       ?OnFillHeaderCtrlBackground@CMFCVisualManager@@UAEXPAVCMFCHeaderCtrl@@PAVCDC@@VCRect@@@Z 100705c6 f   nafxcw:afxvisualmanager.obj
 0001:0006f60c       ?OnFillMenuImageRect@CMFCVisualManager@@UAEXPAVCDC@@PAVCMFCToolBarButton@@VCRect@@W4AFX_BUTTON_STATE@1@@Z 1007060c f i nafxcw:afxvisualmanager.obj
 0001:0006f644       ?OnFillMiniFrameCaption@CMFCVisualManager@@UAEKPAVCDC@@VCRect@@PAVCPaneFrameWnd@@H@Z 10070644 f   nafxcw:afxvisualmanager.obj
 0001:0006f6ec       ?OnFillOutlookBarCaption@CMFCVisualManager@@UAEXPAVCDC@@VCRect@@AAK@Z 100706ec f   nafxcw:afxvisualmanager.obj
 0001:0006f71a       ?OnFillOutlookPageButton@CMFCVisualManager@@UAEXPAVCDC@@ABVCRect@@HHAAK@Z 1007071a f   nafxcw:afxvisualmanager.obj
 0001:0006f74d       ?OnFillPopupWindowBackground@CMFCVisualManager@@UAEXPAVCDC@@VCRect@@@Z 1007074d f   nafxcw:afxvisualmanager.obj
 0001:0006f776       ?OnFillRibbonButton@CMFCVisualManager@@UAEKPAVCDC@@PAVCMFCRibbonButton@@@Z 10070776 f   nafxcw:afxvisualmanager.obj
 0001:0006f9a8       ?OnFillRibbonEdit@CMFCVisualManager@@UAEXPAVCDC@@PAVCMFCRibbonRichEditCtrl@@VCRect@@HHHAAK33@Z 100709a8 f   nafxcw:afxvisualmanager.obj
 0001:0006fa90       ?OnFillRibbonMainPanelButton@CMFCVisualManager@@UAEKPAVCDC@@PAVCMFCRibbonButton@@@Z 10070a90 f   nafxcw:afxvisualmanager.obj
 0001:0006fab7       ?OnFillRibbonMenuFrame@CMFCVisualManager@@UAEXPAVCDC@@PAVCMFCRibbonMainPanel@@VCRect@@@Z 10070ab7 f   nafxcw:afxvisualmanager.obj
 0001:0006fae0       ?OnFillRibbonQuickAccessToolBarPopup@CMFCVisualManager@@UAEXPAVCDC@@PAVCMFCRibbonPanelMenuBar@@VCRect@@@Z 10070ae0 f   nafxcw:afxvisualmanager.obj
 0001:0006fb09       ?OnFillSplitterBackground@CMFCVisualManager@@UAEXPAVCDC@@PAVCSplitterWndEx@@VCRect@@@Z 10070b09 f   nafxcw:afxvisualmanager.obj
 0001:0006fb28       ?OnFillTab@CMFCVisualManager@@UAEXPAVCDC@@VCRect@@PAVCBrush@@HHPBVCMFCBaseTabCtrl@@@Z 10070b28 f   nafxcw:afxvisualmanager.obj
 0001:0006fbfc       ?OnFillTasksPaneBackground@CMFCVisualManager@@UAEXPAVCDC@@VCRect@@@Z 10070bfc f   nafxcw:afxvisualmanager.obj
 0001:0006fc25       ?OnFillToolTip@CMFCVisualManager@@UAEXPAVCDC@@PAVCMFCToolTipCtrl@@VCRect@@AAK3@Z 10070c25 f   nafxcw:afxvisualmanager.obj
 0001:0006fca5       ?OnHighlightMenuItem@CMFCVisualManager@@UAEXPAVCDC@@PAVCMFCToolBarMenuButton@@VCRect@@AAK@Z 10070ca5 f   nafxcw:afxvisualmanager.obj
 0001:0006fcce       ?OnHighlightRarelyUsedMenuItems@CMFCVisualManager@@UAEXPAVCDC@@VCRect@@@Z 10070cce f   nafxcw:afxvisualmanager.obj
 0001:0006fd31       ?OnSetWindowRegion@CMFCVisualManager@@UAEHPAVCWnd@@VCSize@@@Z 10070d31 f   nafxcw:afxvisualmanager.obj
 0001:0006fed2       ?RedrawAll@CMFCVisualManager@@SGXXZ 10070ed2 f   nafxcw:afxvisualmanager.obj
 0001:0006ff7e       ?Remove@?$CStringT@DV?$StrTraitMFC@DV?$ChTraitsCRT@D@ATL@@@@@ATL@@QAEHD@Z 10070f7e f i nafxcw:afxvisualmanager.obj
 0001:0006fffb       ?RibbonCategoryColorToRGB@CMFCVisualManager@@UAEKW4AFX_RibbonCategoryColor@@@Z 10070ffb f   nafxcw:afxvisualmanager.obj
 0001:000700d4       ?Serialize@?$CList@UtagPOINT@@U1@@@UAEXAAVCArchive@@@Z 100710d4 f i nafxcw:afxvisualmanager.obj
 0001:0007013d       ?SetDefaultManager@CMFCVisualManager@@SGXPAUCRuntimeClass@@@Z 1007113d f   nafxcw:afxvisualmanager.obj
 0001:000701c1       ?StringLowercase@?$ChTraitsCRT@D@ATL@@SAPADPADI@Z 100711c1 f i nafxcw:afxvisualmanager.obj
 0001:000701dd       ?UpdateSystemColors@CMFCBaseVisualManager@@IAEXXZ 100711dd f   nafxcw:afxvisualmanager.obj
 0001:0007042f       _IsolationAwareImageList_GetIconSize@12 1007142f f i nafxcw:afxvisualmanager.obj
 0001:000704fd       ??0CMFCBaseToolBar@@QAE@XZ 100714fd f   nafxcw:afxbasetoolbar.obj
 0001:00070517       ??1CMFCBaseToolBar@@UAE@XZ 10071517 f   nafxcw:afxbasetoolbar.obj
 0001:00070522       ??_GCMFCBaseToolBar@@UAEPAXI@Z 10071522 f i nafxcw:afxbasetoolbar.obj
 0001:00070522       ??_ECMFCBaseToolBar@@UAEPAXI@Z 10071522 f i nafxcw:afxbasetoolbar.obj
 0001:0007055b       ?CreateObject@CMFCBaseToolBar@@SGPAVCObject@@XZ 1007155b f   nafxcw:afxbasetoolbar.obj
 0001:0007058b       ?GetThisMessageMap@CMFCBaseToolBar@@KGPBUAFX_MSGMAP@@XZ 1007158b f   nafxcw:afxbasetoolbar.obj
 0001:0007058b       ?GetMessageMap@CMFCBaseToolBar@@MBEPBUAFX_MSGMAP@@XZ 1007158b f   nafxcw:afxbasetoolbar.obj
 0001:00070591       ?GetRuntimeClass@CMFCBaseToolBar@@UBEPAUCRuntimeClass@@XZ 10071591 f   nafxcw:afxbasetoolbar.obj
 0001:00070597       ?OnAfterStretch@CMFCBaseToolBar@@MAEXH@Z 10071597 f   nafxcw:afxbasetoolbar.obj
 0001:00070601       ?CreateObject@CMFCToolBar@@SGPAVCObject@@XZ 10071601 f   nafxcw:afxtoolbar.obj
 0001:00070631       ??$HashKey@AAI@@YGIAAI@Z   10071631 f i nafxcw:afxtoolbar.obj
 0001:00070631       ??$HashKey@AAPAUHMENU__@@@@YGIAAPAUHMENU__@@@Z 10071631 f i nafxcw:afxmenuhash.obj
 0001:00070661       ??0?$CMap@IAAIPAVCMFCToolBarButton@@AAPAV1@@@QAE@H@Z 10071661 f i nafxcw:afxtoolbar.obj
 0001:0007068b       ??0CMFCToolBar@@QAE@XZ     1007168b f   nafxcw:afxtoolbar.obj
 0001:00070a10       ??0CMFCToolBarInfo@@QAE@XZ 10071a10 f   nafxcw:afxtoolbar.obj
 0001:00070a2c       ??1?$CMap@IAAIPAVCMFCToolBarButton@@AAPAV1@@@UAE@XZ 10071a2c f i nafxcw:afxtoolbar.obj
 0001:00070a66       ??1CMFCToolBar@@UAE@XZ     10071a66 f   nafxcw:afxtoolbar.obj
 0001:00070bd1       ??A?$CMap@IAAIPAVCMFCToolBarButton@@AAPAV1@@@QAEAAPAVCMFCToolBarButton@@AAI@Z 10071bd1 f i nafxcw:afxtoolbar.obj
 0001:00070bd1       ??A?$CMap@PAUHMENU__@@AAPAU1@PAXAAPAX@@QAEAAPAXAAPAUHMENU__@@@Z 10071bd1 f i nafxcw:afxmenuhash.obj
 0001:00070c3b       ??_E?$CMap@IAAIPAVCMFCToolBarButton@@AAPAV1@@@UAEPAXI@Z 10071c3b f i nafxcw:afxtoolbar.obj
 0001:00070c3b       ??_G?$CMap@IAAIPAVCMFCToolBarButton@@AAPAV1@@@UAEPAXI@Z 10071c3b f i nafxcw:afxtoolbar.obj
 0001:00070c9f       ??_GCMFCPrintPreviewToolBar@@UAEPAXI@Z 10071c9f f i nafxcw:afxpreviewviewex.obj
 0001:00070c9f       ??_ECMFCToolBar@@UAEPAXI@Z 10071c9f f i nafxcw:afxtoolbar.obj
 0001:00070c9f       ??_ECMFCImageEditorPaletteBar@@UAEPAXI@Z 10071c9f f i nafxcw:afximageeditordialog.obj
 0001:00070c9f       ??_ECMFCPrintPreviewToolBar@@UAEPAXI@Z 10071c9f f i nafxcw:afxpreviewviewex.obj
 0001:00070c9f       ??_GCMFCToolBar@@UAEPAXI@Z 10071c9f f i nafxcw:afxtoolbar.obj
 0001:00070c9f       ??_GCMFCImageEditorPaletteBar@@UAEPAXI@Z 10071c9f f i nafxcw:afximageeditordialog.obj
 0001:00070cd2       ?AccGetButtonByChildId@CMFCToolBar@@IAEPAVCMFCToolBarButton@@J@Z 10071cd2 f   nafxcw:afxtoolbar.obj
 0001:00070d36       ?AccGetButtonsCount@CMFCToolBar@@MAEHXZ 10071d36 f   nafxcw:afxtoolbar.obj
 0001:00070d89       ?AccGetChildIdByButtonIndex@CMFCToolBar@@IAEHH@Z 10071d89 f   nafxcw:afxtoolbar.obj
 0001:00070e0d       ?AccNotifyObjectFocusEvent@CMFCToolBar@@MAEXH@Z 10071e0d f   nafxcw:afxtoolbar.obj
 0001:00070e7e       ?AddBasicCommand@CMFCToolBar@@SGXI@Z 10071e7e f   nafxcw:afxtoolbar.obj
 0001:00070ea6       ?AddCommandUsage@CMFCToolBar@@SGXI@Z 10071ea6 f   nafxcw:afxtoolbar.obj
 0001:00070eb4       ?AddRemoveSeparator@CMFCToolBar@@MAEXPBVCMFCToolBarButton@@ABVCPoint@@1@Z 10071eb4 f   nafxcw:afxtoolbar.obj
 0001:00070f83       ?AdjustLayout@CMFCToolBar@@UAEXXZ 10071f83 f   nafxcw:afxtoolbar.obj
 0001:00071191       ?AdjustLocations@CMFCToolBar@@MAEXXZ 10072191 f   nafxcw:afxtoolbar.obj
 0001:000716f9       ?AdjustSize@CMFCToolBar@@QAEXXZ 100726f9 f   nafxcw:afxtoolbar.obj
 0001:00071afd       ?ButtonToIndex@CMFCToolBar@@QBEHPBVCMFCToolBarButton@@@Z 10072afd f   nafxcw:afxtoolbar.obj
 0001:00071b46       ?CalcFixedLayout@CMFCToolBar@@UAE?AVCSize@@HH@Z 10072b46 f   nafxcw:afxtoolbar.obj
 0001:00071b84       ?CalcLayout@CMFCToolBar@@MAE?AVCSize@@KH@Z 10072b84 f   nafxcw:afxtoolbar.obj
 0001:00071da6       ?CalcMaxButtonHeight@CMFCToolBar@@MAEHXZ 10072da6 f   nafxcw:afxtoolbar.obj
 0001:00071eed       ?CalcSize@CMFCToolBar@@UAE?AVCSize@@H@Z 10072eed f   nafxcw:afxtoolbar.obj
 0001:00072125       ?CanBeRestored@CMFCToolBar@@UBEHXZ 10073125 f   nafxcw:afxtoolbar.obj
 0001:00072131       ?CanHandleSiblings@CMFCToolBar@@QAEHXZ 10073131 f   nafxcw:afxtoolbar.obj
 0001:0007218b       ?CommandToIndex@CMFCToolBar@@QBEHIH@Z 1007318b f   nafxcw:afxtoolbar.obj
 0001:000721de       ?Create@CMFCToolBar@@UAEHPAVCWnd@@KI@Z 100731de f   nafxcw:afxtoolbar.obj
 0001:0007221a       ?CreateDroppedButton@CMFCToolBar@@MAEPAVCMFCToolBarButton@@PAVCOleDataObject@@@Z 1007321a f   nafxcw:afxtoolbar.obj
 0001:00072344       ?CreateEx@CMFCToolBar@@UAEHPAVCWnd@@KKVCRect@@I@Z 10073344 f   nafxcw:afxtoolbar.obj
 0001:0007242a       ?Deactivate@CMFCToolBar@@UAEXXZ 1007342a f   nafxcw:afxtoolbar.obj
 0001:00072490       ?DoPaint@CMFCToolBar@@MAEXPAVCDC@@@Z 10073490 f   nafxcw:afxtoolbar.obj
 0001:00072dd7       ?DrawButton@CMFCToolBar@@MAEHPAVCDC@@PAVCMFCToolBarButton@@PAVCMFCToolBarImages@@HH@Z 10073dd7 f   nafxcw:afxtoolbar.obj
 0001:00072e9a       ?DrawDragCursor@CMFCToolBar@@MAEXPAVCDC@@@Z 10073e9a f   nafxcw:afxtoolbar.obj
 0001:00073078       ?DrawSeparator@CMFCToolBar@@MAEXPAVCDC@@ABVCRect@@H@Z 10074078 f   nafxcw:afxtoolbar.obj
 0001:000730b8       ?DropDownMenu@CMFCToolBar@@IAEHPAVCMFCToolBarButton@@@Z 100740b8 f   nafxcw:afxtoolbar.obj
 0001:00073136       ?Enable@CMFCToolBarCmdUI@@UAEXH@Z 10074136 f   nafxcw:afxtoolbar.obj
 0001:00073189       ?EnableContextMenuItems@CMFCToolBar@@MAEHPAVCMFCToolBarButton@@PAVCMenu@@@Z 10074189 f   nafxcw:afxtoolbar.obj
 0001:00073314       ?EnableCustomizeButton@CMFCToolBar@@QAEXHHABV?$CStringT@DV?$StrTraitMFC@DV?$ChTraitsCRT@D@ATL@@@@@ATL@@H@Z 10074314 f   nafxcw:afxtoolbar.obj
 0001:000733f6       ?EnableDocking@CMFCToolBar@@UAEXK@Z 100743f6 f   nafxcw:afxtoolbar.obj
 0001:00073410       ?EnableLargeIcons@CMFCToolBar@@QAEXH@Z 10074410 f   nafxcw:afxtoolbar.obj
 0001:00073420       ?EnableTextLabels@CMFCToolBar@@QAEXH@Z 10074420 f   nafxcw:afxtoolbar.obj
 0001:00073453       ?FindDropIndex@CMFCToolBar@@MBEHVCPoint@@AAVCRect@@@Z 10074453 f   nafxcw:afxtoolbar.obj
 0001:00073832       ?Format@?$CStringT@DV?$StrTraitMFC@DV?$ChTraitsCRT@D@ATL@@@@@ATL@@QAAXIZZ 10074832 f i nafxcw:afxtoolbar.obj
 0001:00073897       ?GetAllToolbars@CMFCToolBar@@SGABVCObList@@XZ 10074897 f   nafxcw:afxtoolbar.obj
 0001:0007389d       ?GetAnimationType@CMFCPopupMenu@@SG?AW4ANIMATION_TYPE@1@H@Z 1007489d f i nafxcw:afxtoolbar.obj
 0001:000738db       ?GetAssocAt@?$CMap@IAAIPAVCMFCToolBarButton@@AAPAV1@@@IBEPAVCAssoc@1@AAI00@Z 100748db f i nafxcw:afxtoolbar.obj
 0001:000738db       ?GetAssocAt@?$CMap@PAUHMENU__@@AAPAU1@PAXAAPAX@@IBEPAVCAssoc@1@AAPAUHMENU__@@AAI1@Z 100748db f i nafxcw:afxmenuhash.obj
 0001:0007392c       ?GetButton@CMFCToolBar@@QBEPAVCMFCToolBarButton@@H@Z 1007492c f   nafxcw:afxtoolbar.obj
 0001:00073952       ?GetButtonStyle@CMFCToolBar@@QBEIH@Z 10074952 f   nafxcw:afxtoolbar.obj
 0001:00073968       ?GetButtonText@CMFCToolBar@@QBE?AV?$CStringT@DV?$StrTraitMFC@DV?$ChTraitsCRT@D@ATL@@@@@ATL@@H@Z 10074968 f   nafxcw:afxtoolbar.obj
 0001:000739a2       ?GetCommandButtons@CMFCToolBar@@SGHIAAVCObList@@@Z 100749a2 f   nafxcw:afxtoolbar.obj
 0001:00073a2f       ?GetCount@CMFCToolBar@@QBEHXZ 10074a2f f   nafxcw:afxtoolbar.obj
 0001:00073a36       ?GetDroppedDownMenu@CMFCToolBar@@QBEPAVCMFCToolBarMenuButton@@PAH@Z 10074a36 f   nafxcw:afxtoolbar.obj
 0001:00073abd       ?GetExtraSize@CMFCCustomizeButton@@QBE?AVCSize@@XZ 10074abd f i nafxcw:afxtoolbar.obj
 0001:00073ae6       ?GetHighlightedButton@CMFCToolBar@@QBEPAVCMFCToolBarButton@@XZ 10074ae6 f   nafxcw:afxtoolbar.obj
 0001:00073afa       ?GetHotTextColor@CMFCToolBar@@SGKXZ 10074afa f   nafxcw:afxtoolbar.obj
 0001:00073b0d       ?GetImageList@CMFCToolBar@@IBEPAVCMFCToolBarImages@@AAV2@000@Z 10074b0d f   nafxcw:afxtoolbar.obj
 0001:00073b54       ?GetImageSize@CMFCToolBar@@QBE?AVCSize@@XZ 10074b54 f i nafxcw:afxtoolbar.obj
 0001:00073b96       ?GetInvalidateItemRect@CMFCToolBar@@UBEXHPAUtagRECT@@@Z 10074b96 f   nafxcw:afxtoolbar.obj
 0001:00073c01       ?GetItemID@CMFCToolBar@@QBEIH@Z 10074c01 f   nafxcw:afxtoolbar.obj
 0001:00073c17       ?GetItemRect@CMFCToolBar@@UBEXHPAUtagRECT@@@Z 10074c17 f   nafxcw:afxtoolbar.obj
 0001:00073c4f       ?GetMenuButtonSize@CMFCToolBar@@SG?AVCSize@@XZ 10074c4f f   nafxcw:afxtoolbar.obj
 0001:00073c7f       ?GetMenuImageSize@CMFCToolBar@@SG?AVCSize@@XZ 10074c7f f   nafxcw:afxtoolbar.obj
 0001:00073d3f       ?GetThisMessageMap@CMFCToolBar@@KGPBUAFX_MSGMAP@@XZ 10074d3f f   nafxcw:afxtoolbar.obj
 0001:00073d3f       ?GetMessageMap@CMFCToolBar@@MBEPBUAFX_MSGMAP@@XZ 10074d3f f   nafxcw:afxtoolbar.obj
 0001:00073d45       ?GetNext@CObList@@QBEPBVCObject@@AAPAU__POSITION@@@Z 10074d45 f i nafxcw:afxtoolbar.obj
 0001:00073d62       ?GetResourceOffset@CMFCToolBarImages@@QBEHI@Z 10074d62 f i nafxcw:afxtoolbar.obj
 0001:00073d8c       ?GetRowHeight@CMFCToolBar@@UBEHXZ 10074d8c f   nafxcw:afxtoolbar.obj
 0001:00073e46       ?GetRuntimeClass@CMFCToolBar@@UBEPAUCRuntimeClass@@XZ 10074e46 f   nafxcw:afxtoolbar.obj
 0001:00073e4c       ?HitTest@CMFCToolBar@@UAEHVCPoint@@@Z 10074e4c f   nafxcw:afxtoolbar.obj
 0001:00073eb7       ?InsertButton@CMFCToolBar@@MAEHPAVCMFCToolBarButton@@H@Z 10074eb7 f   nafxcw:afxtoolbar.obj
 0001:00073f6c       ?InsertButton@CMFCToolBar@@UAEHABVCMFCToolBarButton@@H@Z 10074f6c f   nafxcw:afxtoolbar.obj
 0001:00073fef       ?InsertResetStateButton@CMFCToolBar@@IAEHABVCMFCToolBarButton@@H@Z 10074fef f   nafxcw:afxtoolbar.obj
 0001:000740a2       ?InsertSeparator@CMFCToolBar@@UAEHH@Z 100750a2 f   nafxcw:afxtoolbar.obj
 0001:00074126       ?InvalidateButton@CMFCToolBar@@QAEPAVCMFCToolBarButton@@H@Z 10075126 f   nafxcw:afxtoolbar.obj
 0001:00074213       ?IsBasicCommand@CMFCToolBar@@SGHI@Z 10075213 f i nafxcw:afxtoolbar.obj
 0001:0007422f       ?IsButtonHighlighted@CMFCToolBar@@QBEHH@Z 1007522f f   nafxcw:afxtoolbar.obj
 0001:00074283       ?IsCommandPermitted@CMFCToolBar@@SGHI@Z 10075283 f i nafxcw:afxtoolbar.obj
 0001:0007429e       ?IsCommandRarelyUsed@CMFCToolBar@@SGHI@Z 1007529e f   nafxcw:afxtoolbar.obj
 0001:00074305       ?IsOneRowWithSibling@CMFCToolBar@@QAEHXZ 10075305 f   nafxcw:afxtoolbar.obj
 0001:0007431d       ?IsStandardCommand@@YAHI@Z 1007531d f i nafxcw:afxtoolbar.obj
 0001:0007436c       ?IsUserDefined@CMFCToolBar@@QBEHXZ 1007536c f   nafxcw:afxtoolbar.obj
 0001:000743dc       ?LoadBitmapA@CMFCToolBar@@UAEHIIIHII@Z 100753dc f   nafxcw:afxtoolbar.obj
 0001:0007442d       ?LoadBitmapEx@CMFCToolBar@@UAEHAAVCMFCToolBarInfo@@H@Z 1007542d f   nafxcw:afxtoolbar.obj
 0001:00074688       ?LoadLargeIconsState@CMFCToolBar@@SGHPBD@Z 10075688 f   nafxcw:afxtoolbar.obj
 0001:0007475c       ?LoadLastOriginalState@CMFCToolBar@@MAEHAAVCSettingsStore@@@Z 1007575c f   nafxcw:afxtoolbar.obj
 0001:000747f0       ?LoadMenuA@CMenu@@QAEHI@Z  100757f0 f i nafxcw:afxtoolbar.obj
 0001:00074817       ?LoadResetOriginalState@CMFCToolBar@@IAEHAAVCSettingsStore@@@Z 10075817 f   nafxcw:afxtoolbar.obj
 0001:000748e5       ?LoadState@CMFCToolBar@@UAEHPBDHI@Z 100758e5 f   nafxcw:afxtoolbar.obj
 0001:00074c1d       ?LoadToolBar@CMFCToolBar@@UAEHIIIHIII@Z 10075c1d f   nafxcw:afxtoolbar.obj
 0001:00074c71       ?LoadToolBarEx@CMFCToolBar@@UAEHIAAVCMFCToolBarInfo@@H@Z 10075c71 f   nafxcw:afxtoolbar.obj
 0001:00074ebb       ?Lookup@?$CMap@PAUHMENU__@@AAPAU1@PAXAAPAX@@QBEHAAPAUHMENU__@@AAPAX@Z 10075ebb f i nafxcw:afxmenuhash.obj
 0001:00074ebb       ?Lookup@?$CMap@IAAIPAVCMFCToolBarButton@@AAPAV1@@@QBEHAAIAAPAVCMFCToolBarButton@@@Z 10075ebb f i nafxcw:afxtoolbar.obj
 0001:00074ee3       ?NewAssoc@?$CMap@IAAIPAVCMFCToolBarButton@@AAPAV1@@@IAEPAVCAssoc@1@AAI@Z 10075ee3 f i nafxcw:afxtoolbar.obj
 0001:00074ee3       ?NewAssoc@?$CMap@PAUHMENU__@@AAPAU1@PAXAAPAX@@IAEPAVCAssoc@1@AAPAUHMENU__@@@Z 10075ee3 f i nafxcw:afxmenuhash.obj
 0001:00074f5e       ?NextMenu@CMFCToolBar@@UAEHXZ 10075f5e f   nafxcw:afxtoolbar.obj
 0001:00075086       ?NotifyControlCommand@CMFCToolBar@@MAEHPAVCMFCToolBarButton@@HHIJ@Z 10076086 f   nafxcw:afxtoolbar.obj
 0001:000750e2       ?OnAfterButtonDelete@CMFCToolBar@@MAEXXZ 100760e2 f   nafxcw:afxtoolbar.obj
 0001:0007512b       ?OnAfterDock@CMFCToolBar@@MAEXPAVCBasePane@@PBUtagRECT@@W4AFX_DOCK_METHOD@@@Z 1007612b f   nafxcw:afxtoolbar.obj
 0001:000751a5       ?OnAfterFloat@CMFCToolBar@@MAEXXZ 100761a5 f   nafxcw:afxtoolbar.obj
 0001:00075213       ?OnBeforeChangeParent@CMFCToolBar@@MAEXPAVCWnd@@H@Z 10076213 f   nafxcw:afxtoolbar.obj
 0001:0007524d       ?OnCalcSeparatorRect@CMFCToolBar@@MAEXPAVCMFCToolBarButton@@AAVCRect@@H@Z 1007624d f   nafxcw:afxtoolbar.obj
 0001:000752be       ?OnCancelMode@CMFCToolBar@@IAEXXZ 100762be f   nafxcw:afxtoolbar.obj
 0001:00075413       ?OnChangeHot@CMFCToolBar@@UAEXH@Z 10076413 f   nafxcw:afxtoolbar.obj
 0001:00075a69       ?OnChangeVisualManager@CMFCToolBar@@UAEXXZ 10076a69 f   nafxcw:afxtoolbar.obj
 0001:00075aea       ?OnCommand@CMFCToolBar@@MAEHIJ@Z 10076aea f   nafxcw:afxtoolbar.obj
 0001:00075bf1       ?OnContextMenu@CMFCToolBar@@IAEXPAVCWnd@@VCPoint@@@Z 10076bf1 f   nafxcw:afxtoolbar.obj
 0001:00075e9f       ?OnCopyImage@CMFCToolBar@@IAEXXZ 10076e9f f   nafxcw:afxtoolbar.obj
 0001:00075f31       ?OnCreate@CMFCToolBar@@IAEHPAUtagCREATESTRUCTA@@@Z 10076f31 f   nafxcw:afxtoolbar.obj
 0001:000760af       ?OnCtlColor@CMFCToolBar@@IAEPAUHBRUSH__@@PAVCDC@@PAVCWnd@@I@Z 100770af f   nafxcw:afxtoolbar.obj
 0001:0007615b       ?OnCustomizeMode@CMFCToolBar@@MAEXH@Z 1007715b f   nafxcw:afxtoolbar.obj
 0001:000761e5       ?OnDestroy@CMFCToolBar@@IAEXXZ 100771e5 f   nafxcw:afxtoolbar.obj
 0001:00076262       ?OnDragEnter@CMFCToolBar@@MAEKPAVCOleDataObject@@KVCPoint@@@Z 10077262 f   nafxcw:afxtoolbar.obj
 0001:000762aa       ?OnDragLeave@CMFCToolBar@@MAEXXZ 100772aa f   nafxcw:afxtoolbar.obj
 0001:0007632f       ?OnDragOver@CMFCToolBar@@MAEKPAVCOleDataObject@@KVCPoint@@@Z 1007732f f   nafxcw:afxtoolbar.obj
 0001:000764de       ?OnDrop@CMFCToolBar@@MAEHPAVCOleDataObject@@KVCPoint@@@Z 100774de f   nafxcw:afxtoolbar.obj
 0001:0007674e       ?OnGetButton@CMFCToolBar@@IAEJIJ@Z 1007774e f   nafxcw:afxtoolbar.obj
 0001:00076787       ?OnGetButtonCount@CMFCToolBar@@IAEJIJ@Z 10077787 f   nafxcw:afxtoolbar.obj
 0001:00076790       ?OnGetButtonText@CMFCToolBar@@IAEJIJ@Z 10077790 f   nafxcw:afxtoolbar.obj
 0001:000767d4       ?OnGetItemRect@CMFCToolBar@@IAEJIJ@Z 100777d4 f   nafxcw:afxtoolbar.obj
 0001:000767fe       ?OnGlobalFontsChanged@CMFCToolBar@@UAEXXZ 100777fe f   nafxcw:afxtoolbar.obj
 0001:0007684b       ?OnHelpHitTest@CMFCToolBar@@IAEJIJ@Z 1007784b f   nafxcw:afxtoolbar.obj
 0001:00076918       ?OnKillFocus@CMFCToolBar@@IAEXPAVCWnd@@@Z 10077918 f   nafxcw:afxtoolbar.obj
 0001:00076965       ?OnLButtonDblClk@CMFCToolBar@@IAEXIVCPoint@@@Z 10077965 f   nafxcw:afxtoolbar.obj
 0001:00076a39       ?OnLButtonDown@CMFCToolBar@@IAEXIVCPoint@@@Z 10077a39 f   nafxcw:afxtoolbar.obj
 0001:000773b6       ?OnLButtonUp@CMFCToolBar@@IAEXIVCPoint@@@Z 100783b6 f   nafxcw:afxtoolbar.obj
 0001:000777ac       ?OnMouseLeave@CMFCToolBar@@IAEXXZ 100787ac f   nafxcw:afxtoolbar.obj
 0001:0007791b       ?OnMouseMove@CMFCToolBar@@IAEXIVCPoint@@@Z 1007891b f   nafxcw:afxtoolbar.obj
 0001:00077e68       ?OnNcCalcSize@CMFCToolBar@@IAEXHPAUtagNCCALCSIZE_PARAMS@@@Z 10078e68 f   nafxcw:afxtoolbar.obj
 0001:00077e7d       ?OnNcPaint@CMFCToolBar@@IAEXXZ 10078e7d f   nafxcw:afxtoolbar.obj
 0001:00077e88       ?OnNeedTipText@CMFCToolBar@@IAEHIPAUtagNMHDR@@PAJ@Z 10078e88 f   nafxcw:afxtoolbar.obj
 0001:00077f84       ?OnPromptReset@CMFCToolBar@@IAEJIJ@Z 10078f84 f   nafxcw:afxtoolbar.obj
 0001:00078054       ?OnRButtonDown@CMFCToolBar@@IAEXIVCPoint@@@Z 10079054 f   nafxcw:afxtoolbar.obj
 0001:0007809f       ?OnSetAccData@CMFCToolBar@@UAEHJ@Z 1007909f f   nafxcw:afxtoolbar.obj
 0001:000780e8       ?OnSetCursor@CMFCToolBar@@IAEHPAVCWnd@@II@Z 100790e8 f   nafxcw:afxtoolbar.obj
 0001:0007822a       ?OnSetDefaultButtonText@CMFCToolBar@@UAEHPAVCMFCToolBarButton@@@Z 1007922a f   nafxcw:afxtoolbar.obj
 0001:000782c1       ?OnSetFocus@CMFCToolBar@@IAEXPAVCWnd@@@Z 100792c1 f   nafxcw:afxtoolbar.obj
 0001:0007834a       ?OnSettingChange@CMFCToolBar@@IAEXIPBD@Z 1007934a f   nafxcw:afxtoolbar.obj
 0001:00078392       ?OnShowWindow@CMFCToolBar@@IAEXHI@Z 10079392 f   nafxcw:afxtoolbar.obj
 0001:000783ec       ?OnSize@CMFCToolBar@@IAEXIHH@Z 100793ec f   nafxcw:afxtoolbar.obj
 0001:000784e6       ?OnSysColorChange@CMFCToolBar@@IAEXXZ 100794e6 f   nafxcw:afxtoolbar.obj
 0001:0007852c       ?OnToolHitTest@CMFCToolBar@@MBEHVCPoint@@PAUtagTOOLINFOA@@@Z 1007952c f   nafxcw:afxtoolbar.obj
 0001:00078899       ?OnToolbarAppearance@CMFCToolBar@@IAEXXZ 10079899 f   nafxcw:afxtoolbar.obj
 0001:00078969       ?OnToolbarDelete@CMFCToolBar@@IAEXXZ 10079969 f   nafxcw:afxtoolbar.obj
 0001:000789a5       ?OnToolbarImage@CMFCToolBar@@IAEXXZ 100799a5 f   nafxcw:afxtoolbar.obj
 0001:00078a91       ?OnToolbarImageAndText@CMFCToolBar@@IAEXXZ 10079a91 f   nafxcw:afxtoolbar.obj
 0001:00078b9f       ?OnToolbarNewMenu@CMFCToolBar@@IAEXXZ 10079b9f f   nafxcw:afxtoolbar.obj
 0001:00078ca4       ?OnToolbarReset@CMFCToolBar@@IAEXXZ 10079ca4 f   nafxcw:afxtoolbar.obj
 0001:00078d84       ?OnToolbarStartGroup@CMFCToolBar@@IAEXXZ 10079d84 f   nafxcw:afxtoolbar.obj
 0001:00078e25       ?OnToolbarText@CMFCToolBar@@IAEXXZ 10079e25 f   nafxcw:afxtoolbar.obj
 0001:00078eae       ?OnUpdateCmdUI@CMFCToolBar@@UAEXPAVCFrameWnd@@H@Z 10079eae f   nafxcw:afxtoolbar.obj
 0001:00078f69       ?OnUpdateToolTips@CMFCToolBar@@IAEJIJ@Z 10079f69 f   nafxcw:afxtoolbar.obj
 0001:00078f92       ?OnUserToolTip@CMFCToolBar@@UBEHPAVCMFCToolBarButton@@AAV?$CStringT@DV?$StrTraitMFC@DV?$ChTraitsCRT@D@ATL@@@@@ATL@@@Z 10079f92 f   nafxcw:afxtoolbar.obj
 0001:00079059       ?OnWindowPosChanged@CMFCToolBar@@IAEXPAUtagWINDOWPOS@@@Z 1007a059 f   nafxcw:afxtoolbar.obj
 0001:000790dc       ?OnWindowPosChanging@CMFCToolBar@@IAEXPAUtagWINDOWPOS@@@Z 1007a0dc f   nafxcw:afxtoolbar.obj
 0001:0007911e       ?PreTranslateMessage@CMFCToolBar@@MAEHPAUtagMSG@@@Z 1007a11e f   nafxcw:afxtoolbar.obj
 0001:0007922c       ?PrevMenu@CMFCToolBar@@UAEHXZ 1007a22c f   nafxcw:afxtoolbar.obj
 0001:00079357       ?ProcessCommand@CMFCToolBar@@QAEHPAVCMFCToolBarButton@@@Z 1007a357 f   nafxcw:afxtoolbar.obj
 0001:000793aa       ?RebuildAccelerationKeys@CMFCToolBar@@IAEXXZ 1007a3aa f   nafxcw:afxtoolbar.obj
 0001:0007944d       ?RedrawCustomizeButton@CMFCToolBar@@IAEXXZ 1007a44d f   nafxcw:afxtoolbar.obj
 0001:000794d7       ?RedrawUnderlines@CMFCToolBar@@SGXXZ 1007a4d7 f   nafxcw:afxtoolbar.obj
 0001:0007959a       ?RemoveAllButtons@CMFCToolBar@@UAEXXZ 1007a59a f   nafxcw:afxtoolbar.obj
 0001:0007960e       ?RemoveButton@CMFCToolBar@@UAEHH@Z 1007a60e f   nafxcw:afxtoolbar.obj
 0001:000797d3       ?RemoveResetStateButton@CMFCToolBar@@IAEHI@Z 1007a7d3 f   nafxcw:afxtoolbar.obj
 0001:00079845       ?RemoveStateFromRegistry@CMFCToolBar@@UAEHPBDHI@Z 1007a845 f   nafxcw:afxtoolbar.obj
 0001:00079929       ?ResetImages@CMFCToolBar@@UAEXXZ 1007a929 f   nafxcw:afxtoolbar.obj
 0001:000799b0       ?RestoreFocus@CMFCToolBar@@UAEXXZ 1007a9b0 f   nafxcw:afxtoolbar.obj
 0001:00079a0f       ?RestoreOriginalState@CMFCToolBar@@UAEHXZ 1007aa0f f   nafxcw:afxtoolbar.obj
 0001:00079b83       ?SaveOriginalState@CMFCToolBar@@MAEXAAVCSettingsStore@@@Z 1007ab83 f   nafxcw:afxtoolbar.obj
 0001:00079bb7       ?SaveResetOriginalState@CMFCToolBar@@IAEXAAVCSettingsStore@@@Z 1007abb7 f   nafxcw:afxtoolbar.obj
 0001:00079beb       ?SaveState@CMFCToolBar@@UAEHPBDHI@Z 1007abeb f   nafxcw:afxtoolbar.obj
 0001:00079e62       ?SelectDefaultFont@CBasePane@@QAEPAVCFont@@PAVCDC@@@Z 1007ae62 f i nafxcw:afxtoolbar.obj
 0001:00079ea6       ?Serialize@?$CMap@IAAIPAVCMFCToolBarButton@@AAPAV1@@@UAEXAAVCArchive@@@Z 1007aea6 f i nafxcw:afxtoolbar.obj
 0001:00079ea6       ?Serialize@?$CMap@PAUHMENU__@@AAPAU1@PAXAAPAX@@UAEXAAVCArchive@@@Z 1007aea6 f i nafxcw:afxmenuhash.obj
 0001:00079f4f       ?Serialize@CMFCToolBar@@UAEXAAVCArchive@@@Z 1007af4f f   nafxcw:afxtoolbar.obj
 0001:0007a25d       ?SetButtonStyle@CMFCToolBar@@UAEXHI@Z 1007b25d f   nafxcw:afxtoolbar.obj
 0001:0007a2c6       ?SetButtonText@CMFCToolBar@@QAEHHPBD@Z 1007b2c6 f   nafxcw:afxtoolbar.obj
 0001:0007a301       ?SetButtons@CMFCToolBar@@UAEHPBIHH@Z 1007b301 f   nafxcw:afxtoolbar.obj
 0001:0007a745       ?SetCheck@CMFCToolBarCmdUI@@UAEXH@Z 1007b745 f   nafxcw:afxtoolbar.obj
 0001:0007a7b1       ?SetCustomizeMode@CMFCToolBar@@SGHH@Z 1007b7b1 f   nafxcw:afxtoolbar.obj
 0001:0007a94c       ?SetHelpMode@CMFCToolBar@@SGXH@Z 1007b94c f   nafxcw:afxtoolbar.obj
 0001:0007a9d1       ?SetHot@CMFCToolBar@@QAEHPAVCMFCToolBarButton@@@Z 1007b9d1 f   nafxcw:afxtoolbar.obj
 0001:0007aa6c       ?SetLargeIcons@CMFCToolBar@@SGXH@Z 1007ba6c f   nafxcw:afxtoolbar.obj
 0001:0007ad2b       ?SetLockedSizes@CMFCToolBar@@QAEXUtagSIZE@@0H@Z 1007bd2b f   nafxcw:afxtoolbar.obj
 0001:0007aeb2       ?SetOneRowWithSibling@CMFCToolBar@@QAEXXZ 1007beb2 f   nafxcw:afxtoolbar.obj
 0001:0007af3d       ?SetRadio@CMFCToolBarCmdUI@@UAEXH@Z 1007bf3d f   nafxcw:afxtoolbar.obj
 0001:0007af8f       ?SetRect@CMFCToolBarButton@@QAEXVCRect@@@Z 1007bf8f f i nafxcw:afxtoolbar.obj
 0001:0007afb9       ?SetRoundedRgn@CMFCToolBar@@IAEXXZ 1007bfb9 f   nafxcw:afxtoolbar.obj
 0001:0007b072       ?SetSizes@CMFCToolBar@@SGXUtagSIZE@@0@Z 1007c072 f   nafxcw:afxtoolbar.obj
 0001:0007b234       ?SetText@CMFCToolBarCmdUI@@UAEXPBD@Z 1007c234 f   nafxcw:afxtoolbar.obj
 0001:0007b32b       ?SetToolBarBtnText@CMFCToolBar@@QAEXIPBDHH@Z 1007c32b f   nafxcw:afxtoolbar.obj
 0001:0007b384       ?SetTwoRowsWithSibling@CMFCToolBar@@QAEXXZ 1007c384 f   nafxcw:afxtoolbar.obj
 0001:0007b529       ?Show@CMFCToolBarButton@@QAEXH@Z 1007c529 f i nafxcw:afxtoolbar.obj
 0001:0007b55d       ?ShowCommandMessageString@CMFCToolBar@@MAEXI@Z 1007c55d f   nafxcw:afxtoolbar.obj
 0001:0007b5c7       ?SizeToolBar@CMFCToolBar@@IAEXHH@Z 1007c5c7 f   nafxcw:afxtoolbar.obj
 0001:0007b7bd       ?SmartUpdate@CMFCToolBar@@MAEHABVCObList@@@Z 1007c7bd f   nafxcw:afxtoolbar.obj
 0001:0007bb60       ?StretchPane@CMFCToolBar@@UAE?AVCSize@@HH@Z 1007cb60 f   nafxcw:afxtoolbar.obj
 0001:0007bc79       ?ToolBarMouseHookProc@CMFCToolBar@@KGJHIJ@Z 1007cc79 f   nafxcw:afxtoolbar.obj
 0001:0007bdd4       ?TranslateChar@CMFCToolBar@@UAEHI@Z 1007cdd4 f   nafxcw:afxtoolbar.obj
 0001:0007bebc       ?UpdateButton@CMFCToolBar@@QAEXH@Z 1007cebc f   nafxcw:afxtoolbar.obj
 0001:0007bf8f       ?UpdateImagesColor@CMFCToolBar@@IAEXXZ 1007cf8f f   nafxcw:afxtoolbar.obj
 0001:0007c031       ?UpdateTooltips@CMFCToolBar@@IAEXXZ 1007d031 f   nafxcw:afxtoolbar.obj
 0001:0007c1a9       ?WrapToolBar@CMFCToolBar@@QAEHHHPAVCDC@@HH@Z 1007d1a9 f   nafxcw:afxtoolbar.obj
 0001:0007c457       ?accDoDefaultAction@CMFCToolBar@@MAEJUtagVARIANT@@@Z 1007d457 f   nafxcw:afxtoolbar.obj
 0001:0007c4dc       ?accHitTest@CMFCToolBar@@MAEJJJPAUtagVARIANT@@@Z 1007d4dc f   nafxcw:afxtoolbar.obj
 0001:0007c5ad       ?accNavigate@CMFCToolBar@@MAEJJUtagVARIANT@@PAU2@@Z 1007d5ad f   nafxcw:afxtoolbar.obj
 0001:0007c663       ?get_accChild@CMFCToolBar@@MAEJUtagVARIANT@@PAPAUIDispatch@@@Z 1007d663 f   nafxcw:afxtoolbar.obj
 0001:0007c6c8       ?get_accChildCount@CMFCToolBar@@MAEJPAJ@Z 1007d6c8 f   nafxcw:afxtoolbar.obj
 0001:0007c6fd       ??$SerializeElements@UCMFCRestoredTabInfo@@@@YGXAAVCArchive@@PAUCMFCRestoredTabInfo@@H@Z 1007d6fd f i nafxcw:afxbasetabctrl.obj
 0001:0007c797       ??0?$CArray@HH@@QAE@XZ     1007d797 f i nafxcw:afxbasetabctrl.obj
 0001:0007c7ae       ??0?$CList@UCMFCRestoredTabInfo@@U1@@@QAE@H@Z 1007d7ae f i nafxcw:afxbasetabctrl.obj
 0001:0007c7d4       ??0?$CMap@PAUHICON__@@PAU1@HH@@QAE@H@Z 1007d7d4 f i nafxcw:afxbasetabctrl.obj
 0001:0007c7fe       ??0CMFCBaseTabCtrl@@QAE@XZ 1007d7fe f   nafxcw:afxbasetabctrl.obj
 0001:0007ca10       ??0CMFCRestoredTabInfo@@QAE@ABU0@@Z 1007da10 f i nafxcw:afxbasetabctrl.obj
 0001:0007ca55       ??0CMFCRestoredTabInfo@@QAE@XZ 1007da55 f i nafxcw:afxbasetabctrl.obj
 0001:0007ca97       ??0CMFCTabInfo@@AAE@ABV?$CStringT@DV?$StrTraitMFC@DV?$ChTraitsCRT@D@ATL@@@@@ATL@@IPAVCWnd@@HH@Z 1007da97 f i nafxcw:afxbasetabctrl.obj
 0001:0007cb9b       ??1?$CArray@HH@@UAE@XZ     1007db9b f i nafxcw:afxbasetabctrl.obj
 0001:0007cbb1       ??1?$CList@UCMFCRestoredTabInfo@@U1@@@UAE@XZ 1007dbb1 f i nafxcw:afxbasetabctrl.obj
 0001:0007cbeb       ??1?$CMap@PAUHICON__@@PAU1@HH@@UAE@XZ 1007dbeb f i nafxcw:afxbasetabctrl.obj
 0001:0007cc25       ??1CMFCBaseTabCtrl@@UAE@XZ 1007dc25 f   nafxcw:afxbasetabctrl.obj
 0001:0007cce5       ??1CMFCTabDropTarget@@UAE@XZ 1007dce5 f i nafxcw:afxbasetabctrl.obj
 0001:0007ccea       ??1CMFCTabInfo@@EAE@XZ     1007dcea f i nafxcw:afxbasetabctrl.obj
 0001:0007cd0e       ??4CMFCRestoredTabInfo@@QAEAAU0@ABU0@@Z 1007dd0e f i nafxcw:afxbasetabctrl.obj
 0001:0007cd44       ??_E?$CArray@HH@@UAEPAXI@Z 1007dd44 f i nafxcw:afxbasetabctrl.obj
 0001:0007cd44       ??_G?$CArray@HH@@UAEPAXI@Z 1007dd44 f i nafxcw:afxbasetabctrl.obj
 0001:0007cd74       ??_E?$CList@UCMFCRestoredTabInfo@@U1@@@UAEPAXI@Z 1007dd74 f i nafxcw:afxbasetabctrl.obj
 0001:0007cd74       ??_G?$CList@UCMFCRestoredTabInfo@@U1@@@UAEPAXI@Z 1007dd74 f i nafxcw:afxbasetabctrl.obj
 0001:0007cdd8       ??_G?$CMap@PAUHICON__@@PAU1@HH@@UAEPAXI@Z 1007ddd8 f i nafxcw:afxbasetabctrl.obj
 0001:0007cdd8       ??_E?$CMap@PAUHICON__@@PAU1@HH@@UAEPAXI@Z 1007ddd8 f i nafxcw:afxbasetabctrl.obj
 0001:0007ce3c       ??_GCMFCBaseTabCtrl@@UAEPAXI@Z 1007de3c f i nafxcw:afxbasetabctrl.obj
 0001:0007ce3c       ??_ECMFCBaseTabCtrl@@UAEPAXI@Z 1007de3c f i nafxcw:afxbasetabctrl.obj
 0001:0007ce6f       ??_GCMFCRestoredTabInfo@@QAEPAXI@Z 1007de6f f i nafxcw:afxbasetabctrl.obj
 0001:0007ce96       ??_ECMFCTabDropTarget@@UAEPAXI@Z 1007de96 f i nafxcw:afxbasetabctrl.obj
 0001:0007ce96       ??_GCMFCTabDropTarget@@UAEPAXI@Z 1007de96 f i nafxcw:afxbasetabctrl.obj
 0001:0007cec6       ??_ECMFCTabInfo@@EAEPAXI@Z 1007dec6 f i nafxcw:afxbasetabctrl.obj
 0001:0007cec6       ??_GCMFCTabInfo@@EAEPAXI@Z 1007dec6 f i nafxcw:afxbasetabctrl.obj
 0001:0007cef6       ?AddTab@CMFCBaseTabCtrl@@UAEXPAVCWnd@@IIH@Z 1007def6 f   nafxcw:afxbasetabctrl.obj
 0001:0007cf8f       ?AddTab@CMFCBaseTabCtrl@@UAEXPAVCWnd@@PBDIH@Z 1007df8f f   nafxcw:afxbasetabctrl.obj
 0001:0007cff2       ?AddTail@?$CList@UCMFCRestoredTabInfo@@U1@@@QAEPAU__POSITION@@UCMFCRestoredTabInfo@@@Z 1007dff2 f i nafxcw:afxbasetabctrl.obj
 0001:0007d042       ?ApplyRestoredTabInfo@CMFCBaseTabCtrl@@UAEXH@Z 1007e042 f   nafxcw:afxbasetabctrl.obj
 0001:0007d410       ?CleanUp@CMFCBaseTabCtrl@@UAEXXZ 1007e410 f   nafxcw:afxbasetabctrl.obj
 0001:0007d50f       ?ClearImageList@CMFCBaseTabCtrl@@UAEXXZ 1007e50f f   nafxcw:afxbasetabctrl.obj
 0001:0007d54d       ?CreateWrapper@CMFCBaseTabCtrl@@MAEPAVCWnd@@PAV2@PBDH@Z 1007e54d f   nafxcw:afxbasetabctrl.obj
 0001:0007d6df       ?DetachTab@CMFCBaseTabCtrl@@UAEHW4AFX_DOCK_METHOD@@HH@Z 1007e6df f   nafxcw:afxbasetabctrl.obj
 0001:0007dc7d       ?EnableAutoColor@CMFCBaseTabCtrl@@QAEXH@Z 1007ec7d f   nafxcw:afxbasetabctrl.obj
 0001:0007dcf1       ?EnableCustomToolTips@CMFCBaseTabCtrl@@QAEHH@Z 1007ecf1 f   nafxcw:afxbasetabctrl.obj
 0001:0007ddd7       ?EnableTabDetach@CMFCBaseTabCtrl@@UAEHHH@Z 1007edd7 f   nafxcw:afxbasetabctrl.obj
 0001:0007de08       ?EnterDragMode@CMFCBaseTabCtrl@@QAEXXZ 1007ee08 f   nafxcw:afxbasetabctrl.obj
 0001:0007dea0       ?FindTabInfo@CMFCBaseTabCtrl@@IAEHHPAPAVCMFCTabInfo@@@Z 1007eea0 f   nafxcw:afxbasetabctrl.obj
 0001:0007def5       ?FireChangeActiveTab@CMFCBaseTabCtrl@@UAEXH@Z 1007eef5 f   nafxcw:afxbasetabctrl.obj
 0001:0007dfc7       ?FireChangingActiveTab@CMFCBaseTabCtrl@@UAEHH@Z 1007efc7 f   nafxcw:afxbasetabctrl.obj
 0001:0007e02f       ?GetActiveWnd@CMFCBaseTabCtrl@@UBEPAVCWnd@@XZ 1007f02f f   nafxcw:afxbasetabctrl.obj
 0001:0007e04d       ?GetFirstVisibleTab@CMFCBaseTabCtrl@@UAEPAVCWnd@@AAH@Z 1007f04d f   nafxcw:afxbasetabctrl.obj
 0001:0007e073       ?GetFirstVisibleTab@CMFCBaseTabCtrl@@UAEPAVCWnd@@HAAH@Z 1007f073 f   nafxcw:afxbasetabctrl.obj
 0001:0007e0e5       ?GetLastVisibleTab@CMFCBaseTabCtrl@@UAEPAVCWnd@@AAH@Z 1007f0e5 f   nafxcw:afxbasetabctrl.obj
 0001:0007e128       ?GetMaxWindowSize@CMFCBaseTabCtrl@@UBE?AVCSize@@XZ 1007f128 f   nafxcw:afxbasetabctrl.obj
 0001:0007e229       ?GetThisMessageMap@CMFCBaseTabCtrl@@KGPBUAFX_MSGMAP@@XZ 1007f229 f   nafxcw:afxbasetabctrl.obj
 0001:0007e229       ?GetMessageMap@CMFCBaseTabCtrl@@MBEPBUAFX_MSGMAP@@XZ 1007f229 f   nafxcw:afxbasetabctrl.obj
 0001:0007e22f       ?GetRuntimeClass@CMFCBaseTabCtrl@@UBEPAUCRuntimeClass@@XZ 1007f22f f   nafxcw:afxbasetabctrl.obj
 0001:0007e235       ?GetTabBkColor@CMFCBaseTabCtrl@@UBEKH@Z 1007f235 f   nafxcw:afxbasetabctrl.obj
 0001:0007e291       ?GetTabByID@CMFCBaseTabCtrl@@UBEHH@Z 1007f291 f   nafxcw:afxbasetabctrl.obj
 0001:0007e2ce       ?GetTabFromHwnd@CMFCBaseTabCtrl@@UBEHPAUHWND__@@@Z 1007f2ce f   nafxcw:afxbasetabctrl.obj
 0001:0007e34c       ?GetTabFromPoint@CMFCBaseTabCtrl@@UBEHAAVCPoint@@@Z 1007f34c f   nafxcw:afxbasetabctrl.obj
 0001:0007e39f       ?GetTabFullWidth@CMFCBaseTabCtrl@@UBEHH@Z 1007f39f f   nafxcw:afxbasetabctrl.obj
 0001:0007e3c8       ?GetTabHicon@CMFCBaseTabCtrl@@UBEPAUHICON__@@H@Z 1007f3c8 f   nafxcw:afxbasetabctrl.obj
 0001:0007e3f1       ?GetTabID@CMFCBaseTabCtrl@@QBEHH@Z 1007f3f1 f   nafxcw:afxbasetabctrl.obj
 0001:0007e41b       ?GetTabIcon@CMFCBaseTabCtrl@@UBEIH@Z 1007f41b f   nafxcw:afxbasetabctrl.obj
 0001:0007e445       ?GetTabLabel@CMFCBaseTabCtrl@@UBEHHAAV?$CStringT@DV?$StrTraitMFC@DV?$ChTraitsCRT@D@ATL@@@@@ATL@@@Z 1007f445 f   nafxcw:afxbasetabctrl.obj
 0001:0007e498       ?GetTabNumberToDetach@CMFCBaseTabCtrl@@MBEHH@Z 1007f498 f   nafxcw:afxbasetabctrl.obj
 0001:0007e4ad       ?GetTabRect@CMFCBaseTabCtrl@@UBEHHAAVCRect@@@Z 1007f4ad f   nafxcw:afxbasetabctrl.obj
 0001:0007e4f3       ?GetTabTextColor@CMFCBaseTabCtrl@@UBEKH@Z 1007f4f3 f   nafxcw:afxbasetabctrl.obj
 0001:0007e51d       ?GetTabWnd@CMFCBaseTabCtrl@@UBEPAVCWnd@@H@Z 1007f51d f   nafxcw:afxbasetabctrl.obj
 0001:0007e546       ?GetTabWndNoWrapper@CMFCBaseTabCtrl@@UBEPAVCWnd@@H@Z 1007f546 f   nafxcw:afxbasetabctrl.obj
 0001:0007e5a0       ?GetTabsHeight@CMFCBaseTabCtrl@@UBEHXZ 1007f5a0 f i nafxcw:afxbasetabctrl.obj
 0001:0007e5a7       ?GetTabsRect@CMFCBaseTabCtrl@@UBEXAAVCRect@@@Z 1007f5a7 f i nafxcw:afxbasetabctrl.obj
 0001:0007e5ad       ?GetVisibleTabsNum@CMFCBaseTabCtrl@@UBEHXZ 1007f5ad f   nafxcw:afxbasetabctrl.obj
 0001:0007e5e8       ?HasImage@CMFCBaseTabCtrl@@UBEHH@Z 1007f5e8 f   nafxcw:afxbasetabctrl.obj
 0001:0007e64c       ?HideSingleTab@CMFCBaseTabCtrl@@UAEXH@Z 1007f64c f   nafxcw:afxbasetabctrl.obj
 0001:0007e684       ?InitAutoColors@CMFCBaseTabCtrl@@MAEXXZ 1007f684 f   nafxcw:afxbasetabctrl.obj
 0001:0007e7e8       ?InsertAt@?$CArray@PAVCMFCRibbonBaseElement@@PAV1@@@QAEXHPAVCMFCRibbonBaseElement@@H@Z 1007f7e8 f i nafxcw:afxribbonbutton.obj
 0001:0007e7e8       ?InsertAt@?$CArray@HH@@QAEXHHH@Z 1007f7e8 f i nafxcw:afxbasetabctrl.obj
 0001:0007e87d       ?InsertTab@CMFCBaseTabCtrl@@UAEXPAVCWnd@@IHIH@Z 1007f87d f   nafxcw:afxbasetabctrl.obj
 0001:0007e919       ?InsertTab@CMFCBaseTabCtrl@@UAEXPAVCWnd@@PBDHIH@Z 1007f919 f   nafxcw:afxbasetabctrl.obj
 0001:0007eb4d       ?InvalidateTab@CMFCBaseTabCtrl@@QAEXH@Z 1007fb4d f   nafxcw:afxbasetabctrl.obj
 0001:0007ebbc       ?IsColored@CMFCBaseTabCtrl@@UBEHXZ 1007fbbc f   nafxcw:afxbasetabctrl.obj
 0001:0007ebf9       ?IsTabDetachable@CMFCBaseTabCtrl@@UBEHH@Z 1007fbf9 f   nafxcw:afxbasetabctrl.obj
 0001:0007ec22       ?IsTabIconOnly@CMFCBaseTabCtrl@@UBEHH@Z 1007fc22 f   nafxcw:afxbasetabctrl.obj
 0001:0007ec4b       ?IsTabVisible@CMFCBaseTabCtrl@@UBEHH@Z 1007fc4b f   nafxcw:afxbasetabctrl.obj
 0001:0007ec74       ?LoadBitmapA@CBitmap@@QAEHI@Z 1007fc74 f i nafxcw:afxbasetabctrl.obj
 0001:0007ec9b       ?MoveTab@CMFCBaseTabCtrl@@UAEXHH@Z 1007fc9b f   nafxcw:afxbasetabctrl.obj
 0001:0007ee53       ?NewNode@?$CList@UCMFCRestoredTabInfo@@U1@@@IAEPAUCNode@1@PAU21@0@Z 1007fe53 f i nafxcw:afxbasetabctrl.obj
 0001:0007eec6       ?OnCancelMode@CMFCBaseTabCtrl@@IAEXXZ 1007fec6 f   nafxcw:afxbasetabctrl.obj
 0001:0007ef81       ?OnCreate@CMFCBaseTabCtrl@@IAEHPAUtagCREATESTRUCTA@@@Z 1007ff81 f   nafxcw:afxbasetabctrl.obj
 0001:0007efc6       ?OnDestroy@CMFCBaseTabCtrl@@IAEXXZ 1007ffc6 f   nafxcw:afxbasetabctrl.obj
 0001:0007efe8       ?OnDragEnter@CMFCTabDropTarget@@UAEKPAVCWnd@@PAVCOleDataObject@@KVCPoint@@@Z 1007ffe8 f   nafxcw:afxbasetabctrl.obj
 0001:0007f047       ?OnDragLeave@CMFCTabDropTarget@@UAEXPAVCWnd@@@Z 10080047 f   nafxcw:afxbasetabctrl.obj
 0001:0007f06f       ?OnDragOver@CMFCTabDropTarget@@UAEKPAVCWnd@@PAVCOleDataObject@@KVCPoint@@@Z 1008006f f   nafxcw:afxbasetabctrl.obj
 0001:0007f132       ?OnDropEx@CMFCTabDropTarget@@UAEKPAVCWnd@@PAVCOleDataObject@@KKVCPoint@@@Z 10080132 f   nafxcw:afxbasetabctrl.obj
 0001:0007f198       ?OnLButtonDblClk@CMFCBaseTabCtrl@@IAEXIVCPoint@@@Z 10080198 f   nafxcw:afxbasetabctrl.obj
 0001:0007f22e       ?OnLButtonDown@CMFCBaseTabCtrl@@IAEXIVCPoint@@@Z 1008022e f   nafxcw:afxbasetabctrl.obj
 0001:0007f418       ?OnLButtonUp@CMFCBaseTabCtrl@@IAEXIVCPoint@@@Z 10080418 f   nafxcw:afxbasetabctrl.obj
 0001:0007f7c8       ?OnMouseMove@CMFCBaseTabCtrl@@IAEXIVCPoint@@@Z 100807c8 f   nafxcw:afxbasetabctrl.obj
 0001:0007fb15       ?OnNeedTipText@CMFCBaseTabCtrl@@IAEHIPAUtagNMHDR@@PAJ@Z 10080b15 f   nafxcw:afxbasetabctrl.obj
 0001:0007fc74       ?OnRButtonDown@CMFCBaseTabCtrl@@IAEXIVCPoint@@@Z 10080c74 f   nafxcw:afxbasetabctrl.obj
 0001:0007fd4e       ?OnSetAccData@CMFCBaseTabCtrl@@MAEHJ@Z 10080d4e f   nafxcw:afxbasetabctrl.obj
 0001:0007fddd       ?OnSysColorChange@CMFCBaseTabCtrl@@IAEXXZ 10080ddd f   nafxcw:afxbasetabctrl.obj
 0001:0007fdfd       ?OnWindowPosChanged@CMFCBaseTabCtrl@@IAEXPAUtagWINDOWPOS@@@Z 10080dfd f   nafxcw:afxbasetabctrl.obj
 0001:0007fe13       ?PreTranslateMessage@CMFCBaseTabCtrl@@UAEHPAUtagMSG@@@Z 10080e13 f   nafxcw:afxbasetabctrl.obj
 0001:0007ff89       ?RemoveAll@?$CList@UCMFCRestoredTabInfo@@U1@@@QAEXXZ 10080f89 f i nafxcw:afxbasetabctrl.obj
 0001:0007ffbf       ?RemoveAllTabs@CMFCBaseTabCtrl@@UAEXXZ 10080fbf f   nafxcw:afxbasetabctrl.obj
 0001:000800bc       ?RemoveAt@?$CArray@PAVCMFCRibbonBaseElement@@PAV1@@@QAEXHH@Z 100810bc f i nafxcw:afxribbonbutton.obj
 0001:000800bc       ?RemoveAt@?$CArray@HH@@QAEXHH@Z 100810bc f i nafxcw:afxbasetabctrl.obj
 0001:0008011e       ?RemoveTab@CMFCBaseTabCtrl@@UAEHHH@Z 1008111e f   nafxcw:afxbasetabctrl.obj
 0001:00080312       ?RenameTab@CMFCBaseTabCtrl@@UAEHXZ 10081312 f   nafxcw:afxbasetabctrl.obj
 0001:000803d9       ?ResetImageList@CMFCBaseTabCtrl@@QAEXXZ 100813d9 f   nafxcw:afxbasetabctrl.obj
 0001:00080405       ?Serialize@?$CList@UCMFCRestoredTabInfo@@U1@@@UAEXAAVCArchive@@@Z 10081405 f i nafxcw:afxbasetabctrl.obj
 0001:000804ac       ?Serialize@CMFCBaseTabCtrl@@UAEXAAVCArchive@@@Z 100814ac f   nafxcw:afxbasetabctrl.obj
 0001:00080639       ?SetACCData@CMFCBaseTabCtrl@@MAEHPAVCMFCTabInfo@@AAVCAccessibilityData@@H@Z 10081639 f   nafxcw:afxbasetabctrl.obj
 0001:000806ab       ?SetActiveTabColor@CMFCBaseTabCtrl@@UAEXK@Z 100816ab f   nafxcw:afxbasetabctrl.obj
 0001:000806fd       ?SetActiveTabTextColor@CMFCBaseTabCtrl@@UAEXK@Z 100816fd f   nafxcw:afxbasetabctrl.obj
 0001:0008070d       ?SetAtGrow@?$CArray@PAVCMFCRibbonKeyTip@@PAV1@@@QAEXHPAVCMFCRibbonKeyTip@@@Z 1008170d f i nafxcw:afxbaseribbonelement.obj
 0001:0008070d       ?SetAtGrow@?$CArray@HH@@QAEXHH@Z 1008170d f i nafxcw:afxbasetabctrl.obj
 0001:0008070d       ?SetAtGrow@?$CArray@KK@@QAEXHK@Z 1008170d f i nafxcw:afxbasetabctrl.obj
 0001:0008070d       ?SetAtGrow@?$CArray@PAVCMFCRibbonContextCaption@@PAV1@@@QAEXHPAVCMFCRibbonContextCaption@@@Z 1008170d f i nafxcw:afxribbonbar.obj
 0001:0008070d       ?SetAtGrow@?$CArray@PAVCMFCRibbonPanel@@PAV1@@@QAEXHPAVCMFCRibbonPanel@@@Z 1008170d f i nafxcw:afxribboncategory.obj
 0001:0008070d       ?SetAtGrow@?$CArray@PAVCMFCRibbonBaseElement@@PAV1@@@QAEXHPAVCMFCRibbonBaseElement@@@Z 1008170d f i nafxcw:afxbaseribbonelement.obj
 0001:0008070d       ?SetAtGrow@?$CArray@JJ@@QAEXHJ@Z 1008170d f i nafxcw:afxribboncolorbutton.obj
 0001:0008070d       ?SetAtGrow@?$CArray@PAUHWND__@@PAU1@@@QAEXHPAUHWND__@@@Z 1008170d f i nafxcw:winfrm.obj
 0001:0008070d       ?SetAtGrow@?$CArray@PAVCMFCVisualManagerBitmapCacheItem@CMFCVisualManagerBitmapCache@@PAV12@@@QAEXHPAVCMFCVisualManagerBitmapCacheItem@CMFCVisualManagerBitmapCache@@@Z 1008170d f i nafxcw:afxvisualmanageroffice2007.obj
 0001:00080740       ?SetAutoColors@CMFCBaseTabCtrl@@QAEXABV?$CArray@KK@@@Z 10081740 f   nafxcw:afxbasetabctrl.obj
 0001:000807fa       ?SetDrawNoPrefix@CMFCBaseTabCtrl@@QAEXHH@Z 100817fa f   nafxcw:afxbasetabctrl.obj
 0001:00080828       ?SetImageList@CMFCBaseTabCtrl@@UAEHIHK@Z 10081828 f   nafxcw:afxbasetabctrl.obj
 0001:0008093a       ?SetImageList@CMFCBaseTabCtrl@@UAEHPAU_IMAGELIST@@@Z 1008193a f   nafxcw:afxbasetabctrl.obj
 0001:000809df       ?SetLocation@CMFCBaseTabCtrl@@UAEXW4Location@1@@Z 100819df f   nafxcw:afxbasetabctrl.obj
 0001:00080a30       ?SetTabBkColor@CMFCBaseTabCtrl@@UAEHHK@Z 10081a30 f   nafxcw:afxbasetabctrl.obj
 0001:00080a61       ?SetTabBorderSize@CMFCBaseTabCtrl@@UAEXHH@Z 10081a61 f   nafxcw:afxbasetabctrl.obj
 0001:00080abd       ?SetTabHicon@CMFCBaseTabCtrl@@UAEHHPAUHICON__@@@Z 10081abd f   nafxcw:afxbasetabctrl.obj
 0001:00080b7b       ?SetTabIcon@CMFCBaseTabCtrl@@UAEHHI@Z 10081b7b f   nafxcw:afxbasetabctrl.obj
 0001:00080bc1       ?SetTabIconOnly@CMFCBaseTabCtrl@@UAEHHHH@Z 10081bc1 f   nafxcw:afxbasetabctrl.obj
 0001:00080c12       ?SetTabLabel@CMFCBaseTabCtrl@@UAEHHABV?$CStringT@DV?$StrTraitMFC@DV?$ChTraitsCRT@D@ATL@@@@@ATL@@@Z 10081c12 f   nafxcw:afxbasetabctrl.obj
 0001:00080d9a       ?SetTabTextColor@CMFCBaseTabCtrl@@UAEHHK@Z 10081d9a f   nafxcw:afxbasetabctrl.obj
 0001:00080dcb       ?SetTabsHeight@CMFCBaseTabCtrl@@UAEXXZ 10081dcb f   nafxcw:afxbasetabctrl.obj
 0001:00080e09       ?SetTabsOrder@CMFCBaseTabCtrl@@QAEHABV?$CArray@HH@@@Z 10081e09 f   nafxcw:afxbasetabctrl.obj
 0001:00080ee3       ?ShowTab@CMFCBaseTabCtrl@@UAEHHHHH@Z 10081ee3 f   nafxcw:afxbasetabctrl.obj
 0001:0008102b       ?StartRenameTab@CMFCBaseTabCtrl@@UAEHH@Z 1008202b f   nafxcw:afxbasetabctrl.obj
 0001:000811b9       ?SwapTabs@CMFCBaseTabCtrl@@UAEXHH@Z 100821b9 f   nafxcw:afxbasetabctrl.obj
 0001:00081206       ?accDoDefaultAction@CMFCBaseTabCtrl@@MAEJUtagVARIANT@@@Z 10082206 f   nafxcw:afxbasetabctrl.obj
 0001:0008129b       ?accHitTest@CMFCBaseTabCtrl@@MAEJJJPAUtagVARIANT@@@Z 1008229b f   nafxcw:afxbasetabctrl.obj
 0001:0008135c       ?accLocation@CMFCBaseTabCtrl@@MAEJPAJ000UtagVARIANT@@@Z 1008235c f   nafxcw:afxbasetabctrl.obj
 0001:00081450       ?accNavigate@CMFCBaseTabCtrl@@MAEJJUtagVARIANT@@PAU2@@Z 10082450 f   nafxcw:afxbasetabctrl.obj
 0001:00081533       ?get_accChild@CMFCBaseTabCtrl@@MAEJUtagVARIANT@@PAPAUIDispatch@@@Z 10082533 f   nafxcw:afxbasetabctrl.obj
 0001:0008154b       ?get_accChildCount@CMFCBaseTabCtrl@@MAEJPAJ@Z 1008254b f   nafxcw:afxbasetabctrl.obj
 0001:000815af       ?get_accDefaultAction@CMFCBaseTabCtrl@@MAEJUtagVARIANT@@PAPA_W@Z 100825af f   nafxcw:afxbasetabctrl.obj
 0001:00081609       ?get_accName@CMFCBaseTabCtrl@@MAEJUtagVARIANT@@PAPA_W@Z 10082609 f   nafxcw:afxbasetabctrl.obj
 0001:000816ac       ?get_accRole@CMFCBaseTabCtrl@@MAEJUtagVARIANT@@PAU2@@Z 100826ac f   nafxcw:afxbasetabctrl.obj
 0001:0008171f       ?get_accState@CMFCBaseTabCtrl@@MAEJUtagVARIANT@@PAU2@@Z 1008271f f   nafxcw:afxbasetabctrl.obj
 0001:00081789       ?get_accValue@CMFCBaseTabCtrl@@MAEJUtagVARIANT@@PAPA_W@Z 10082789 f   nafxcw:afxbasetabctrl.obj
 0001:000817f8       ?CreateObject@CMFCOutlookBar@@SGPAVCObject@@XZ 100827f8 f   nafxcw:afxoutlookbar.obj
 0001:00081828       ??0CMFCOutlookBar@@QAE@XZ  10082828 f   nafxcw:afxoutlookbar.obj
 0001:0008187c       ??1CMFCOutlookBar@@UAE@XZ  1008287c f   nafxcw:afxoutlookbar.obj
 0001:00081906       ??_ECMFCOutlookBar@@UAEPAXI@Z 10082906 f i nafxcw:afxoutlookbar.obj
 0001:00081906       ??_GCMFCOutlookBar@@UAEPAXI@Z 10082906 f i nafxcw:afxoutlookbar.obj
 0001:00081939       ?CanAcceptPane@CDockablePane@@UBEHPBVCBasePane@@@Z 10082939 f i nafxcw:afxoutlookbar.obj
 0001:00081996       ?CanAcceptPane@CMFCOutlookBar@@UBEHPBVCBasePane@@@Z 10082996 f   nafxcw:afxoutlookbar.obj
 0001:00081a17       ?CanSetCaptionTextToTabName@CBaseTabbedPane@@UBEHXZ 10082a17 f i nafxcw:afxoutlookbar.obj
 0001:00081a1e       ?CanSetCaptionTextToTabName@CMFCOutlookBar@@UBEHXZ 10082a1e f i nafxcw:afxoutlookbar.obj
 0001:00081a32       ?Create@CMFCOutlookBar@@UAEHPBDPAVCWnd@@ABUtagRECT@@IKKPAUCCreateContext@@@Z 10082a32 f   nafxcw:afxoutlookbar.obj
 0001:00081acc       ?DockToRecentPos@CDockablePane@@UAEHXZ 10082acc f i nafxcw:afxoutlookbar.obj
 0001:00081aed       ?EnableSetCaptionTextToTabName@CBaseTabbedPane@@UAEXH@Z 10082aed f i nafxcw:afxoutlookbar.obj
 0001:00081afd       ?FloatTab@CMFCOutlookBar@@UAEHPAVCWnd@@HW4AFX_DOCK_METHOD@@H@Z 10082afd f   nafxcw:afxoutlookbar.obj
 0001:00081b5f       ?GetAHSlideMode@CDockablePane@@UBEIXZ 10082b5f f i nafxcw:afxoutlookbar.obj
 0001:00081b66       ?GetDockingStatus@CMFCOutlookBar@@UAE?AW4AFX_CS_STATUS@@VCPoint@@H@Z 10082b66 f   nafxcw:afxoutlookbar.obj
 0001:00081cb6       ?GetMessageMap@CMFCOutlookBar@@MBEPBUAFX_MSGMAP@@XZ 10082cb6 f   nafxcw:afxoutlookbar.obj
 0001:00081cbc       ?GetPaneName@CMFCOutlookBar@@UBEXAAV?$CStringT@DV?$StrTraitMFC@DV?$ChTraitsCRT@D@ATL@@@@@ATL@@@Z 10082cbc f i nafxcw:afxoutlookbar.obj
 0001:00081cd2       ?GetRuntimeClass@CMFCOutlookBar@@UBEPAUCRuntimeClass@@XZ 10082cd2 f   nafxcw:afxoutlookbar.obj
 0001:00081cd8       ?GetTabArea@CMFCOutlookBar@@UBEXAAVCRect@@0@Z 10082cd8 f   nafxcw:afxoutlookbar.obj
 0001:00081d4b       ?GetTabsNum@CBaseTabbedPane@@UBEHXZ 10082d4b f i nafxcw:afxoutlookbar.obj
 0001:00081d72       ?GetUnderlyingWindow@CBaseTabbedPane@@UAEPAVCMFCBaseTabCtrl@@XZ 10082d72 f i nafxcw:afxoutlookbar.obj
 0001:00081d79       ?GetVisibleTabsNum@CBaseTabbedPane@@UBEHXZ 10082d79 f i nafxcw:afxoutlookbar.obj
 0001:00081da0       ?IsAutoHideMode@CDockablePane@@UBEHXZ 10082da0 f i nafxcw:afxoutlookbar.obj
 0001:00081da7       ?IsAutohideAllEnabled@CDockablePane@@UBEHXZ 10082da7 f i nafxcw:afxoutlookbar.obj
 0001:00081dae       ?IsHideInAutoHideMode@CDockablePane@@UBEHXZ 10082dae f i nafxcw:afxoutlookbar.obj
 0001:00081db4       ?IsHideSingleTab@CBaseTabbedPane@@UBEHXZ 10082db4 f i nafxcw:afxoutlookbar.obj
 0001:00081ddb       ?LoadState@CMFCOutlookBar@@UAEHPBDHI@Z 10082ddb f   nafxcw:afxoutlookbar.obj
 0001:0008213a       ?OnAfterDockFromMiniFrame@CDockablePane@@UAEXXZ 1008313a f i nafxcw:afxoutlookbar.obj
 0001:0008215a       ?OnCreate@CMFCOutlookBar@@IAEHPAUtagCREATESTRUCTA@@@Z 1008315a f   nafxcw:afxoutlookbar.obj
 0001:00082260       ?OnPaint@CAutoHideDockSite@@IAEXXZ 10083260 f   nafxcw:afxautohidedocksite.obj
 0001:00082260       ?OnPaint@CMFCOutlookBar@@IAEXXZ 10083260 f   nafxcw:afxoutlookbar.obj
 0001:00082318       ?SaveState@CMFCOutlookBar@@UAEHPBDHI@Z 10083318 f   nafxcw:afxoutlookbar.obj
 0001:000825ee       ?CreateObject@CMFCOutlookBarPane@@SGPAVCObject@@XZ 100835ee f   nafxcw:afxoutlookbarpane.obj
 0001:0008261e       ??0CMFCOutlookBarPane@@QAE@XZ 1008361e f   nafxcw:afxoutlookbarpane.obj
 0001:0008270d       ??1CMFCOutlookBarPane@@UAE@XZ 1008370d f   nafxcw:afxoutlookbarpane.obj
 0001:0008273f       ??_GCMFCOutlookBarPane@@UAEPAXI@Z 1008373f f i nafxcw:afxoutlookbarpane.obj
 0001:0008273f       ??_ECMFCOutlookBarPane@@UAEPAXI@Z 1008373f f i nafxcw:afxoutlookbarpane.obj
 0001:00082772       ?AdjustLocations@CMFCOutlookBarPane@@MAEXXZ 10083772 f   nafxcw:afxoutlookbarpane.obj
 0001:00082a37       ?CalcFixedLayout@CMFCOutlookBarPane@@MAE?AVCSize@@HH@Z 10083a37 f   nafxcw:afxoutlookbarpane.obj
 0001:00082a88       ?CopyButtonsList@CMFCOutlookBarPane@@IAEXABVCObList@@AAV2@@Z 10083a88 f   nafxcw:afxoutlookbarpane.obj
 0001:00082b3d       ?Create@CMFCOutlookBarPane@@UAEHPAVCWnd@@KIK@Z 10083b3d f   nafxcw:afxoutlookbarpane.obj
 0001:00082b66       ?CreateDroppedButton@CMFCOutlookBarPane@@MAEPAVCMFCToolBarButton@@PAVCOleDataObject@@@Z 10083b66 f   nafxcw:afxoutlookbarpane.obj
 0001:00082baf       ?DoPaint@CMFCOutlookBarPane@@MAEXPAVCDC@@@Z 10083baf f   nafxcw:afxoutlookbarpane.obj
 0001:00082f11       ?Dock@CMFCOutlookBarPane@@UAEHPAVCBasePane@@PBUtagRECT@@W4AFX_DOCK_METHOD@@@Z 10083f11 f   nafxcw:afxoutlookbarpane.obj
 0001:00083044       ?EnableContextMenuItems@CMFCOutlookBarPane@@MAEHPAVCMFCToolBarButton@@PAVCMenu@@@Z 10084044 f   nafxcw:afxoutlookbarpane.obj
 0001:000830d8       ?GetMessageMap@CMFCOutlookBarPane@@MBEPBUAFX_MSGMAP@@XZ 100840d8 f   nafxcw:afxoutlookbarpane.obj
 0001:000830de       ?GetRuntimeClass@CMFCOutlookBarPane@@UBEPAUCRuntimeClass@@XZ 100840de f   nafxcw:afxoutlookbarpane.obj
 0001:000830e4       ?IsChangeState@CMFCOutlookBarPane@@UBE?AW4AFX_CS_STATUS@@HPAPAVCBasePane@@@Z 100840e4 f   nafxcw:afxoutlookbarpane.obj
 0001:00083143       ?OnBeforeFloat@CMFCOutlookBarPane@@UAEHAAVCRect@@W4AFX_DOCK_METHOD@@@Z 10084143 f   nafxcw:afxoutlookbarpane.obj
 0001:00083209       ?OnCreate@CMFCOutlookBarPane@@IAEHPAUtagCREATESTRUCTA@@@Z 10084209 f   nafxcw:afxoutlookbarpane.obj
 0001:00083338       ?OnDragOver@CMFCOutlookBarPane@@MAEKPAVCOleDataObject@@KVCPoint@@@Z 10084338 f   nafxcw:afxoutlookbarpane.obj
 0001:00083436       ?OnEraseWorkArea@CMFCOutlookBarPane@@MAEXPAVCDC@@VCRect@@@Z 10084436 f   nafxcw:afxoutlookbarpane.obj
 0001:000834fe       ?OnLButtonUp@CMFCOutlookBarPane@@IAEXIVCPoint@@@Z 100844fe f   nafxcw:afxoutlookbarpane.obj
 0001:00083536       ?OnNcCalcSize@CMFCOutlookBarPane@@IAEXHPAUtagNCCALCSIZE_PARAMS@@@Z 10084536 f   nafxcw:afxoutlookbarpane.obj
 0001:0008359a       ?OnNcDestroy@CMFCOutlookBarPane@@IAEXXZ 1008459a f   nafxcw:afxoutlookbarpane.obj
 0001:0008359f       ?OnSetFocus@CMFCOutlookBarPane@@IAEXPAVCWnd@@@Z 1008459f f   nafxcw:afxoutlookbarpane.obj
 0001:000835a8       ?OnSize@CMFCOutlookBarPane@@IAEXIHH@Z 100845a8 f   nafxcw:afxoutlookbarpane.obj
 0001:0008362a       ?OnSysColorChange@CMFCOutlookBarPane@@IAEXXZ 1008462a f   nafxcw:afxoutlookbarpane.obj
 0001:0008366a       ?OnTimer@CMFCOutlookBarPane@@IAEXI@Z 1008466a f   nafxcw:afxoutlookbarpane.obj
 0001:000836d9       ?PreTranslateMessage@CMFCOutlookBarPane@@MAEHPAUtagMSG@@@Z 100846d9 f   nafxcw:afxoutlookbarpane.obj
 0001:00083876       ?RemoveAllButtons@CMFCOutlookBarPane@@UAEXXZ 10084876 f   nafxcw:afxoutlookbarpane.obj
 0001:000838c0       ?RestoreOriginalState@CMFCOutlookBarPane@@UAEHXZ 100848c0 f   nafxcw:afxoutlookbarpane.obj
 0001:00083910       ?ScrollDown@CMFCOutlookBarPane@@IAEXXZ 10084910 f   nafxcw:afxoutlookbarpane.obj
 0001:0008398c       ?ScrollPageDown@CMFCOutlookBarPane@@IAEXXZ 1008498c f   nafxcw:afxoutlookbarpane.obj
 0001:00083a33       ?ScrollPageUp@CMFCOutlookBarPane@@IAEXXZ 10084a33 f   nafxcw:afxoutlookbarpane.obj
 0001:00083adc       ?ScrollUp@CMFCOutlookBarPane@@IAEXXZ 10084adc f   nafxcw:afxoutlookbarpane.obj
 0001:00083b73       ?SetBackImage@CMFCOutlookBarPane@@QAEXI@Z 10084b73 f   nafxcw:afxoutlookbarpane.obj
 0001:00083c44       ?SmartUpdate@CMFCOutlookBarPane@@UAEHABVCObList@@@Z 10084c44 f   nafxcw:afxoutlookbarpane.obj
 0001:00083d0e       ??0?$CList@PAUHWND__@@PAU1@@@QAE@H@Z 10084d0e f i nafxcw:afxtabctrl.obj
 0001:00083d34       ??0CMFCTabCtrl@@QAE@XZ     10084d34 f   nafxcw:afxtabctrl.obj
 0001:00083f9c       ??1?$CList@PAUHWND__@@PAU1@@@UAE@XZ 10084f9c f i nafxcw:afxtabctrl.obj
 0001:00083fd6       ??1CMFCOutlookBarScrollButton@@UAE@XZ 10084fd6 f i nafxcw:afxoutlookbartabctrl.obj
 0001:00083fd6       ??1CMFCTabButton@@UAE@XZ   10084fd6 f i nafxcw:afxtabctrl.obj
 0001:00083fdb       ??1CMFCTabCtrl@@UAE@XZ     10084fdb f   nafxcw:afxtabctrl.obj
 0001:00084072       ??_G?$CList@PAUHWND__@@PAU1@@@UAEPAXI@Z 10085072 f i nafxcw:afxtabctrl.obj
 0001:00084072       ??_E?$CList@PAUHWND__@@PAU1@@@UAEPAXI@Z 10085072 f i nafxcw:afxtabctrl.obj
 0001:000840d6       ??_E?$CMap@IIPAUHICON__@@PAU1@@@UAEPAXI@Z 100850d6 f i nafxcw:afxtabctrl.obj
 0001:000840d6       ??_G?$CMap@IIPAUHICON__@@PAU1@@@UAEPAXI@Z 100850d6 f i nafxcw:afxtabctrl.obj
 0001:0008413a       ??_ECMFCTabCtrl@@UAEPAXI@Z 1008513a f i nafxcw:afxtabctrl.obj
 0001:0008413a       ??_GCMFCTabCtrl@@UAEPAXI@Z 1008513a f i nafxcw:afxtabctrl.obj
 0001:0008416d       ?ActivateMDITab@CMFCTabCtrl@@QAEXH@Z 1008516d f   nafxcw:afxtabctrl.obj
 0001:000841fb       ?AdjustTabs@CMFCTabCtrl@@MAEXXZ 100851fb f   nafxcw:afxtabctrl.obj
 0001:00084bf2       ?AdjustTabsScroll@CMFCTabCtrl@@MAEXXZ 10085bf2 f   nafxcw:afxtabctrl.obj
 0001:00084cad       ?AdjustWndScroll@CMFCTabCtrl@@MAEXXZ 10085cad f   nafxcw:afxtabctrl.obj
 0001:00084db5       ?Create@CMFCTabCtrl@@QAEHW4Style@1@ABUtagRECT@@PAVCWnd@@IW4Location@CMFCBaseTabCtrl@@H@Z 10085db5 f   nafxcw:afxtabctrl.obj
 0001:00084eb5       ?CreateObject@CMFCTabCtrl@@SGPAVCObject@@XZ 10085eb5 f   nafxcw:afxtabctrl.obj
 0001:00084ee5       ?Draw3DTab@CMFCTabCtrl@@MAEXPAVCDC@@PAVCMFCTabInfo@@H@Z 10085ee5 f   nafxcw:afxtabctrl.obj
 0001:00084fa5       ?DrawFlatTab@CMFCTabCtrl@@MAEXPAVCDC@@PAVCMFCTabInfo@@H@Z 10085fa5 f   nafxcw:afxtabctrl.obj
 0001:00084ff1       ?DrawResizeDragRect@CMFCTabCtrl@@MAEXAAVCRect@@0@Z 10085ff1 f   nafxcw:afxtabctrl.obj
 0001:00085069       ?EnableActiveTabCloseButton@CMFCTabCtrl@@QAEXH@Z 10086069 f   nafxcw:afxtabctrl.obj
 0001:000850b2       ?EnableInPlaceEdit@CMFCTabCtrl@@UAEXH@Z 100860b2 f   nafxcw:afxtabctrl.obj
 0001:000850cb       ?EnableTabDocumentsMenu@CMFCTabCtrl@@QAEXH@Z 100860cb f   nafxcw:afxtabctrl.obj
 0001:000851ac       ?EnsureVisible@CMFCTabCtrl@@UAEHH@Z 100861ac f   nafxcw:afxtabctrl.obj
 0001:000853bc       ?FindTargetWnd@CMFCTabCtrl@@MAEPAVCWnd@@ABVCPoint@@@Z 100863bc f   nafxcw:afxtabctrl.obj
 0001:0008542e       ?GetDocumentIcon@CMFCTabCtrl@@SGPAUHICON__@@I@Z 1008642e f   nafxcw:afxtabctrl.obj
 0001:0008544e       ?GetMessageMap@CMFCTabCtrl@@MBEPBUAFX_MSGMAP@@XZ 1008644e f   nafxcw:afxtabctrl.obj
 0001:00085454       ?GetRuntimeClass@CMFCTabCtrl@@UBEPAUCRuntimeClass@@XZ 10086454 f   nafxcw:afxtabctrl.obj
 0001:0008545a       ?GetTabFromPoint@CMFCTabCtrl@@UBEHAAVCPoint@@@Z 1008645a f   nafxcw:afxtabctrl.obj
 0001:000855cf       ?HideActiveWindowHorzScrollBar@CMFCTabCtrl@@QAEXXZ 100865cf f   nafxcw:afxtabctrl.obj
 0001:00085616       ?HideNoTabs@CMFCTabCtrl@@QAEXH@Z 10086616 f   nafxcw:afxtabctrl.obj
 0001:00085657       ?HideSingleTab@CMFCTabCtrl@@UAEXH@Z 10086657 f   nafxcw:afxtabctrl.obj
 0001:00085698       ?IsMDITabGroup@CMFCTabCtrl@@UBEHXZ 10086698 f   nafxcw:afxtabctrl.obj
 0001:000856bb       ?IsPtInTabArea@CMFCTabCtrl@@UBEHVCPoint@@@Z 100866bb f   nafxcw:afxtabctrl.obj
 0001:000856d5       ?ModifyTabStyle@CMFCTabCtrl@@QAEHW4Style@1@@Z 100866d5 f   nafxcw:afxtabctrl.obj
 0001:0008574a       ?MoveTab@CMFCTabCtrl@@UAEXHH@Z 1008674a f   nafxcw:afxtabctrl.obj
 0001:000857a2       ?OnCancelMode@CMFCTabCtrl@@IAEXXZ 100867a2 f   nafxcw:afxtabctrl.obj
 0001:00085829       ?OnCommand@CMFCTabCtrl@@MAEHIJ@Z 10086829 f   nafxcw:afxtabctrl.obj
 0001:00085b12       ?OnCreate@CMFCTabCtrl@@IAEHPAUtagCREATESTRUCTA@@@Z 10086b12 f   nafxcw:afxtabctrl.obj
 0001:00085fe8       ?OnDestroy@CMFCTabCtrl@@IAEXXZ 10086fe8 f   nafxcw:afxtabctrl.obj
 0001:0008602b       ?OnDragEnter@CMFCTabCtrl@@UAEKPAVCOleDataObject@@KVCPoint@@@Z 1008702b f   nafxcw:afxtabctrl.obj
 0001:0008602b       ?OnDragEnter@CMFCOutlookBarTabCtrl@@MAEKPAVCOleDataObject@@KVCPoint@@@Z 1008702b f   nafxcw:afxoutlookbartabctrl.obj
 0001:00086058       ?OnDraw@CMFCTabCtrl@@UAEXPAVCDC@@@Z 10087058 f   nafxcw:afxtabctrl.obj
 0001:00086be7       ?OnDrawBorder@CMFCTabButton@@EAEXPAVCDC@@AAVCRect@@I@Z 10087be7 f   nafxcw:afxtabctrl.obj
 0001:00086c3a       ?OnEraseBkgnd@CMFCTabCtrl@@IAEHPAVCDC@@@Z 10087c3a f   nafxcw:afxtabctrl.obj
 0001:00086cc4       ?OnFillBackground@CMFCTabButton@@EAEXPAVCDC@@ABVCRect@@@Z 10087cc4 f   nafxcw:afxtabctrl.obj
 0001:00086d22       ?OnHScroll@CMFCTabCtrl@@IAEXIIPAVCScrollBar@@@Z 10087d22 f   nafxcw:afxtabctrl.obj
 0001:00086e5d       ?OnLButtonDblClk@CMFCTabCtrl@@IAEXIVCPoint@@@Z 10087e5d f   nafxcw:afxtabctrl.obj
 0001:00086f3d       ?OnLButtonDown@CMFCTabCtrl@@IAEXIVCPoint@@@Z 10087f3d f   nafxcw:afxtabctrl.obj
 0001:0008711c       ?OnLButtonUp@CMFCTabCtrl@@IAEXIVCPoint@@@Z 1008811c f   nafxcw:afxtabctrl.obj
 0001:00087243       ?OnMouseMove@CMFCTabCtrl@@IAEXIVCPoint@@@Z 10088243 f   nafxcw:afxtabctrl.obj
 0001:000875b3       ?OnNotify@CMFCTabCtrl@@MAEHIJPAJ@Z 100885b3 f   nafxcw:afxtabctrl.obj
 0001:00087645       ?OnPaint@CMFCTabCtrl@@IAEXXZ 10088645 f   nafxcw:afxtabctrl.obj
 0001:000876de       ?OnSetCursor@CMFCTabCtrl@@IAEHPAVCWnd@@II@Z 100886de f   nafxcw:afxtabctrl.obj
 0001:000877b8       ?OnSetFocus@CMFCTabCtrl@@IAEXPAVCWnd@@@Z 100887b8 f   nafxcw:afxtabctrl.obj
 0001:000877ec       ?OnSettingChange@CMFCTabCtrl@@IAEXIPBD@Z 100887ec f   nafxcw:afxtabctrl.obj
 0001:0008783e       ?OnShowTabDocumentsMenu@CMFCTabCtrl@@UAEXVCPoint@@@Z 1008883e f   nafxcw:afxtabctrl.obj
 0001:00087aac       ?OnSize@CMFCTabCtrl@@IAEXIHH@Z 10088aac f   nafxcw:afxtabctrl.obj
 0001:00087bbd       ?OnSysColorChange@CMFCTabCtrl@@IAEXXZ 10088bbd f   nafxcw:afxtabctrl.obj
 0001:00087c2d       ?OnUpdateToolTips@CMFCTabCtrl@@IAEJIJ@Z 10088c2d f   nafxcw:afxtabctrl.obj
 0001:00087d17       ?OnWindowPosChanged@CMFCTabCtrl@@IAEXPAUtagWINDOWPOS@@@Z 10088d17 f   nafxcw:afxtabctrl.obj
 0001:00087d4e       ?OnWindowPosChanging@CMFCTabCtrl@@IAEXPAUtagWINDOWPOS@@@Z 10088d4e f   nafxcw:afxtabctrl.obj
 0001:00087d82       ?PreTranslateMessage@CMFCTabCtrl@@UAEHPAUtagMSG@@@Z 10088d82 f   nafxcw:afxtabctrl.obj
 0001:00087fa7       ?RecalcLayout@CMFCTabCtrl@@UAEXXZ 10088fa7 f   nafxcw:afxtabctrl.obj
 0001:000885f9       ?ReposButtons@CMFCTabCtrl@@IAEXVCPoint@@VCSize@@HH@Z 100895f9 f   nafxcw:afxtabctrl.obj
 0001:0008870a       ?SetActiveTab@CMFCTabCtrl@@UAEHH@Z 1008970a f   nafxcw:afxtabctrl.obj
 0001:00088c38       ?SetActiveTabBoldFont@CMFCTabCtrl@@QAEXH@Z 10089c38 f   nafxcw:afxtabctrl.obj
 0001:00088c71       ?SetDrawFrame@CMFCTabCtrl@@QAEXH@Z 10089c71 f   nafxcw:afxtabctrl.obj
 0001:00088c81       ?SetImageList@CMFCTabCtrl@@UAEHIHK@Z 10089c81 f   nafxcw:afxtabctrl.obj
 0001:00088c8a       ?SetImageList@CMFCTabCtrl@@UAEHPAU_IMAGELIST@@@Z 10089c8a f   nafxcw:afxtabctrl.obj
 0001:00088c93       ?SetPressed@CMFCTabButton@@QAEXH@Z 10089c93 f i nafxcw:afxtabctrl.obj
 0001:00088cbb       ?SetResizeMode@CMFCTabCtrl@@QAEXW4ResizeMode@1@@Z 10089cbb f   nafxcw:afxtabctrl.obj
 0001:00088ce5       ?SetScrollButtons@CMFCTabCtrl@@IAEXXZ 10089ce5 f   nafxcw:afxtabctrl.obj
 0001:00088dd0       ?SetTabsHeight@CMFCTabCtrl@@MAEXXZ 10089dd0 f   nafxcw:afxtabctrl.obj
 0001:00088e1b       ?StopResize@CMFCTabCtrl@@QAEXH@Z 10089e1b f   nafxcw:afxtabctrl.obj
 0001:00088f19       ?SwapTabs@CMFCTabCtrl@@UAEXHH@Z 10089f19 f   nafxcw:afxtabctrl.obj
 0001:00088f55       ?SynchronizeScrollBar@CMFCTabCtrl@@QAEHPAUtagSCROLLINFO@@@Z 10089f55 f   nafxcw:afxtabctrl.obj
 0001:00089028       ?UpdateScrollButtonsState@CMFCTabCtrl@@IAEXXZ 1008a028 f   nafxcw:afxtabctrl.obj
 0001:00089188       ??0CPushRoutingView@@QAE@PAVCView@@@Z 1008a188 f i nafxcw:viewcore.obj
 0001:000891c8       ??0CView@@IAE@XZ           1008a1c8 f   nafxcw:viewcore.obj
 0001:000891ea       ??1CPushRoutingView@@QAE@XZ 1008a1ea f i nafxcw:viewcore.obj
 0001:00089206       ??1CView@@UAE@XZ           1008a206 f   nafxcw:viewcore.obj
 0001:00089360       ??_9CView@@$BBIM@AE        1008a360 f i nafxcw:viewcore.obj
 0001:0008936f       ?GetParentSplitter@CView@@SGPAVCSplitterWnd@@PBVCWnd@@H@Z 1008a36f f   nafxcw:viewcore.obj
 0001:000893d8       ?GetScrollBarCtrl@CView@@UBEPAVCScrollBar@@H@Z 1008a3d8 f   nafxcw:viewcore.obj
 0001:00089449       ?GetThisMessageMap@CView@@KGPBUAFX_MSGMAP@@XZ 1008a449 f   nafxcw:viewcore.obj
 0001:0008944f       ?OnActivateView@CView@@MAEXHPAV1@0@Z 1008a44f f   nafxcw:viewcore.obj
 0001:00089470       ?OnCmdMsg@CView@@UAEHIHPAXPAUAFX_CMDHANDLERINFO@@@Z 1008a470 f   nafxcw:viewcore.obj
 0001:000894e9       ?OnCreate@CView@@IAEHPAUtagCREATESTRUCTA@@@Z 1008a4e9 f   nafxcw:viewcore.obj
 0001:0008951a       ?OnDestroy@CView@@IAEXXZ   1008a51a f   nafxcw:viewcore.obj
 0001:00089548       ?OnDragScroll@CView@@UAEKKVCPoint@@@Z 1008a548 f   nafxcw:viewcore.obj
 0001:00089550       ?OnDropEx@CView@@UAEKPAVCOleDataObject@@KKVCPoint@@@Z 1008a550 f   nafxcw:viewcore.obj
 0001:00089556       ?OnEndPrintPreview@CView@@MAEXPAVCDC@@PAUCPrintInfo@@UtagPOINT@@PAVCPreviewView@@@Z 1008a556 f   nafxcw:viewcore.obj
 0001:0008964c       ?OnInitialUpdate@CView@@UAEXXZ 1008a64c f   nafxcw:viewcore.obj
 0001:0008966c       ?OnMouseActivate@CView@@IAEHPAVCWnd@@II@Z 1008a66c f   nafxcw:viewcore.obj
 0001:000896e8       ?OnNextPaneCmd@CView@@IAEHI@Z 1008a6e8 f   nafxcw:viewcore.obj
 0001:00089725       ?OnPaint@CView@@IAEXXZ     1008a725 f   nafxcw:viewcore.obj
 0001:00089780       ?OnPrepareDC@CView@@UAEXPAVCDC@@PAUCPrintInfo@@@Z 1008a780 f   nafxcw:viewcore.obj
 0001:000897b0       ?OnPrint@CView@@MAEXPAVCDC@@PAUCPrintInfo@@@Z 1008a7b0 f   nafxcw:viewcore.obj
 0001:000897d4       ?OnPrintClient@CView@@IAEJPAVCDC@@I@Z 1008a7d4 f   nafxcw:viewcore.obj
 0001:00089820       ?OnSplitCmd@CView@@IAEHI@Z 1008a820 f   nafxcw:viewcore.obj
 0001:0008984c       ?OnUpdate@CView@@MAEXPAV1@JPAVCObject@@@Z 1008a84c f   nafxcw:viewcore.obj
 0001:0008985c       ?OnUpdateNextPaneMenu@CView@@IAEXPAVCCmdUI@@@Z 1008a85c f   nafxcw:viewcore.obj
 0001:000898b5       ?OnUpdateSplitCmd@CView@@IAEXPAVCCmdUI@@@Z 1008a8b5 f   nafxcw:viewcore.obj
 0001:000898f4       ?Pop@CPushRoutingView@@QAEXXZ 1008a8f4 f i nafxcw:viewcore.obj
 0001:00089914       ?PostNcDestroy@CFrameWnd@@MAEXXZ 1008a914 f   nafxcw:winfrm.obj
 0001:00089914       ?PostNcDestroy@CView@@MAEXXZ 1008a914 f   nafxcw:viewcore.obj
 0001:00089932       ?PreCreateWindow@CView@@MAEHAAUtagCREATESTRUCTA@@@Z 1008a932 f   nafxcw:viewcore.obj
 0001:0008996e       ??0CScrollView@@IAE@XZ     1008a96e f   nafxcw:viewscrl.obj
 0001:000899d2       ??0_AFX_MOUSEANCHORWND@@QAE@AAVCPoint@@@Z 1008a9d2 f   nafxcw:viewscrl.obj
 0001:00089a22       ??1CScrollView@@UAE@XZ     1008aa22 f   nafxcw:viewscrl.obj
 0001:00089a9e       ??_ECScrollView@@UAEPAXI@Z 1008aa9e f i nafxcw:viewscrl.obj
 0001:00089a9e       ??_GCScrollView@@UAEPAXI@Z 1008aa9e f i nafxcw:viewscrl.obj
 0001:00089ad1       ??_E_AFX_MOUSEANCHORWND@@UAEPAXI@Z 1008aad1 f i nafxcw:viewscrl.obj
 0001:00089ad1       ??_G_AFX_MOUSEANCHORWND@@UAEPAXI@Z 1008aad1 f i nafxcw:viewscrl.obj
 0001:00089b0a       ?CalcWindowRect@CScrollView@@UAEXPAUtagRECT@@I@Z 1008ab0a f   nafxcw:viewscrl.obj
 0001:00089ba8       ?CenterOnPoint@CScrollView@@IAEXVCPoint@@@Z 1008aba8 f   nafxcw:viewscrl.obj
 0001:00089c6a       ?CheckScrollBars@CScrollView@@QBEXAAH0@Z 1008ac6a f   nafxcw:viewscrl.obj
 0001:00089cf1       ?Create@_AFX_MOUSEANCHORWND@@QAEHPAVCScrollView@@@Z 1008acf1 f   nafxcw:viewscrl.obj
 0001:00089e26       ?DoMouseWheel@CScrollView@@QAEHIFVCPoint@@@Z 1008ae26 f   nafxcw:viewscrl.obj
 0001:00089eff       ?GetDeviceScrollPosition@CScrollView@@QBE?AVCPoint@@XZ 1008aeff f   nafxcw:viewscrl.obj
 0001:00089f28       ?GetMessageMap@CScrollView@@MBEPBUAFX_MSGMAP@@XZ 1008af28 f   nafxcw:viewscrl.obj
 0001:00089f28       ?GetThisMessageMap@CScrollView@@KGPBUAFX_MSGMAP@@XZ 1008af28 f   nafxcw:viewscrl.obj
 0001:00089f2e       ?GetMessageMap@_AFX_MOUSEANCHORWND@@MBEPBUAFX_MSGMAP@@XZ 1008af2e f   nafxcw:viewscrl.obj
 0001:00089f34       ?GetRuntimeClass@CScrollView@@UBEPAUCRuntimeClass@@XZ 1008af34 f   nafxcw:viewscrl.obj
 0001:00089f3a       ?GetScrollBarSizes@CScrollView@@IAEXAAVCSize@@@Z 1008af3a f   nafxcw:viewscrl.obj
 0001:00089fb0       ?GetScrollBarState@CScrollView@@IAEXVCSize@@AAV2@1AAVCPoint@@H@Z 1008afb0 f   nafxcw:viewscrl.obj
 0001:0008a07b       ?GetTrueClientSize@CScrollView@@IAEHAAVCSize@@0@Z 1008b07b f   nafxcw:viewscrl.obj
 0001:0008a11f       ?GetWheelScrollDistance@CScrollView@@UAE?AVCSize@@V2@HH@Z 1008b11f f   nafxcw:viewscrl.obj
 0001:0008a155       ?HandleMButtonDown@CScrollView@@QAEJIJ@Z 1008b155 f   nafxcw:viewscrl.obj
 0001:0008a270       ?OnHScroll@CScrollView@@QAEXIIPAVCScrollBar@@@Z 1008b270 f   nafxcw:viewscrl.obj
 0001:0008a2cc       ?OnMouseWheel@CScrollView@@QAEHIFVCPoint@@@Z 1008b2cc f   nafxcw:viewscrl.obj
 0001:0008a300       ?OnPaint@_AFX_MOUSEANCHORWND@@QAEXXZ 1008b300 f   nafxcw:viewscrl.obj
 0001:0008a38a       ?OnPrepareDC@CScrollView@@UAEXPAVCDC@@PAUCPrintInfo@@@Z 1008b38a f   nafxcw:viewscrl.obj
 0001:0008a4bb       ?OnPrintClient@CScrollView@@QAEJPAVCDC@@I@Z 1008b4bb f   nafxcw:viewscrl.obj
 0001:0008a627       ?OnScroll@CScrollView@@UAEHIIH@Z 1008b627 f   nafxcw:viewscrl.obj
 0001:0008a735       ?OnScrollBy@CScrollView@@UAEHVCSize@@H@Z 1008b735 f   nafxcw:viewscrl.obj
 0001:0008a847       ?OnSize@CScrollView@@QAEXIHH@Z 1008b847 f   nafxcw:viewscrl.obj
 0001:0008a876       ?OnTimer@_AFX_MOUSEANCHORWND@@QAEXI@Z 1008b876 f   nafxcw:viewscrl.obj
 0001:0008aae8       ?OnVScroll@CScrollView@@QAEXIIPAVCScrollBar@@@Z 1008bae8 f   nafxcw:viewscrl.obj
 0001:0008ab47       ?ScrollToDevicePosition@CScrollView@@IAEXUtagPOINT@@@Z 1008bb47 f   nafxcw:viewscrl.obj
 0001:0008ab99       ?SetBitmap@_AFX_MOUSEANCHORWND@@QAEXI@Z 1008bb99 f   nafxcw:viewscrl.obj
 0001:0008abc8       ?SetScaleToFitSize@CScrollView@@QAEXUtagSIZE@@@Z 1008bbc8 f   nafxcw:viewscrl.obj
 0001:0008ac82       ?SetScrollSizes@CScrollView@@QAEXHUtagSIZE@@ABU2@1@Z 1008bc82 f   nafxcw:viewscrl.obj
 0001:0008adfd       ?SetViewportExt@CDC@@QAE?AVCSize@@UtagSIZE@@@Z 1008bdfd f i nafxcw:viewscrl.obj
 0001:0008ae27       ?SetViewportOrg@CDC@@QAE?AVCPoint@@UtagPOINT@@@Z 1008be27 f i nafxcw:viewscrl.obj
 0001:0008ae51       ?SetWindowExt@CDC@@QAE?AVCSize@@UtagSIZE@@@Z 1008be51 f i nafxcw:viewscrl.obj
 0001:0008ae7b       ?UpdateBars@CScrollView@@IAEXXZ 1008be7b f   nafxcw:viewscrl.obj
 0001:0008b050       ?WindowProc@_AFX_MOUSEANCHORWND@@UAEJIIJ@Z 1008c050 f   nafxcw:viewscrl.obj
 0001:0008b108       ?_AfxGetMouseScrollLines@@YGIXZ 1008c108 f   nafxcw:viewscrl.obj
 0001:0008b13c       ?CreateObject@CStringList@@SGPAVCObject@@XZ 1008c13c f   nafxcw:list_s.obj
 0001:0008b15e       ??0CStringList@@QAE@H@Z    1008c15e f   nafxcw:list_s.obj
 0001:0008b184       ??1CStringList@@UAE@XZ     1008c184 f   nafxcw:list_s.obj
 0001:0008b1be       ??_G?$CStringT@DV?$StrTraitMFC@DV?$ChTraitsCRT@D@ATL@@@@@ATL@@QAEPAXI@Z 1008c1be f i nafxcw:list_s.obj
 0001:0008b1e5       ??_GCStringList@@UAEPAXI@Z 1008c1e5 f i nafxcw:list_s.obj
 0001:0008b1e5       ??_ECStringList@@UAEPAXI@Z 1008c1e5 f i nafxcw:list_s.obj
 0001:0008b249       ?AddHead@CStringList@@QAEPAU__POSITION@@ABV?$CStringT@DV?$StrTraitMFC@DV?$ChTraitsCRT@D@ATL@@@@@ATL@@@Z 1008c249 f   nafxcw:list_s.obj
 0001:0008b281       ?AddTail@CStringList@@QAEPAU__POSITION@@ABV?$CStringT@DV?$StrTraitMFC@DV?$ChTraitsCRT@D@ATL@@@@@ATL@@@Z 1008c281 f   nafxcw:list_s.obj
 0001:0008b2b8       ?AddTail@CStringList@@QAEPAU__POSITION@@PBD@Z 1008c2b8 f   nafxcw:list_s.obj
 0001:0008b2f4       ?Find@CStringList@@QBEPAU__POSITION@@PBDPAU2@@Z 1008c2f4 f   nafxcw:list_s.obj
 0001:0008b327       ?GetRuntimeClass@CStringList@@UBEPAUCRuntimeClass@@XZ 1008c327 f   nafxcw:list_s.obj
 0001:0008b32d       ?InsertBefore@CStringList@@QAEPAU__POSITION@@PAU2@ABV?$CStringT@DV?$StrTraitMFC@DV?$ChTraitsCRT@D@ATL@@@@@ATL@@@Z 1008c32d f   nafxcw:list_s.obj
 0001:0008b376       ?InsertBefore@CStringList@@QAEPAU__POSITION@@PAU2@PBD@Z 1008c376 f   nafxcw:list_s.obj
 0001:0008b3b5       ?NewNode@CStringList@@IAEPAUCNode@1@PAU21@0@Z 1008c3b5 f   nafxcw:list_s.obj
 0001:0008b428       ?RemoveAll@CStringList@@QAEXXZ 1008c428 f   nafxcw:list_s.obj
 0001:0008b468       ?Serialize@CStringList@@UAEXAAVCArchive@@@Z 1008c468 f   nafxcw:list_s.obj
 0001:0008b4ef       ??0CToolTipCtrl@@QAE@XZ    1008c4ef f   nafxcw:tooltip.obj
 0001:0008b524       ??1CToolTipCtrl@@UAE@XZ    1008c524 f   nafxcw:tooltip.obj
 0001:0008b574       ??_ECToolTipCtrl@@UAEPAXI@Z 1008c574 f i nafxcw:tooltip.obj
 0001:0008b574       ??_GCToolTipCtrl@@UAEPAXI@Z 1008c574 f i nafxcw:tooltip.obj
 0001:0008b5a7       ?AddTool@CToolTipCtrl@@QAEHPAVCWnd@@IPBUtagRECT@@I@Z 1008c5a7 f   nafxcw:tooltip.obj
 0001:0008b61e       ?AddTool@CToolTipCtrl@@QAEHPAVCWnd@@PBDPBUtagRECT@@I@Z 1008c61e f   nafxcw:tooltip.obj
 0001:0008b68b       ?Create@CToolTipCtrl@@UAEHPAVCWnd@@K@Z 1008c68b f   nafxcw:tooltip.obj
 0001:0008b6e0       ?CreateEx@CToolTipCtrl@@UAEHPAVCWnd@@KK@Z 1008c6e0 f   nafxcw:tooltip.obj
 0001:0008b720       ?DelTool@CToolTipCtrl@@QAEXPAVCWnd@@I@Z 1008c720 f   nafxcw:tooltip.obj
 0001:0008b766       ?DestroyToolTipCtrl@CToolTipCtrl@@UAEHXZ 1008c766 f   nafxcw:tooltip.obj
 0001:0008b794       ?EnableToolTips@CWnd@@QAEHH@Z 1008c794 f   nafxcw:tooltip.obj
 0001:0008b7a5       ?FillInToolInfo@CToolTipCtrl@@QBEXAAUtagTOOLINFOA@@PAVCWnd@@I@Z 1008c7a5 f   nafxcw:tooltip.obj
 0001:0008b7f1       ?FilterToolTipMessage@CWnd@@QAEXPAUtagMSG@@@Z 1008c7f1 f   nafxcw:tooltip.obj
 0001:0008bc72       ?GetThisMessageMap@CToolTipCtrl@@KGPBUAFX_MSGMAP@@XZ 1008cc72 f   nafxcw:tooltip.obj
 0001:0008bc72       ?GetMessageMap@CToolTipCtrl@@MBEPBUAFX_MSGMAP@@XZ 1008cc72 f   nafxcw:tooltip.obj
 0001:0008bc78       ?GetRuntimeClass@CToolTipCtrl@@UBEPAUCRuntimeClass@@XZ 1008cc78 f   nafxcw:tooltip.obj
 0001:0008bc7e       ?GetText@CToolTipCtrl@@QBEXAAV?$CStringT@DV?$StrTraitMFC@DV?$ChTraitsCRT@D@ATL@@@@@ATL@@PAVCWnd@@I@Z 1008cc7e f   nafxcw:tooltip.obj
 0001:0008bd57       ?GetToolInfo@CToolTipCtrl@@QBEHAAVCToolInfo@@PAVCWnd@@I@Z 1008cd57 f   nafxcw:tooltip.obj
 0001:0008bd8a       ?OnAddTool@CToolTipCtrl@@IAEJIJ@Z 1008cd8a f   nafxcw:tooltip.obj
 0001:0008be2f       ?OnDisableModal@CToolTipCtrl@@IAEJIJ@Z 1008ce2f f   nafxcw:tooltip.obj
 0001:0008be46       ?OnEnable@CToolTipCtrl@@IAEXH@Z 1008ce46 f   nafxcw:tooltip.obj
 0001:0008be60       ?OnWindowFromPoint@CToolTipCtrl@@IAEJIJ@Z 1008ce60 f   nafxcw:tooltip.obj
 0001:0008bed2       ?SetToolRect@CToolTipCtrl@@QAEXPAVCWnd@@IPBUtagRECT@@@Z 1008ced2 f   nafxcw:tooltip.obj
 0001:0008bf55       ?UpdateTipText@CToolTipCtrl@@QAEXPBDPAVCWnd@@I@Z 1008cf55 f   nafxcw:tooltip.obj
 0001:0008bfd7       ?_AfxRelayToolTipMessage@@YGXPAVCToolTipCtrl@@PAUtagMSG@@@Z 1008cfd7 f   nafxcw:tooltip.obj
 0001:0008c05b       ?_EnableToolTips@CWnd@@QAEHHI@Z 1008d05b f   nafxcw:tooltip.obj
 0001:0008c106       ?_FilterToolTipMessage@CWnd@@SGXPAUtagMSG@@PAV1@@Z 1008d106 f   nafxcw:tooltip.obj
 0001:0008c118       ?CleanUp@CMenuImages@@SGXXZ 1008d118 f   nafxcw:afxmenuimages.obj
 0001:0008c167       ?CreateCopy@CMenuImages@@KGXAAVCMFCToolBarImages@@K@Z 1008d167 f   nafxcw:afxmenuimages.obj
 0001:0008c18a       ?Draw@CMenuImages@@SGXPAVCDC@@W4IMAGES_IDS@1@ABVCPoint@@W4IMAGE_STATE@1@ABVCSize@@@Z 1008d18a f   nafxcw:afxmenuimages.obj
 0001:0008c226       ?Draw@CMenuImages@@SGXPAVCDC@@W4IMAGES_IDS@1@ABVCRect@@W4IMAGE_STATE@1@ABVCSize@@@Z 1008d226 f   nafxcw:afxmenuimages.obj
 0001:0008c2a0       ?Initialize@CMenuImages@@KGHXZ 1008d2a0 f   nafxcw:afxmenuimages.obj
 0001:0008c454       ?SetColor@CMenuImages@@SGXW4IMAGE_STATE@1@K@Z 1008d454 f   nafxcw:afxmenuimages.obj
 0001:0008c586       ?Size@CMenuImages@@SG?AVCSize@@XZ 1008d586 f   nafxcw:afxmenuimages.obj
 0001:0008c600       ??0CDrawingManager@@QAE@AAVCDC@@@Z 1008d600 f   nafxcw:afxdrawmanager.obj
 0001:0008c615       ??1CDrawingManager@@UAE@XZ 1008d615 f   nafxcw:afxdrawmanager.obj
 0001:0008c61c       ??_ECDrawingManager@@UAEPAXI@Z 1008d61c f i nafxcw:afxdrawmanager.obj
 0001:0008c61c       ??_GCDrawingManager@@UAEPAXI@Z 1008d61c f i nafxcw:afxdrawmanager.obj
 0001:0008c6ac       ?CreateBitmap_32@CDrawingManager@@SGPAUHBITMAP__@@ABVCSize@@PAPAX@Z 1008d6ac f   nafxcw:afxdrawmanager.obj
 0001:0008c74f       ?CreateBitmap_32@CDrawingManager@@SGPAUHBITMAP__@@PAU2@K@Z 1008d74f f   nafxcw:afxdrawmanager.obj
 0001:0008c8e8       ?DrawAlpha@CDrawingManager@@QAEXPAVCDC@@ABVCRect@@01@Z 1008d8e8 f   nafxcw:afxdrawmanager.obj
 0001:0008c95b       ?DrawEllipse@CDrawingManager@@QAEXABVCRect@@KK@Z 1008d95b f   nafxcw:afxdrawmanager.obj
 0001:0008d5ae       ?DrawGradientRing@CDrawingManager@@QAEHVCRect@@KKKHHK@Z 1008e5ae f   nafxcw:afxdrawmanager.obj
 0001:0008dd86       ?DrawLine@CDrawingManager@@QAEXHHHHK@Z 1008ed86 f   nafxcw:afxdrawmanager.obj
 0001:0008dff3       ?DrawRect@CDrawingManager@@QAEXABVCRect@@KK@Z 1008eff3 f   nafxcw:afxdrawmanager.obj
 0001:0008e2a9       ?DrawShadow@CDrawingManager@@QAEHVCRect@@HHHPAVCBitmap@@1KH@Z 1008f2a9 f   nafxcw:afxdrawmanager.obj
 0001:0008e76f       ?DrawState@CDC@@QAEHVCPoint@@VCSize@@PAVCBitmap@@IPAVCBrush@@@Z 1008f76f f i nafxcw:afxdrawmanager.obj
 0001:0008e7b8       ?Fill4ColorsGradient@CDrawingManager@@QAEXVCRect@@KKKKHH@Z 1008f7b8 f   nafxcw:afxdrawmanager.obj
 0001:0008e853       ?FillAlpha@CDrawingManager@@QAEXABVCRect@@E@Z 1008f853 f   nafxcw:afxdrawmanager.obj
 0001:0008e96a       ?FillGradient2@CDrawingManager@@QAEXVCRect@@KKH@Z 1008f96a f   nafxcw:afxdrawmanager.obj
 0001:0008ecb7       ?FillGradient@CDrawingManager@@QAEXVCRect@@KKHHH@Z 1008fcb7 f   nafxcw:afxdrawmanager.obj
 0001:0008ee88       ?GrayRect@CDrawingManager@@QAEHVCRect@@HKK@Z 1008fe88 f   nafxcw:afxdrawmanager.obj
 0001:0008f192       ?HLStoRGB_ONE@CDrawingManager@@SGKNNN@Z 10090192 f   nafxcw:afxdrawmanager.obj
 0001:0008f29d       ?HLStoRGB_TWO@CDrawingManager@@SGKNNN@Z 1009029d f   nafxcw:afxdrawmanager.obj
 0001:0008f3a5       ?HSVtoRGB@CDrawingManager@@SGKNNN@Z 100903a5 f   nafxcw:afxdrawmanager.obj
 0001:0008f491       ?HighlightRect@CDrawingManager@@QAEHVCRect@@HKHK@Z 10090491 f   nafxcw:afxdrawmanager.obj
 0001:0008f8fc       ?HueToRGB@CDrawingManager@@SGEMMM@Z 100908fc f   nafxcw:afxdrawmanager.obj
 0001:0008f9ab       ?HuetoRGB@CDrawingManager@@SGNNNN@Z 100909ab f   nafxcw:afxdrawmanager.obj
 0001:0008fa42       ?MirrorRect@CDrawingManager@@QAEXVCRect@@H@Z 10090a42 f   nafxcw:afxdrawmanager.obj
 0001:0008fd42       ?NormalizeRect@CRect@@QAEXXZ 10090d42 f i nafxcw:afxdrawmanager.obj
 0001:0008fd61       ?PixelAlpha@CDrawingManager@@SGKKH@Z 10090d61 f   nafxcw:afxdrawmanager.obj
 0001:0008fdd0       ?PixelAlpha@CDrawingManager@@SGKKKH@Z 10090dd0 f   nafxcw:afxdrawmanager.obj
 0001:0008fe52       ?PixelAlpha@CDrawingManager@@SGKKNNN@Z 10090e52 f   nafxcw:afxdrawmanager.obj
 0001:0008feae       ?PrepareShadowMask@CDrawingManager@@SGPAUHBITMAP__@@HKHH@Z 10090eae f   nafxcw:afxdrawmanager.obj
 0001:0009014b       ?RGBtoHSL@CDrawingManager@@SGXKPAN00@Z 1009114b f   nafxcw:afxdrawmanager.obj
 0001:000902ce       ?RGBtoHSV@CDrawingManager@@SGXKPAN00@Z 100912ce f   nafxcw:afxdrawmanager.obj
 0001:0009041e       ?SetAlphaPixel@CDrawingManager@@SGXPAKVCRect@@HHHHKH@Z 1009141e f i nafxcw:afxdrawmanager.obj
 0001:000904e4       ?SetPixel@CDrawingManager@@SGXPAKHHHHK@Z 100914e4 f   nafxcw:afxdrawmanager.obj
 0001:0009051a       ?SmartMixColors@CDrawingManager@@SGKKKNHH@Z 1009151a f   nafxcw:afxdrawmanager.obj
 0001:00090671       ?_FillGradient@CDrawingManager@@IAEXVCRect@@KKHHH@Z 10091671 f   nafxcw:afxdrawmanager.obj
 0001:00090959       ?sign@@YAHH@Z              10091959 f i nafxcw:afxdrawmanager.obj
 0001:00090971       ?CreateToolTip@CTooltipManager@@SGHAAPAVCToolTipCtrl@@PAVCWnd@@I@Z 10091971 f   nafxcw:afxtooltipmanager.obj
 0001:00090aef       ?CreateToolTipObject@CTooltipManager@@IAEHAAPAVCToolTipCtrl@@I@Z 10091aef f   nafxcw:afxtooltipmanager.obj
 0001:00090b7d       ?DeleteToolTip@CTooltipManager@@SGXAAPAVCToolTipCtrl@@@Z 10091b7d f   nafxcw:afxtooltipmanager.obj
 0001:00090c0f       ?RemoveAt@?$CList@PAUHWND__@@PAU1@@@QAEXPAU__POSITION@@@Z 10091c0f f i nafxcw:afxtooltipmanager.obj
 0001:00090c0f       ?RemoveAt@?$CList@PAUHWND__@@AAPAU1@@@QAEXPAU__POSITION@@@Z 10091c0f f i nafxcw:afxdockingmanager.obj
 0001:00090c0f       ?RemoveAt@?$CList@PAVCFrameWnd@@PAV1@@@QAEXPAU__POSITION@@@Z 10091c0f f i nafxcw:afxframeimpl.obj
 0001:00090c0f       ?RemoveAt@?$CList@IAAI@@QAEXPAU__POSITION@@@Z 10091c0f f i nafxcw:afxdockingmanager.obj
 0001:00090c0f       ?RemoveAt@?$CList@II@@QAEXPAU__POSITION@@@Z 10091c0f f i nafxcw:afxcommandmanager.obj
 0001:00090c48       ?SetTooltipText@CTooltipManager@@SGXPAUtagTOOLINFOA@@PAVCToolTipCtrl@@IV?$CStringT@DV?$StrTraitMFC@DV?$ChTraitsCRT@D@ATL@@@@@ATL@@PBD@Z 10091c48 f   nafxcw:afxtooltipmanager.obj
 0001:00090d8b       ?UpdateTooltips@CTooltipManager@@QAEXXZ 10091d8b f   nafxcw:afxtooltipmanager.obj
 0001:00090dc2       ??0CTagManager@@QAE@PBD@Z  10091dc2 f   nafxcw:afxtagmanager.obj
 0001:00090dff       ??1CTagManager@@UAE@XZ     10091dff f   nafxcw:afxtagmanager.obj
 0001:00090e10       ??_ECTagManager@@UAEPAXI@Z 10091e10 f i nafxcw:afxtagmanager.obj
 0001:00090e10       ??_GCTagManager@@UAEPAXI@Z 10091e10 f i nafxcw:afxtagmanager.obj
 0001:00090e40       ?ExcludeTag@CTagManager@@QAEHPBDAAV?$CStringT@DV?$StrTraitMFC@DV?$ChTraitsCRT@D@ATL@@@@@ATL@@H@Z 10091e40 f   nafxcw:afxtagmanager.obj
 0001:0009113c       ?LoadFromResource@CTagManager@@QAEHPBD0@Z 1009213c f   nafxcw:afxtagmanager.obj
 0001:00091198       ?ParseColor@CTagManager@@SGHABV?$CStringT@DV?$StrTraitMFC@DV?$ChTraitsCRT@D@ATL@@@@@ATL@@AAK@Z 10092198 f   nafxcw:afxtagmanager.obj
 0001:000913fa       ?ParseControlRenderer@CTagManager@@SGHABV?$CStringT@DV?$StrTraitMFC@DV?$ChTraitsCRT@D@ATL@@@@@ATL@@AAVCMFCControlRenderer@@PBD@Z 100923fa f   nafxcw:afxtagmanager.obj
 0001:000914c5       ?ParseControlRendererInfo@CTagManager@@SGHABV?$CStringT@DV?$StrTraitMFC@DV?$ChTraitsCRT@D@ATL@@@@@ATL@@AAVCMFCControlRendererInfo@@@Z 100924c5 f   nafxcw:afxtagmanager.obj
 0001:000916d6       ?ParseFont@CTagManager@@SGHABV?$CStringT@DV?$StrTraitMFC@DV?$ChTraitsCRT@D@ATL@@@@@ATL@@AAUtagLOGFONTA@@@Z 100926d6 f   nafxcw:afxtagmanager.obj
 0001:000919fb       ?ParsePoint@CTagManager@@SGHABV?$CStringT@DV?$StrTraitMFC@DV?$ChTraitsCRT@D@ATL@@@@@ATL@@AAVCPoint@@@Z 100929fb f   nafxcw:afxtagmanager.obj
 0001:00091b77       ?ParseRect@CTagManager@@SGHABV?$CStringT@DV?$StrTraitMFC@DV?$ChTraitsCRT@D@ATL@@@@@ATL@@AAVCRect@@@Z 10092b77 f   nafxcw:afxtagmanager.obj
 0001:00091f4d       ?ParseSize@CTagManager@@SGHABV?$CStringT@DV?$StrTraitMFC@DV?$ChTraitsCRT@D@ATL@@@@@ATL@@AAVCSize@@@Z 10092f4d f   nafxcw:afxtagmanager.obj
 0001:000920c9       ?ParseString@CTagManager@@SGHABV?$CStringT@DV?$StrTraitMFC@DV?$ChTraitsCRT@D@ATL@@@@@ATL@@0AAVCStringArray@@HH@Z 100930c9 f   nafxcw:afxtagmanager.obj
 0001:00092240       ?ParseToolBarImages@CTagManager@@SGHABV?$CStringT@DV?$StrTraitMFC@DV?$ChTraitsCRT@D@ATL@@@@@ATL@@AAVCMFCToolBarImages@@PBD@Z 10093240 f   nafxcw:afxtagmanager.obj
 0001:000923ad       ?ParseToolTipInfo@CTagManager@@SGHABV?$CStringT@DV?$StrTraitMFC@DV?$ChTraitsCRT@D@ATL@@@@@ATL@@AAVCMFCToolTipInfo@@@Z 100933ad f   nafxcw:afxtagmanager.obj
 0001:0009262f       ?ReadBool@CTagManager@@QAEHABV?$CStringT@DV?$StrTraitMFC@DV?$ChTraitsCRT@D@ATL@@@@@ATL@@AAH@Z 1009362f f   nafxcw:afxtagmanager.obj
 0001:000926a2       ?ReadBoolProp@@YGHAAVCTagManager@@PBDAAH@Z 100936a2 f   nafxcw:afxtagmanager.obj
 0001:0009270d       ?ReadColor@CTagManager@@QAEHABV?$CStringT@DV?$StrTraitMFC@DV?$ChTraitsCRT@D@ATL@@@@@ATL@@AAK@Z 1009370d f   nafxcw:afxtagmanager.obj
 0001:00092766       ?ReadControlRenderer@CTagManager@@QAEHABV?$CStringT@DV?$StrTraitMFC@DV?$ChTraitsCRT@D@ATL@@@@@ATL@@AAVCMFCControlRenderer@@PBD@Z 10093766 f   nafxcw:afxtagmanager.obj
 0001:000927c2       ?ReadControlRendererInfo@CTagManager@@QAEHABV?$CStringT@DV?$StrTraitMFC@DV?$ChTraitsCRT@D@ATL@@@@@ATL@@AAVCMFCControlRendererInfo@@@Z 100937c2 f   nafxcw:afxtagmanager.obj
 0001:0009281b       ?ReadFont@CTagManager@@QAEHABV?$CStringT@DV?$StrTraitMFC@DV?$ChTraitsCRT@D@ATL@@@@@ATL@@AAUtagLOGFONTA@@@Z 1009381b f   nafxcw:afxtagmanager.obj
 0001:00092874       ?ReadInt@CTagManager@@QAEHABV?$CStringT@DV?$StrTraitMFC@DV?$ChTraitsCRT@D@ATL@@@@@ATL@@AAH@Z 10093874 f   nafxcw:afxtagmanager.obj
 0001:000928e1       ?ReadRect@CTagManager@@QAEHABV?$CStringT@DV?$StrTraitMFC@DV?$ChTraitsCRT@D@ATL@@@@@ATL@@AAVCRect@@@Z 100938e1 f   nafxcw:afxtagmanager.obj
 0001:0009293a       ?ReadSize@CTagManager@@QAEHABV?$CStringT@DV?$StrTraitMFC@DV?$ChTraitsCRT@D@ATL@@@@@ATL@@AAVCSize@@@Z 1009393a f   nafxcw:afxtagmanager.obj
 0001:00092993       ?ReadToolBarImages@CTagManager@@QAEHABV?$CStringT@DV?$StrTraitMFC@DV?$ChTraitsCRT@D@ATL@@@@@ATL@@AAVCMFCToolBarImages@@PBD@Z 10093993 f   nafxcw:afxtagmanager.obj
 0001:000929ef       ?ReadToolTipInfo@CTagManager@@QAEHABV?$CStringT@DV?$StrTraitMFC@DV?$ChTraitsCRT@D@ATL@@@@@ATL@@AAVCMFCToolTipInfo@@@Z 100939ef f   nafxcw:afxtagmanager.obj
 0001:00092a48       ?SetBuffer@CTagManager@@QAEXPBD@Z 10093a48 f   nafxcw:afxtagmanager.obj
 0001:00092a72       ?CreatePopupMenu@CMFCToolBarMenuButton@@UAEPAVCMFCPopupMenu@@XZ 10093a72 f   nafxcw:afxtoolbarmenubutton.obj
 0001:00092a72       ?CreateObject@CMFCPopupMenu@@SGPAVCObject@@XZ 10093a72 f   nafxcw:afxpopupmenu.obj
 0001:00092aa2       ??0CMFCPopupMenu@@IAE@PAVCMFCToolBarsMenuPropertyPage@@PBD@Z 10093aa2 f   nafxcw:afxpopupmenu.obj
 0001:00092c10       ??0CMFCPopupMenu@@QAE@XZ   10093c10 f   nafxcw:afxpopupmenu.obj
 0001:00092d7c       ??0CMFCShadowWnd@@AAE@PAVCMFCPopupMenu@@H@Z 10093d7c f i nafxcw:afxpopupmenu.obj
 0001:00092dca       ??1CMFCPopupMenu@@UAE@XZ   10093dca f   nafxcw:afxpopupmenu.obj
 0001:00092ed1       ??1CMFCShadowWnd@@EAE@XZ   10093ed1 f i nafxcw:afxpopupmenu.obj
 0001:00092eed       ??_ECMFCPopupMenu@@UAEPAXI@Z 10093eed f i nafxcw:afxpopupmenu.obj
 0001:00092eed       ??_GCMFCPopupMenu@@UAEPAXI@Z 10093eed f i nafxcw:afxpopupmenu.obj
 0001:00092f20       ??_GCMFCShadowWnd@@EAEPAXI@Z 10093f20 f i nafxcw:afxpopupmenu.obj
 0001:00092f20       ??_ECMFCShadowWnd@@EAEPAXI@Z 10093f20 f i nafxcw:afxpopupmenu.obj
 0001:00092f53       ?ActivatePopupMenu@CMFCPopupMenu@@SGHPAVCFrameWnd@@PAV1@@Z 10093f53 f   nafxcw:afxpopupmenu.obj
 0001:000930ce       ?AdjustScroll@CMFCPopupMenu@@IAEHH@Z 100940ce f   nafxcw:afxpopupmenu.obj
 0001:000933f3       ?CheckArea@CMFCPopupMenu@@QBE?AW4MENUAREA_TYPE@1@ABVCPoint@@@Z 100943f3 f   nafxcw:afxpopupmenu.obj
 0001:00093536       ?CloseMenu@CMFCPopupMenu@@QAEXH@Z 10094536 f   nafxcw:afxpopupmenu.obj
 0001:000935e0       ?CollapseSubmenus@CMFCPopupMenu@@IAEXXZ 100945e0 f   nafxcw:afxpopupmenu.obj
 0001:00093647       ?Create@CMFCPopupMenu@@UAEHPAVCWnd@@HHPAUHMENU__@@HH@Z 10094647 f   nafxcw:afxpopupmenu.obj
 0001:000939bc       ?Create@CMFCShadowWnd@@UAEHXZ 100949bc f   nafxcw:afxpopupmenu.obj
 0001:00093aa2       ?CreateTearOffBar@CMFCPopupMenu@@MAEPAVCPane@@PAVCFrameWnd@@IPBD@Z 10094aa2 f   nafxcw:afxpopupmenu.obj
 0001:00093e17       ?DoPaint@CMFCPopupMenu@@MAEXPAVCDC@@@Z 10094e17 f   nafxcw:afxpopupmenu.obj
 0001:000943a6       ?DrawFade@CMFCPopupMenu@@MAEXPAVCDC@@@Z 100953a6 f   nafxcw:afxpopupmenu.obj
 0001:000947ed       ?EnableResize@CMFCPopupMenu@@QAEXVCSize@@@Z 100957ed f   nafxcw:afxpopupmenu.obj
 0001:00094831       ?EnableVertResize@CMFCPopupMenu@@QAEXH@Z 10095831 f   nafxcw:afxpopupmenu.obj
 0001:00094855       ?FindMenuWithConnectedFloaty@CMFCPopupMenu@@KGPAV1@XZ 10095855 f   nafxcw:afxpopupmenu.obj
 0001:00094891       ?GetBorderSize@CMFCPopupMenu@@MBEHXZ 10095891 f   nafxcw:afxpopupmenu.obj
 0001:000948b1       ?GetMenuBar@CMFCPopupMenu@@UAEPAVCMFCPopupMenuBar@@XZ 100958b1 f i nafxcw:afxpopupmenu.obj
 0001:000948b8       ?GetMenuItem@CMFCPopupMenu@@QBEPAVCMFCToolBarMenuButton@@H@Z 100958b8 f   nafxcw:afxpopupmenu.obj
 0001:000948dd       ?GetMenuItemCount@CMFCPopupMenu@@QBEHXZ 100958dd f   nafxcw:afxpopupmenu.obj
 0001:000948fe       ?GetThisMessageMap@CMFCPopupMenu@@KGPBUAFX_MSGMAP@@XZ 100958fe f   nafxcw:afxpopupmenu.obj
 0001:000948fe       ?GetMessageMap@CMFCPopupMenu@@MBEPBUAFX_MSGMAP@@XZ 100958fe f   nafxcw:afxpopupmenu.obj
 0001:00094904       ?GetMessageMap@CMFCShadowWnd@@MBEPBUAFX_MSGMAP@@XZ 10095904 f   nafxcw:afxpopupmenu.obj
 0001:0009490a       ?GetParentArea@CMFCPopupMenu@@UAEPAVCWnd@@AAVCRect@@@Z 1009590a f   nafxcw:afxpopupmenu.obj
 0001:00094972       ?GetParentPopupMenu@CMFCPopupMenu@@QBEPAV1@XZ 10095972 f   nafxcw:afxpopupmenu.obj
 0001:000949cd       ?GetParentToolBar@CMFCPopupMenu@@QBEPAVCMFCToolBar@@XZ 100959cd f   nafxcw:afxpopupmenu.obj
 0001:000949e8       ?GetRuntimeClass@CMFCPopupMenu@@UBEPAUCRuntimeClass@@XZ 100959e8 f   nafxcw:afxpopupmenu.obj
 0001:000949ee       ?GetSafeActivePopupMenu@CMFCPopupMenu@@SGPAV1@XZ 100959ee f   nafxcw:afxpopupmenu.obj
 0001:00094a1e       ?GetSelItem@CMFCPopupMenu@@QAEPAVCMFCToolBarMenuButton@@XZ 10095a1e f   nafxcw:afxpopupmenu.obj
 0001:00094a4d       ?HideRarelyUsedCommands@CMFCPopupMenu@@QBEHXZ 10095a4d f   nafxcw:afxpopupmenu.obj
 0001:00094a59       ?InitMenuBar@CMFCPopupMenu@@MAEHXZ 10095a59 f   nafxcw:afxpopupmenu.obj
 0001:00095088       ?Initialize@CMFCPopupMenu@@IAEXXZ 10096088 f   nafxcw:afxpopupmenu.obj
 0001:000952bc       ?InsertItem@CMFCPopupMenu@@QAEHABVCMFCToolBarMenuButton@@H@Z 100962bc f   nafxcw:afxpopupmenu.obj
 0001:000952f9       ?InsertSeparator@CMFCPopupMenu@@QAEHH@Z 100962f9 f   nafxcw:afxpopupmenu.obj
 0001:00095333       ?IsScrollDnAvailable@CMFCPopupMenu@@MAEHXZ 10096333 f   nafxcw:afxpopupmenu.obj
 0001:000953cd       ?IsScrollUpAvailable@CMFCPopupMenu@@MAEHXZ 100963cd f   nafxcw:afxpopupmenu.obj
 0001:000953f5       ?IsShowAllCommands@CMFCMenuBar@@SGHXZ 100963f5 f i nafxcw:afxpopupmenu.obj
 0001:0009541c       ?NotifyParentDlg@CMFCPopupMenu@@IAEHH@Z 1009641c f   nafxcw:afxpopupmenu.obj
 0001:00095499       ?OnActivateApp@CMFCPopupMenu@@IAEXHK@Z 10096499 f   nafxcw:afxpopupmenu.obj
 0001:000954ec       ?OnCmdMsg@CMFCPopupMenu@@UAEHIHPAXPAUAFX_CMDHANDLERINFO@@@Z 100964ec f   nafxcw:afxpopupmenu.obj
 0001:0009553e       ?OnCreate@CMFCPopupMenu@@IAEHPAUtagCREATESTRUCTA@@@Z 1009653e f   nafxcw:afxpopupmenu.obj
 0001:000956d9       ?OnDestroy@CMFCPopupMenu@@IAEXXZ 100966d9 f   nafxcw:afxpopupmenu.obj
 0001:00095a68       ?OnKeyDown@CMFCPopupMenu@@IAEXIII@Z 10096a68 f   nafxcw:afxpopupmenu.obj
 0001:00095ea7       ?OnLButtonDown@CMFCPopupMenu@@IAEXIVCPoint@@@Z 10096ea7 f   nafxcw:afxpopupmenu.obj
 0001:00095f08       ?OnLButtonUp@CMFCPopupMenu@@IAEXIVCPoint@@@Z 10096f08 f   nafxcw:afxpopupmenu.obj
 0001:00095f45       ?OnMouseActivate@CMFCPopupMenu@@IAEHPAVCWnd@@II@Z 10096f45 f   nafxcw:afxpopupmenu.obj
 0001:00095f45       ?OnMouseActivate@CMFCDropDownFrame@@IAEHPAVCWnd@@II@Z 10096f45 f   nafxcw:afxdropdowntoolbar.obj
 0001:00095f45       ?OnMouseActivate@CMFCRibbonKeyTip@@IAEHPAVCWnd@@II@Z 10096f45 f   nafxcw:afxribbonkeytip.obj
 0001:00095f4b       ?OnMouseMove@CMFCPopupMenu@@IAEXIVCPoint@@@Z 10096f4b f   nafxcw:afxpopupmenu.obj
 0001:00096068       ?OnMouseWheel@CMFCPopupMenu@@IAEHIFVCPoint@@@Z 10097068 f   nafxcw:afxpopupmenu.obj
 0001:000960c7       ?OnNcHitTest@CMFCPopupMenu@@IAEJVCPoint@@@Z 100970c7 f   nafxcw:afxpopupmenu.obj
 0001:000961a8       ?OnNcLButtonDown@CMFCPopupMenu@@IAEXIVCPoint@@@Z 100971a8 f   nafxcw:afxpopupmenu.obj
 0001:000961e8       ?OnNotify@CMFCPopupMenu@@MAEHIJPAJ@Z 100971e8 f   nafxcw:afxpopupmenu.obj
 0001:00096250       ?OnPaint@CMFCPopupMenu@@IAEXXZ 10097250 f   nafxcw:afxpopupmenu.obj
 0001:000962ad       ?OnSetCursor@CMFCPopupMenu@@IAEHPAVCWnd@@II@Z 100972ad f   nafxcw:afxpopupmenu.obj
 0001:00096343       ?OnShowWindow@CMFCPopupMenu@@IAEXHI@Z 10097343 f   nafxcw:afxpopupmenu.obj
 0001:00096360       ?OnSize@CMFCPopupMenu@@IAEXIHH@Z 10097360 f   nafxcw:afxpopupmenu.obj
 0001:00096475       ?OnSize@CMFCShadowWnd@@IAEXIHH@Z 10097475 f   nafxcw:afxpopupmenu.obj
 0001:000965cc       ?OnTimer@CMFCPopupMenu@@IAEXI@Z 100975cc f   nafxcw:afxpopupmenu.obj
 0001:000968c5       ?OnVScroll@CMFCPopupMenu@@IAEXIIPAVCScrollBar@@@Z 100978c5 f   nafxcw:afxpopupmenu.obj
 0001:00096a55       ?OnWindowPosChanged@CMFCPopupMenu@@IAEXPAUtagWINDOWPOS@@@Z 10097a55 f   nafxcw:afxpopupmenu.obj
 0001:00096a9e       ?PostCommand@CMFCPopupMenu@@QAEHI@Z 10097a9e f   nafxcw:afxpopupmenu.obj
 0001:00096ad6       ?PostNcDestroy@CMFCPopupMenu@@MAEXXZ 10097ad6 f   nafxcw:afxpopupmenu.obj
 0001:00096b1e       ?PreTranslateMessage@CMFCPopupMenu@@UAEHPAUtagMSG@@@Z 10097b1e f   nafxcw:afxpopupmenu.obj
 0001:00096be5       ?RecalcLayout@CMFCPopupMenu@@UAEXH@Z 10097be5 f   nafxcw:afxpopupmenu.obj
 0001:00097c39       ?RemoveAllItems@CMFCPopupMenu@@QAEXXZ 10098c39 f   nafxcw:afxpopupmenu.obj
 0001:00097c6a       ?RemoveItem@CMFCPopupMenu@@QAEHH@Z 10098c6a f   nafxcw:afxpopupmenu.obj
 0001:00097ca4       ?Repos@CMFCShadowWnd@@AAEXXZ 10098ca4 f   nafxcw:afxpopupmenu.obj
 0001:00097d9e       ?SaveState@CMFCPopupMenu@@UAEXXZ 10098d9e f   nafxcw:afxpopupmenu.obj
 0001:00097e4e       ?SetOffset@CMFCPopupMenuBar@@QAEXH@Z 10098e4e f i nafxcw:afxpopupmenu.obj
 0001:00097e80       ?SetParentRibbonElement@CMFCPopupMenu@@QAEXPAVCMFCRibbonBaseElement@@@Z 10098e80 f   nafxcw:afxpopupmenu.obj
 0001:00097e96       ?SetQuickMode@CMFCPopupMenu@@QAEXXZ 10098e96 f   nafxcw:afxpopupmenu.obj
 0001:00097eb6       ?SetScrollBar@CMFCPopupMenu@@IAEXXZ 10098eb6 f   nafxcw:afxpopupmenu.obj
 0001:00098108       ?ShowAllCommands@CMFCPopupMenu@@QAEXXZ 10099108 f   nafxcw:afxpopupmenu.obj
 0001:00098218       ?StartResize@CMFCPopupMenu@@IAEHXZ 10099218 f   nafxcw:afxpopupmenu.obj
 0001:0009859e       ?TearOff@CMFCPopupMenu@@MAEHVCPoint@@@Z 1009959e f   nafxcw:afxpopupmenu.obj
 0001:00098963       ?TriggerResize@CMFCPopupMenu@@QAEXXZ 10099963 f   nafxcw:afxpopupmenu.obj
 0001:000989f3       ?UpdateAllShadows@CMFCPopupMenu@@SGXPAUtagRECT@@@Z 100999f3 f   nafxcw:afxpopupmenu.obj
 0001:00098a27       ?UpdateBottomWindows@CMFCPopupMenu@@IAEXH@Z 10099a27 f   nafxcw:afxpopupmenu.obj
 0001:00098b4b       ?UpdateShadow@CMFCPopupMenu@@QAEXPAUtagRECT@@@Z 10099b4b f   nafxcw:afxpopupmenu.obj
 0001:00098f62       ?get_accChild@CMFCPopupMenu@@MAEJUtagVARIANT@@PAPAUIDispatch@@@Z 10099f62 f   nafxcw:afxpopupmenu.obj
 0001:00098fcf       ?get_accChildCount@CMFCPopupMenu@@MAEJPAJ@Z 10099fcf f   nafxcw:afxpopupmenu.obj
 0001:00099023       ?get_accName@CMFCPopupMenu@@MAEJUtagVARIANT@@PAPA_W@Z 1009a023 f   nafxcw:afxpopupmenu.obj
 0001:000990f5       ?get_accParent@CMFCPopupMenu@@MAEJPAPAUIDispatch@@@Z 1009a0f5 f   nafxcw:afxpopupmenu.obj
 0001:00099147       ?get_accRole@CMFCPopupMenu@@MAEJUtagVARIANT@@PAU2@@Z 1009a147 f   nafxcw:afxpopupmenu.obj
 0001:000991c1       ?get_accState@CMFCPopupMenu@@MAEJUtagVARIANT@@PAU2@@Z 1009a1c1 f   nafxcw:afxpopupmenu.obj
 0001:0009923b       ??0CFrameWnd@@QAE@XZ       1009a23b f   nafxcw:winfrm.obj
 0001:00099358       ??0CPushRoutingFrame@@QAE@PAVCFrameWnd@@@Z 1009a358 f i nafxcw:winfrm.obj
 0001:00099390       ??1?$CArray@PAUHWND__@@PAU1@@@UAE@XZ 1009a390 f i nafxcw:winfrm.obj
 0001:000993a6       ??1?$CTypedPtrArray@VCObArray@@PAVCBitmap@@@@UAE@XZ 1009a3a6 f i nafxcw:winfrm.obj
 0001:000993ab       ??1CFrameWnd@@UAE@XZ       1009a3ab f   nafxcw:winfrm.obj
 0001:00099547       ??1CPushRoutingFrame@@QAE@XZ 1009a547 f i nafxcw:winfrm.obj
 0001:00099563       ??_G?$CArray@PAUHWND__@@PAU1@@@UAEPAXI@Z 1009a563 f i nafxcw:winfrm.obj
 0001:00099563       ??_E?$CArray@PAUHWND__@@PAU1@@@UAEPAXI@Z 1009a563 f i nafxcw:winfrm.obj
 0001:00099593       ??_G?$CTypedPtrArray@VCObArray@@PAVCMFCCaptionButton@@@@UAEPAXI@Z 1009a593 f i nafxcw:afxdockablepane.obj
 0001:00099593       ??_E?$CTypedPtrArray@VCObArray@@PAVCMFCCaptionButton@@@@UAEPAXI@Z 1009a593 f i nafxcw:afxdockablepane.obj
 0001:00099593       ??_G?$CTypedPtrArray@VCObArray@@PAVCBitmap@@@@UAEPAXI@Z 1009a593 f i nafxcw:winfrm.obj
 0001:00099593       ??_E?$CTypedPtrArray@VCObArray@@PAVCBitmap@@@@UAEPAXI@Z 1009a593 f i nafxcw:winfrm.obj
 0001:000995c3       ??_GCFrameWnd@@UAEPAXI@Z   1009a5c3 f i nafxcw:winfrm.obj
 0001:000995c3       ??_ECFrameWnd@@UAEPAXI@Z   1009a5c3 f i nafxcw:winfrm.obj
 0001:000995f6       ?ActivateFrame@CFrameWnd@@UAEXH@Z 1009a5f6 f   nafxcw:winfrm.obj
 0001:0009964a       ?AddFrameWnd@CFrameWnd@@IAEXXZ 1009a64a f   nafxcw:winfrm.obj
 0001:00099674       ?AfxIsDescendant@@YGHPAUHWND__@@0@Z 1009a674 f   nafxcw:winfrm.obj
 0001:00099692       ?BeginModalState@CFrameWnd@@UAEXXZ 1009a692 f   nafxcw:winfrm.obj
 0001:000997be       ?BringToTop@CFrameWnd@@IAEXH@Z 1009a7be f   nafxcw:winfrm.obj
 0001:000997f0       ?Create@CFrameWnd@@UAEHPBD0KABUtagRECT@@PAVCWnd@@0KPAUCCreateContext@@@Z 1009a7f0 f   nafxcw:winfrm.obj
 0001:000998b3       ?CreateObject@CFrameWnd@@SGPAVCObject@@XZ 1009a8b3 f   nafxcw:winfrm.obj
 0001:000998e3       ?CreateView@CFrameWnd@@QAEPAVCWnd@@PAUCCreateContext@@I@Z 1009a8e3 f   nafxcw:winfrm.obj
 0001:0009997f       ?DelayUpdateFrameMenu@CFrameWnd@@UAEXPAUHMENU__@@@Z 1009a97f f   nafxcw:winfrm.obj
 0001:00099996       ?DestroyDockBars@CFrameWnd@@QAEXXZ 1009a996 f   nafxcw:winfrm.obj
 0001:00099ac9       ?EndModalState@CFrameWnd@@UAEXXZ 1009aac9 f   nafxcw:winfrm.obj
 0001:00099b37       ?ExitHelpMode@CFrameWnd@@UAEXXZ 1009ab37 f   nafxcw:winfrm.obj
 0001:00099bb5       ?GetActiveDocument@CFrameWnd@@UAEPAVCDocument@@XZ 1009abb5 f   nafxcw:winfrm.obj
 0001:00099bc9       ?GetActiveView@CFrameWnd@@QBEPAVCView@@XZ 1009abc9 f   nafxcw:winfrm.obj
 0001:00099bd0       ?GetControlBar@CFrameWnd@@QAEPAVCControlBar@@I@Z 1009abd0 f   nafxcw:winfrm.obj
 0001:00099c1c       ?GetDefaultAccelerator@CFrameWnd@@UAEPAUHACCEL__@@XZ 1009ac1c f   nafxcw:winfrm.obj
 0001:00099c61       ?GetDockingFrame@CControlBar@@QBEPAVCFrameWnd@@XZ 1009ac61 f   nafxcw:winfrm.obj
 0001:00099c75       ?GetIconWndClass@CFrameWnd@@IAEPBDKI@Z 1009ac75 f   nafxcw:winfrm.obj
 0001:00099d04       ?GetImageList@CToolBarCtrl@@QBEPAVCImageList@@XZ 1009ad04 f i nafxcw:winfrm.obj
 0001:00099d1d       ?GetMenu@CFrameWnd@@UBEPAVCMenu@@XZ 1009ad1d f   nafxcw:winfrm.obj
 0001:00099d49       ?GetMenuBarState@CFrameWnd@@UBEKXZ 1009ad49 f   nafxcw:winfrm.obj
 0001:00099d50       ?GetMenuBarVisibility@CFrameWnd@@UBEKXZ 1009ad50 f   nafxcw:winfrm.obj
 0001:00099d57       ?GetMessageBar@CFrameWnd@@UAEPAVCWnd@@XZ 1009ad57 f   nafxcw:winfrm.obj
 0001:00099d67       ?GetMessageMap@CFrameWnd@@MBEPBUAFX_MSGMAP@@XZ 1009ad67 f   nafxcw:winfrm.obj
 0001:00099d67       ?GetThisMessageMap@CFrameWnd@@KGPBUAFX_MSGMAP@@XZ 1009ad67 f   nafxcw:winfrm.obj
 0001:00099d6d       ?GetMessageString@CFrameWnd@@UBEXIAAV?$CStringT@DV?$StrTraitMFC@DV?$ChTraitsCRT@D@ATL@@@@@ATL@@@Z 1009ad6d f   nafxcw:winfrm.obj
 0001:00099db2       ?GetRuntimeClass@CFrameWnd@@UBEPAUCRuntimeClass@@XZ 1009adb2 f   nafxcw:winfrm.obj
 0001:00099db8       ?IsFloating@CControlBar@@QBEHXZ 1009adb8 f   nafxcw:winfrm.obj
 0001:00099df4       ?LoadAccelTable@CFrameWnd@@QAEHPBD@Z 1009adf4 f   nafxcw:winfrm.obj
 0001:00099e20       ?LoadFrame@CFrameWnd@@UAEHIKPAVCWnd@@PAUCCreateContext@@@Z 1009ae20 f   nafxcw:winfrm.obj
 0001:00099f50       ?NegotiateBorderSpace@CFrameWnd@@UAEHIPAUtagRECT@@@Z 1009af50 f   nafxcw:winfrm.obj
 0001:00099fc5       ?NotifyFloatingWindows@CFrameWnd@@QAEXK@Z 1009afc5 f   nafxcw:winfrm.obj
 0001:0009a087       ?OnActivate@CFrameWnd@@IAEXIPAVCWnd@@H@Z 1009b087 f   nafxcw:winfrm.obj
 0001:0009a1bb       ?OnActivateTopLevel@CFrameWnd@@IAEJIJ@Z 1009b1bb f   nafxcw:winfrm.obj
 0001:0009a27d       ?OnBarCheck@CFrameWnd@@QAEHI@Z 1009b27d f   nafxcw:winfrm.obj
 0001:0009a2b9       ?OnChevronPushed@CFrameWnd@@IAEHIPAUtagNMHDR@@PAJ@Z 1009b2b9 f   nafxcw:winfrm.obj
 0001:0009a971       ?OnClose@CFrameWnd@@IAEXXZ 1009b971 f   nafxcw:winfrm.obj
 0001:0009ab72       ?OnCmdMsg@CFrameWnd@@UAEHIHPAXPAUAFX_CMDHANDLERINFO@@@Z 1009bb72 f   nafxcw:winfrm.obj
 0001:0009ac16       ?OnCommand@CFrameWnd@@MAEHIJ@Z 1009bc16 f   nafxcw:winfrm.obj
 0001:0009aca0       ?OnCommandHelp@CFrameWnd@@IAEJIJ@Z 1009bca0 f   nafxcw:winfrm.obj
 0001:0009ad13       ?OnCreate@CFrameWnd@@IAEHPAUtagCREATESTRUCTA@@@Z 1009bd13 f   nafxcw:winfrm.obj
 0001:0009ad2f       ?OnCreateClient@CFrameWnd@@MAEHPAUtagCREATESTRUCTA@@PAUCCreateContext@@@Z 1009bd2f f   nafxcw:winfrm.obj
 0001:0009ad54       ?OnCreateHelper@CFrameWnd@@IAEHPAUtagCREATESTRUCTA@@PAUCCreateContext@@@Z 1009bd54 f   nafxcw:winfrm.obj
 0001:0009adbb       ?OnDDEExecute@CFrameWnd@@IAEXPAVCWnd@@PAX@Z 1009bdbb f   nafxcw:winfrm.obj
 0001:0009aeee       ?OnDDEInitiate@CFrameWnd@@IAEXPAVCWnd@@II@Z 1009beee f   nafxcw:winfrm.obj
 0001:0009afd3       ?OnDDETerminate@CFrameWnd@@IAEXPAVCWnd@@@Z 1009bfd3 f   nafxcw:winfrm.obj
 0001:0009affa       ?OnDestroy@CFrameWnd@@IAEXXZ 1009bffa f   nafxcw:winfrm.obj
 0001:0009b058       ?OnDropFiles@CFrameWnd@@IAEXPAUHDROP__@@@Z 1009c058 f   nafxcw:winfrm.obj
 0001:0009b101       ?OnEnable@CFrameWnd@@IAEXH@Z 1009c101 f   nafxcw:winfrm.obj
 0001:0009b1f5       ?OnEndSession@CFrameWnd@@IAEXH@Z 1009c1f5 f   nafxcw:winfrm.obj
 0001:0009b276       ?OnEnterIdle@CFrameWnd@@IAEXIPAVCWnd@@@Z 1009c276 f   nafxcw:winfrm.obj
 0001:0009b2a8       ?OnEraseBkgnd@CFrameWnd@@IAEHPAVCDC@@@Z 1009c2a8 f   nafxcw:winfrm.obj
 0001:0009b2be       ?OnHScroll@CFrameWnd@@IAEXIIPAVCScrollBar@@@Z 1009c2be f   nafxcw:winfrm.obj
 0001:0009b2e6       ?OnHelpHitTest@CFrameWnd@@IAEJIJ@Z 1009c2e6 f   nafxcw:winfrm.obj
 0001:0009b2fc       ?OnHelpPromptAddr@CFrameWnd@@IAEJIJ@Z 1009c2fc f   nafxcw:winfrm.obj
 0001:0009b305       ?OnIdleUpdateCmdUI@CFrameWnd@@IAEXXZ 1009c305 f   nafxcw:winfrm.obj
 0001:0009b3a4       ?OnInitMenu@CFrameWnd@@IAEXPAVCMenu@@@Z 1009c3a4 f   nafxcw:winfrm.obj
 0001:0009b3d8       ?OnInitMenuPopup@CFrameWnd@@IAEXPAVCMenu@@IH@Z 1009c3d8 f   nafxcw:winfrm.obj
 0001:0009b5b6       ?OnMenuChar@CFrameWnd@@IAEJIIPAVCMenu@@@Z 1009c5b6 f   nafxcw:winfrm.obj
 0001:0009b5f5       ?OnMenuSelect@CFrameWnd@@IAEXIIPAUHMENU__@@@Z 1009c5f5 f   nafxcw:winfrm.obj
 0001:0009b7b3       ?OnNcActivate@CFrameWnd@@IAEHH@Z 1009c7b3 f   nafxcw:winfrm.obj
 0001:0009b7f5       ?OnPaletteChanged@CFrameWnd@@IAEXPAVCWnd@@@Z 1009c7f5 f   nafxcw:winfrm.obj
 0001:0009b825       ?OnPopMessageString@CFrameWnd@@IAEJIJ@Z 1009c825 f   nafxcw:winfrm.obj
 0001:0009b84a       ?OnQueryEndSession@CFrameWnd@@IAEHXZ 1009c84a f   nafxcw:winfrm.obj
 0001:0009b890       ?OnQueryNewPalette@CFrameWnd@@IAEHXZ 1009c890 f   nafxcw:winfrm.obj
 0001:0009b8c4       ?OnSetCursor@CFrameWnd@@IAEHPAVCWnd@@II@Z 1009c8c4 f   nafxcw:winfrm.obj
 0001:0009b8fb       ?OnSetFocus@CFrameWnd@@IAEXPAVCWnd@@@Z 1009c8fb f   nafxcw:winfrm.obj
 0001:0009b919       ?OnSetMessageString@CFrameWnd@@IAEJIJ@Z 1009c919 f   nafxcw:winfrm.obj
 0001:0009b9f0       ?OnSetPreviewMode@CFrameWnd@@UAEXHPAUCPrintPreviewState@@@Z 1009c9f0 f   nafxcw:winfrm.obj
 0001:0009bcd7       ?OnSize@CFrameWnd@@IAEXIHH@Z 1009ccd7 f   nafxcw:winfrm.obj
 0001:0009bd05       ?OnSysCommand@CFrameWnd@@IAEXIJ@Z 1009cd05 f   nafxcw:winfrm.obj
 0001:0009bdad       ?OnToolTipText@CFrameWnd@@IAEHIPAUtagNMHDR@@PAJ@Z 1009cdad f   nafxcw:winfrm.obj
 0001:0009bec1       ?OnUpdateContextHelp@CFrameWnd@@IAEXPAVCCmdUI@@@Z 1009cec1 f   nafxcw:winfrm.obj
 0001:0009bf0a       ?OnUpdateControlBarMenu@CFrameWnd@@QAEXPAVCCmdUI@@@Z 1009cf0a f   nafxcw:winfrm.obj
 0001:0009bf55       ?OnUpdateFrameMenu@CFrameWnd@@UAEXPAUHMENU__@@@Z 1009cf55 f   nafxcw:winfrm.obj
 0001:0009bfc5       ?OnUpdateFrameTitle@CFrameWnd@@UAEXH@Z 1009cfc5 f   nafxcw:winfrm.obj
 0001:0009c02b       ?OnUpdateKeyIndicator@CFrameWnd@@IAEXPAVCCmdUI@@@Z 1009d02b f   nafxcw:winfrm.obj
 0001:0009c093       ?OnVScroll@CFrameWnd@@IAEXIIPAVCScrollBar@@@Z 1009d093 f   nafxcw:winfrm.obj
 0001:0009c0bb       ?Pop@CPushRoutingFrame@@QAEXXZ 1009d0bb f i nafxcw:winfrm.obj
 0001:0009c0e1       ?PreCreateWindow@CFrameWnd@@MAEHAAUtagCREATESTRUCTA@@@Z 1009d0e1 f   nafxcw:winfrm.obj
 0001:0009c11d       ?PreTranslateMessage@CFrameWnd@@UAEHPAUtagMSG@@@Z 1009d11d f   nafxcw:winfrm.obj
 0001:0009c2fc       ?RecalcLayout@CFrameWnd@@UAEXH@Z 1009d2fc f   nafxcw:winfrm.obj
 0001:0009c418       ?RemoveControlBar@CFrameWnd@@QAEXPAVCControlBar@@@Z 1009d418 f   nafxcw:winfrm.obj
 0001:0009c43f       ?RemoveFrameWnd@CFrameWnd@@IAEXXZ 1009d43f f   nafxcw:winfrm.obj
 0001:0009c469       ?SetActiveView@CFrameWnd@@QAEXPAVCView@@H@Z 1009d469 f   nafxcw:winfrm.obj
 0001:0009c4e0       ?SetMenu@CFrameWnd@@UAEHPAVCMenu@@@Z 1009d4e0 f   nafxcw:winfrm.obj
 0001:0009c526       ?SetMenuBarState@CFrameWnd@@UAEHK@Z 1009d526 f   nafxcw:winfrm.obj
 0001:0009c5ac       ?SetMenuBarVisibility@CFrameWnd@@UAEXK@Z 1009d5ac f   nafxcw:winfrm.obj
 0001:0009c611       ?SetMessageText@CFrameWnd@@QAEXI@Z 1009d611 f   nafxcw:winfrm.obj
 0001:0009c62b       ?ShowControlBar@CFrameWnd@@QAEXPAVCControlBar@@HH@Z 1009d62b f   nafxcw:winfrm.obj
 0001:0009c773       ?ShowOwnedWindows@CFrameWnd@@QAEXH@Z 1009d773 f   nafxcw:winfrm.obj
 0001:0009c80d       ?UpdateFrameTitleForDocument@CFrameWnd@@QAEXPBD@Z 1009d80d f   nafxcw:winfrm.obj
 0001:0009c935       ?_mbstowcsz@ATL@@YAHPA_WPBDK@Z 1009d935 f i nafxcw:winfrm.obj
 0001:0009c983       ??0CMiniFrameWnd@@QAE@XZ   1009d983 f   nafxcw:winmini.obj
 0001:0009c9b5       ??1CMiniFrameWnd@@UAE@XZ   1009d9b5 f   nafxcw:winmini.obj
 0001:0009ca08       ??_GCMiniFrameWnd@@UAEPAXI@Z 1009da08 f i nafxcw:winmini.obj
 0001:0009ca08       ??_ECMiniFrameWnd@@UAEPAXI@Z 1009da08 f i nafxcw:winmini.obj
 0001:0009ca3b       ?Create@CMiniFrameWnd@@UAEHPBD0KABUtagRECT@@PAVCWnd@@I@Z 1009da3b f   nafxcw:winmini.obj
 0001:0009ca5b       ?CreateEx@CMiniFrameWnd@@UAEHKPBD0KABUtagRECT@@PAVCWnd@@I@Z 1009da5b f   nafxcw:winmini.obj
 0001:0009cae0       ?CreateObject@CMiniFrameWnd@@SGPAVCObject@@XZ 1009dae0 f   nafxcw:winmini.obj
 0001:0009cb10       ?GetThisMessageMap@CMiniFrameWnd@@KGPBUAFX_MSGMAP@@XZ 1009db10 f   nafxcw:winmini.obj
 0001:0009cb10       ?GetMessageMap@CMiniFrameWnd@@MBEPBUAFX_MSGMAP@@XZ 1009db10 f   nafxcw:winmini.obj
 0001:0009cb16       ?GetRuntimeClass@CMiniFrameWnd@@UBEPAUCRuntimeClass@@XZ 1009db16 f   nafxcw:winmini.obj
 0001:0009cb1c       ?OnFloatStatus@CMiniFrameWnd@@QAEJIJ@Z 1009db1c f   nafxcw:winmini.obj
 0001:0009cb1c       ?OnFloatStatus@CPaneFrameWnd@@IAEJIJ@Z 1009db1c f   nafxcw:afxpaneframewnd.obj
 0001:0009cbc3       ?OnGetMinMaxInfo@CMiniFrameWnd@@QAEXPAUtagMINMAXINFO@@@Z 1009dbc3 f   nafxcw:winmini.obj
 0001:0009cc3b       ?OnNcActivate@CMiniFrameWnd@@QAEHH@Z 1009dc3b f   nafxcw:winmini.obj
 0001:0009cc68       ?OnNcCreate@CMiniFrameWnd@@QAEHPAUtagCREATESTRUCTA@@@Z 1009dc68 f   nafxcw:winmini.obj
 0001:0009cc68       ?OnNcCreate@CPaneFrameWnd@@IAEHPAUtagCREATESTRUCTA@@@Z 1009dc68 f   nafxcw:afxpaneframewnd.obj
 0001:0009ccf3       ?OnNcHitTest@CMiniFrameWnd@@QAEJVCPoint@@@Z 1009dcf3 f   nafxcw:winmini.obj
 0001:0009ce1d       ?OnQueryCenterWnd@CMiniFrameWnd@@QAEJIJ@Z 1009de1d f   nafxcw:winmini.obj
 0001:0009ce43       ?OnSysCommand@CMiniFrameWnd@@QAEXIJ@Z 1009de43 f   nafxcw:winmini.obj
 0001:0009ceac       ?PreCreateWindow@CMiniFrameWnd@@MAEHAAUtagCREATESTRUCTA@@@Z 1009deac f   nafxcw:winmini.obj
 0001:0009cee8       ?CreateObject@CMFCColorBar@@SGPAVCObject@@XZ 1009dee8 f   nafxcw:afxcolorbar.obj
 0001:0009cf18       ?CreateObject@CMFCToolBarColorButton@@SGPAVCObject@@XZ 1009df18 f   nafxcw:afxcolorbar.obj
 0001:0009cf4f       ??0CMFCColorBar@@IAE@AAV0@I@Z 1009df4f f   nafxcw:afxcolorbar.obj
 0001:0009d12c       ??0CMFCColorBar@@IAE@ABV?$CArray@KK@@KPBD11AAV?$CList@KK@@HHHKIPAVCMFCColorButton@@@Z 1009e12c f   nafxcw:afxcolorbar.obj
 0001:0009d2d6       ??0CMFCColorBar@@QAE@XZ    1009e2d6 f   nafxcw:afxcolorbar.obj
 0001:0009d3e7       ??0CMFCColorBarCmdUI@@QAE@XZ 1009e3e7 f   nafxcw:afxcolorbar.obj
 0001:0009d400       ??0CMFCToolBarColorButton@@IAE@KHHPBDHHH@Z 1009e400 f i nafxcw:afxcolorbar.obj
 0001:0009d486       ??0CMFCToolBarColorButton@@IAE@PBDH@Z 1009e486 f i nafxcw:afxcolorbar.obj
 0001:0009d502       ??1CMFCColorBar@@UAE@XZ    1009e502 f   nafxcw:afxcolorbar.obj
 0001:0009d59d       ??A?$CMap@KKV?$CStringT@DV?$StrTraitMFC@DV?$ChTraitsCRT@D@ATL@@@@@ATL@@PBD@@QAEAAV?$CStringT@DV?$StrTraitMFC@DV?$ChTraitsCRT@D@ATL@@@@@ATL@@K@Z 1009e59d f i nafxcw:afxcolorbar.obj
 0001:0009d607       ??_E?$CMap@KKV?$CStringT@DV?$StrTraitMFC@DV?$ChTraitsCRT@D@ATL@@@@@ATL@@PBD@@UAEPAXI@Z 1009e607 f i nafxcw:afxcolorbar.obj
 0001:0009d607       ??_G?$CMap@KKV?$CStringT@DV?$StrTraitMFC@DV?$ChTraitsCRT@D@ATL@@@@@ATL@@PBD@@UAEPAXI@Z 1009e607 f i nafxcw:afxcolorbar.obj
 0001:0009d66b       ??_GCMFCColorBar@@UAEPAXI@Z 1009e66b f i nafxcw:afxcolorbar.obj
 0001:0009d66b       ??_ECMFCColorBar@@UAEPAXI@Z 1009e66b f i nafxcw:afxcolorbar.obj
 0001:0009d69e       ??_ECMFCToolBarColorButton@@UAEPAXI@Z 1009e69e f i nafxcw:afxcolorbar.obj
 0001:0009d69e       ??_GCMFCToolBarColorButton@@UAEPAXI@Z 1009e69e f i nafxcw:afxcolorbar.obj
 0001:0009d6d1       ?AdjustLocations@CMFCColorBar@@MAEXXZ 1009e6d1 f   nafxcw:afxcolorbar.obj
 0001:0009da57       ?AllowSelectDisabled@CMFCPopupMenuBar@@MBEHXZ 1009ea57 f i nafxcw:afxcolorbar.obj
 0001:0009da5d       ?CalcSize@CMFCColorBar@@MAE?AVCSize@@H@Z 1009ea5d f   nafxcw:afxcolorbar.obj
 0001:0009dab0       ?ContextToSize@CMFCColorBar@@QAEXHH@Z 1009eab0 f   nafxcw:afxcolorbar.obj
 0001:0009dcdd       ?Create@CMFCColorBar@@UAEHPAVCWnd@@KIPAVCPalette@@HHH@Z 1009ecdd f   nafxcw:afxcolorbar.obj
 0001:0009dd2b       ?CreateControl@CMFCColorBar@@UAEHPAVCWnd@@ABVCRect@@IHPAVCPalette@@@Z 1009ed2b f   nafxcw:afxcolorbar.obj
 0001:0009deb7       ?CreatePalette@CMFCColorBar@@KGHABV?$CArray@KK@@AAVCPalette@@@Z 1009eeb7 f   nafxcw:afxcolorbar.obj
 0001:0009dfc0       ?DoPaint@CMFCColorBar@@MAEXPAVCDC@@@Z 1009efc0 f   nafxcw:afxcolorbar.obj
 0001:0009dff0       ?EnableOtherButton@CMFCColorBar@@QAEXPBDHH@Z 1009eff0 f   nafxcw:afxcolorbar.obj
 0001:0009e05d       ?EnableWindow@CMFCToolBarButton@@UAEXH@Z 1009f05d f i nafxcw:afxcolorbar.obj
 0001:0009e09a       ?GetColorGridSize@CMFCColorBar@@IBE?AVCSize@@H@Z 1009f09a f   nafxcw:afxcolorbar.obj
 0001:0009e158       ?GetCurrentMenuImageSize@CMFCPopupMenuBar@@UBE?AVCSize@@XZ 1009f158 f i nafxcw:afxcolorbar.obj
 0001:0009e187       ?GetExtraHeight@CMFCColorBar@@IBEHH@Z 1009f187 f   nafxcw:afxcolorbar.obj
 0001:0009e227       ?GetInvalidateRect@CMFCToolBarButton@@UBE?BVCRect@@XZ 1009f227 f i nafxcw:afxcolorbar.obj
 0001:0009e23e       ?GetLockedImageSize@CMFCToolBar@@QBE?AVCSize@@XZ 1009f23e f i nafxcw:afxcolorbar.obj
 0001:0009e269       ?GetMessageMap@CMFCColorBar@@MBEPBUAFX_MSGMAP@@XZ 1009f269 f   nafxcw:afxcolorbar.obj
 0001:0009e26f       ?GetRuntimeClass@CMFCColorBar@@UBEPAUCRuntimeClass@@XZ 1009f26f f   nafxcw:afxcolorbar.obj
 0001:0009e275       ?GetRuntimeClass@CMFCToolBarColorButton@@UBEPAUCRuntimeClass@@XZ 1009f275 f   nafxcw:afxcolorbar.obj
 0001:0009e27b       ?HasFocus@CMFCToolBarButton@@UBEHXZ 1009f27b f i nafxcw:afxcolorbar.obj
 0001:0009e2bc       ?InitColors@CMFCColorBar@@KGHPAVCPalette@@AAV?$CArray@KK@@@Z 1009f2bc f   nafxcw:afxcolorbar.obj
 0001:0009e347       ?IsEditable@CMFCToolBarButton@@UBEHXZ 1009f347 f i nafxcw:afxcolorbar.obj
 0001:0009e36f       ?IsExtraSize@CMFCToolBarButton@@UBEHXZ 1009f36f f i nafxcw:afxcolorbar.obj
 0001:0009e373       ?IsOwnerOf@CMFCToolBarButton@@UAEHPAUHWND__@@@Z 1009f373 f i nafxcw:afxcolorbar.obj
 0001:0009e3d1       ?IsWindowVisible@CMFCToolBarButton@@UAEHXZ 1009f3d1 f i nafxcw:afxcolorbar.obj
 0001:0009e41d       ?Lookup@?$CMap@KKV?$CStringT@DV?$StrTraitMFC@DV?$ChTraitsCRT@D@ATL@@@@@ATL@@PBD@@QBEHKAAV?$CStringT@DV?$StrTraitMFC@DV?$ChTraitsCRT@D@ATL@@@@@ATL@@@Z 1009f41d f i nafxcw:afxcolorbar.obj
 0001:0009e449       ?NewAssoc@?$CMap@KKV?$CStringT@DV?$StrTraitMFC@DV?$ChTraitsCRT@D@ATL@@@@@ATL@@PBD@@IAEPAVCAssoc@1@K@Z 1009f449 f i nafxcw:afxcolorbar.obj
 0001:0009e4d0       ?OnChangeHot@CMFCColorBar@@MAEXH@Z 1009f4d0 f   nafxcw:afxcolorbar.obj
 0001:0009e535       ?OnChangeParentWnd@CMFCToolBarColorButton@@MAEXPAVCWnd@@@Z 1009f535 f i nafxcw:afxcolorbar.obj
 0001:0009e55d       ?OnCreate@CMFCColorBar@@IAEHPAUtagCREATESTRUCTA@@@Z 1009f55d f   nafxcw:afxcolorbar.obj
 0001:0009e614       ?OnDestroy@CMFCColorBar@@IAEXXZ 1009f614 f   nafxcw:afxcolorbar.obj
 0001:0009e66a       ?OnDraw@CMFCToolBarColorButton@@MAEXPAVCDC@@ABVCRect@@PAVCMFCToolBarImages@@HHHHH@Z 1009f66a f   nafxcw:afxcolorbar.obj
 0001:0009eaf7       ?OnKey@CMFCColorBar@@MAEHI@Z 1009faf7 f   nafxcw:afxcolorbar.obj
 0001:0009eb6f       ?OnLButtonDblClk@CMFCColorBar@@IAEXIVCPoint@@@Z 1009fb6f f   nafxcw:afxcolorbar.obj
 0001:0009eb96       ?OnLButtonDown@CMFCColorBar@@IAEXIVCPoint@@@Z 1009fb96 f   nafxcw:afxcolorbar.obj
 0001:0009ebe4       ?OnLButtonUp@CMFCColorBar@@IAEXIVCPoint@@@Z 1009fbe4 f   nafxcw:afxcolorbar.obj
 0001:0009ec37       ?OnMouseLeave@CMFCColorBar@@IAEXXZ 1009fc37 f   nafxcw:afxcolorbar.obj
 0001:0009ed0a       ?OnMouseMove@CMFCColorBar@@IAEXIVCPoint@@@Z 1009fd0a f   nafxcw:afxcolorbar.obj
 0001:0009ed31       ?OnNcCalcSize@CMFCColorBar@@IAEXHPAUtagNCCALCSIZE_PARAMS@@@Z 1009fd31 f   nafxcw:afxcolorbar.obj
 0001:0009ed49       ?OnNcPaint@CMFCColorBar@@IAEXXZ 1009fd49 f   nafxcw:afxcolorbar.obj
 0001:0009ed5b       ?OnPaletteChanged@CMFCColorBar@@IAEXPAVCWnd@@@Z 1009fd5b f   nafxcw:afxcolorbar.obj
 0001:0009ed9a       ?OnQueryNewPalette@CMFCColorBar@@IAEHXZ 1009fd9a f   nafxcw:afxcolorbar.obj
 0001:0009edbb       ?OnSendCommand@CMFCColorBar@@MAEHPBVCMFCToolBarButton@@@Z 1009fdbb f   nafxcw:afxcolorbar.obj
 0001:0009f11b       ?OnToolHitTest@CMFCToolBarColorButton@@MAEHPBVCWnd@@PAUtagTOOLINFOA@@@Z 100a011b f i nafxcw:afxcolorbar.obj
 0001:0009f1e8       ?OnUpdateCmdUI@CMFCColorBar@@MAEXPAVCFrameWnd@@H@Z 100a01e8 f   nafxcw:afxcolorbar.obj
 0001:0009f303       ?OpenColorDialog@CMFCColorBar@@MAEHKAAK@Z 100a0303 f   nafxcw:afxcolorbar.obj
 0001:0009f41e       ?PreTranslateMessage@CMFCColorBar@@MAEHPAUtagMSG@@@Z 100a041e f   nafxcw:afxcolorbar.obj
 0001:0009f4f2       ?Rebuild@CMFCColorBar@@MAEXXZ 100a04f2 f   nafxcw:afxcolorbar.obj
 0001:0009f818       ?Rectangle@CDC@@QAEHPBUtagRECT@@@Z 100a0818 f i nafxcw:afxcolorbar.obj
 0001:0009f836       ?RemoveAll@?$CMap@KKV?$CStringT@DV?$StrTraitMFC@DV?$ChTraitsCRT@D@ATL@@@@@ATL@@PBD@@QAEXXZ 100a0836 f i nafxcw:afxcolorbar.obj
 0001:0009f894       ?SelectPalette@CMFCColorBar@@IAEPAVCPalette@@PAVCDC@@@Z 100a0894 f   nafxcw:afxcolorbar.obj
 0001:0009f924       ?Serialize@?$CMap@KKV?$CStringT@DV?$StrTraitMFC@DV?$ChTraitsCRT@D@ATL@@@@@ATL@@PBD@@UAEXAAVCArchive@@@Z 100a0924 f i nafxcw:afxcolorbar.obj
 0001:0009fa11       ?Serialize@CMFCColorBar@@MAEXAAVCArchive@@@Z 100a0a11 f   nafxcw:afxcolorbar.obj
 0001:0009fbf8       ?SetAt@?$CMap@KKV?$CStringT@DV?$StrTraitMFC@DV?$ChTraitsCRT@D@ATL@@@@@ATL@@PBD@@QAEXKPBD@Z 100a0bf8 f i nafxcw:afxcolorbar.obj
